
covert.elf:     file format elf32-littlearm

Sections:
Idx Name          Size      VMA       LMA       File off  Algn
  0 .isr_vector   000000c0  08000000  08000000  00010000  2**0
                  CONTENTS, ALLOC, LOAD, READONLY, DATA
  1 .text         00009288  080000c0  080000c0  000100c0  2**3
                  CONTENTS, ALLOC, LOAD, READONLY, CODE
  2 .rodata       000002e4  08009348  08009348  00019348  2**2
                  CONTENTS, ALLOC, LOAD, READONLY, DATA
  3 .ARM.extab    00000000  0800962c  0800962c  000200f4  2**0
                  CONTENTS
  4 .ARM          00000000  0800962c  0800962c  000200f4  2**0
                  CONTENTS
  5 .preinit_array 00000000  0800962c  0800962c  000200f4  2**0
                  CONTENTS, ALLOC, LOAD, DATA
  6 .init_array   00000004  0800962c  0800962c  0001962c  2**2
                  CONTENTS, ALLOC, LOAD, DATA
  7 .fini_array   00000004  08009630  08009630  00019630  2**2
                  CONTENTS, ALLOC, LOAD, DATA
  8 .data         000000f4  20000000  08009634  00020000  2**2
                  CONTENTS, ALLOC, LOAD, CODE
  9 .bss          000007a4  200000f8  08009728  000200f8  2**3
                  ALLOC
 10 ._user_heap_stack 00000604  2000089c  08009728  0002089c  2**0
                  ALLOC
 11 .ARM.attributes 00000028  00000000  00000000  000200f4  2**0
                  CONTENTS, READONLY
 12 .debug_info   00014b77  00000000  00000000  0002011c  2**0
                  CONTENTS, READONLY, DEBUGGING
 13 .debug_abbrev 00002e12  00000000  00000000  00034c93  2**0
                  CONTENTS, READONLY, DEBUGGING
 14 .debug_aranges 00001288  00000000  00000000  00037aa8  2**3
                  CONTENTS, READONLY, DEBUGGING
 15 .debug_ranges 00001120  00000000  00000000  00038d30  2**3
                  CONTENTS, READONLY, DEBUGGING
 16 .debug_macro  0001b7ea  00000000  00000000  00039e50  2**0
                  CONTENTS, READONLY, DEBUGGING
 17 .debug_line   000124de  00000000  00000000  0005563a  2**0
                  CONTENTS, READONLY, DEBUGGING
 18 .debug_str    000a5a40  00000000  00000000  00067b18  2**0
                  CONTENTS, READONLY, DEBUGGING
 19 .comment      000000fa  00000000  00000000  0010d558  2**0
                  CONTENTS, READONLY
 20 .debug_frame  00004b64  00000000  00000000  0010d654  2**2
                  CONTENTS, READONLY, DEBUGGING

Disassembly of section .text:

080000c0 <__do_global_dtors_aux>:
 80000c0:	b510      	push	{r4, lr}
 80000c2:	4c06      	ldr	r4, [pc, #24]	; (80000dc <__do_global_dtors_aux+0x1c>)
 80000c4:	7823      	ldrb	r3, [r4, #0]
 80000c6:	2b00      	cmp	r3, #0
 80000c8:	d107      	bne.n	80000da <__do_global_dtors_aux+0x1a>
 80000ca:	4b05      	ldr	r3, [pc, #20]	; (80000e0 <__do_global_dtors_aux+0x20>)
 80000cc:	2b00      	cmp	r3, #0
 80000ce:	d002      	beq.n	80000d6 <__do_global_dtors_aux+0x16>
 80000d0:	4804      	ldr	r0, [pc, #16]	; (80000e4 <__do_global_dtors_aux+0x24>)
 80000d2:	e000      	b.n	80000d6 <__do_global_dtors_aux+0x16>
 80000d4:	bf00      	nop
 80000d6:	2301      	movs	r3, #1
 80000d8:	7023      	strb	r3, [r4, #0]
 80000da:	bd10      	pop	{r4, pc}
 80000dc:	200000f8 	.word	0x200000f8
 80000e0:	00000000 	.word	0x00000000
 80000e4:	08009320 	.word	0x08009320

080000e8 <frame_dummy>:
 80000e8:	4b04      	ldr	r3, [pc, #16]	; (80000fc <frame_dummy+0x14>)
 80000ea:	b510      	push	{r4, lr}
 80000ec:	2b00      	cmp	r3, #0
 80000ee:	d003      	beq.n	80000f8 <frame_dummy+0x10>
 80000f0:	4903      	ldr	r1, [pc, #12]	; (8000100 <frame_dummy+0x18>)
 80000f2:	4804      	ldr	r0, [pc, #16]	; (8000104 <frame_dummy+0x1c>)
 80000f4:	e000      	b.n	80000f8 <frame_dummy+0x10>
 80000f6:	bf00      	nop
 80000f8:	bd10      	pop	{r4, pc}
 80000fa:	46c0      	nop			; (mov r8, r8)
 80000fc:	00000000 	.word	0x00000000
 8000100:	200000fc 	.word	0x200000fc
 8000104:	08009320 	.word	0x08009320

08000108 <__udivsi3>:
 8000108:	2200      	movs	r2, #0
 800010a:	0843      	lsrs	r3, r0, #1
 800010c:	428b      	cmp	r3, r1
 800010e:	d374      	bcc.n	80001fa <__udivsi3+0xf2>
 8000110:	0903      	lsrs	r3, r0, #4
 8000112:	428b      	cmp	r3, r1
 8000114:	d35f      	bcc.n	80001d6 <__udivsi3+0xce>
 8000116:	0a03      	lsrs	r3, r0, #8
 8000118:	428b      	cmp	r3, r1
 800011a:	d344      	bcc.n	80001a6 <__udivsi3+0x9e>
 800011c:	0b03      	lsrs	r3, r0, #12
 800011e:	428b      	cmp	r3, r1
 8000120:	d328      	bcc.n	8000174 <__udivsi3+0x6c>
 8000122:	0c03      	lsrs	r3, r0, #16
 8000124:	428b      	cmp	r3, r1
 8000126:	d30d      	bcc.n	8000144 <__udivsi3+0x3c>
 8000128:	22ff      	movs	r2, #255	; 0xff
 800012a:	0209      	lsls	r1, r1, #8
 800012c:	ba12      	rev	r2, r2
 800012e:	0c03      	lsrs	r3, r0, #16
 8000130:	428b      	cmp	r3, r1
 8000132:	d302      	bcc.n	800013a <__udivsi3+0x32>
 8000134:	1212      	asrs	r2, r2, #8
 8000136:	0209      	lsls	r1, r1, #8
 8000138:	d065      	beq.n	8000206 <__udivsi3+0xfe>
 800013a:	0b03      	lsrs	r3, r0, #12
 800013c:	428b      	cmp	r3, r1
 800013e:	d319      	bcc.n	8000174 <__udivsi3+0x6c>
 8000140:	e000      	b.n	8000144 <__udivsi3+0x3c>
 8000142:	0a09      	lsrs	r1, r1, #8
 8000144:	0bc3      	lsrs	r3, r0, #15
 8000146:	428b      	cmp	r3, r1
 8000148:	d301      	bcc.n	800014e <__udivsi3+0x46>
 800014a:	03cb      	lsls	r3, r1, #15
 800014c:	1ac0      	subs	r0, r0, r3
 800014e:	4152      	adcs	r2, r2
 8000150:	0b83      	lsrs	r3, r0, #14
 8000152:	428b      	cmp	r3, r1
 8000154:	d301      	bcc.n	800015a <__udivsi3+0x52>
 8000156:	038b      	lsls	r3, r1, #14
 8000158:	1ac0      	subs	r0, r0, r3
 800015a:	4152      	adcs	r2, r2
 800015c:	0b43      	lsrs	r3, r0, #13
 800015e:	428b      	cmp	r3, r1
 8000160:	d301      	bcc.n	8000166 <__udivsi3+0x5e>
 8000162:	034b      	lsls	r3, r1, #13
 8000164:	1ac0      	subs	r0, r0, r3
 8000166:	4152      	adcs	r2, r2
 8000168:	0b03      	lsrs	r3, r0, #12
 800016a:	428b      	cmp	r3, r1
 800016c:	d301      	bcc.n	8000172 <__udivsi3+0x6a>
 800016e:	030b      	lsls	r3, r1, #12
 8000170:	1ac0      	subs	r0, r0, r3
 8000172:	4152      	adcs	r2, r2
 8000174:	0ac3      	lsrs	r3, r0, #11
 8000176:	428b      	cmp	r3, r1
 8000178:	d301      	bcc.n	800017e <__udivsi3+0x76>
 800017a:	02cb      	lsls	r3, r1, #11
 800017c:	1ac0      	subs	r0, r0, r3
 800017e:	4152      	adcs	r2, r2
 8000180:	0a83      	lsrs	r3, r0, #10
 8000182:	428b      	cmp	r3, r1
 8000184:	d301      	bcc.n	800018a <__udivsi3+0x82>
 8000186:	028b      	lsls	r3, r1, #10
 8000188:	1ac0      	subs	r0, r0, r3
 800018a:	4152      	adcs	r2, r2
 800018c:	0a43      	lsrs	r3, r0, #9
 800018e:	428b      	cmp	r3, r1
 8000190:	d301      	bcc.n	8000196 <__udivsi3+0x8e>
 8000192:	024b      	lsls	r3, r1, #9
 8000194:	1ac0      	subs	r0, r0, r3
 8000196:	4152      	adcs	r2, r2
 8000198:	0a03      	lsrs	r3, r0, #8
 800019a:	428b      	cmp	r3, r1
 800019c:	d301      	bcc.n	80001a2 <__udivsi3+0x9a>
 800019e:	020b      	lsls	r3, r1, #8
 80001a0:	1ac0      	subs	r0, r0, r3
 80001a2:	4152      	adcs	r2, r2
 80001a4:	d2cd      	bcs.n	8000142 <__udivsi3+0x3a>
 80001a6:	09c3      	lsrs	r3, r0, #7
 80001a8:	428b      	cmp	r3, r1
 80001aa:	d301      	bcc.n	80001b0 <__udivsi3+0xa8>
 80001ac:	01cb      	lsls	r3, r1, #7
 80001ae:	1ac0      	subs	r0, r0, r3
 80001b0:	4152      	adcs	r2, r2
 80001b2:	0983      	lsrs	r3, r0, #6
 80001b4:	428b      	cmp	r3, r1
 80001b6:	d301      	bcc.n	80001bc <__udivsi3+0xb4>
 80001b8:	018b      	lsls	r3, r1, #6
 80001ba:	1ac0      	subs	r0, r0, r3
 80001bc:	4152      	adcs	r2, r2
 80001be:	0943      	lsrs	r3, r0, #5
 80001c0:	428b      	cmp	r3, r1
 80001c2:	d301      	bcc.n	80001c8 <__udivsi3+0xc0>
 80001c4:	014b      	lsls	r3, r1, #5
 80001c6:	1ac0      	subs	r0, r0, r3
 80001c8:	4152      	adcs	r2, r2
 80001ca:	0903      	lsrs	r3, r0, #4
 80001cc:	428b      	cmp	r3, r1
 80001ce:	d301      	bcc.n	80001d4 <__udivsi3+0xcc>
 80001d0:	010b      	lsls	r3, r1, #4
 80001d2:	1ac0      	subs	r0, r0, r3
 80001d4:	4152      	adcs	r2, r2
 80001d6:	08c3      	lsrs	r3, r0, #3
 80001d8:	428b      	cmp	r3, r1
 80001da:	d301      	bcc.n	80001e0 <__udivsi3+0xd8>
 80001dc:	00cb      	lsls	r3, r1, #3
 80001de:	1ac0      	subs	r0, r0, r3
 80001e0:	4152      	adcs	r2, r2
 80001e2:	0883      	lsrs	r3, r0, #2
 80001e4:	428b      	cmp	r3, r1
 80001e6:	d301      	bcc.n	80001ec <__udivsi3+0xe4>
 80001e8:	008b      	lsls	r3, r1, #2
 80001ea:	1ac0      	subs	r0, r0, r3
 80001ec:	4152      	adcs	r2, r2
 80001ee:	0843      	lsrs	r3, r0, #1
 80001f0:	428b      	cmp	r3, r1
 80001f2:	d301      	bcc.n	80001f8 <__udivsi3+0xf0>
 80001f4:	004b      	lsls	r3, r1, #1
 80001f6:	1ac0      	subs	r0, r0, r3
 80001f8:	4152      	adcs	r2, r2
 80001fa:	1a41      	subs	r1, r0, r1
 80001fc:	d200      	bcs.n	8000200 <__udivsi3+0xf8>
 80001fe:	4601      	mov	r1, r0
 8000200:	4152      	adcs	r2, r2
 8000202:	4610      	mov	r0, r2
 8000204:	4770      	bx	lr
 8000206:	e7ff      	b.n	8000208 <__udivsi3+0x100>
 8000208:	b501      	push	{r0, lr}
 800020a:	2000      	movs	r0, #0
 800020c:	f000 f806 	bl	800021c <__aeabi_idiv0>
 8000210:	bd02      	pop	{r1, pc}
 8000212:	46c0      	nop			; (mov r8, r8)

08000214 <__aeabi_uidivmod>:
 8000214:	2900      	cmp	r1, #0
 8000216:	d0f7      	beq.n	8000208 <__udivsi3+0x100>
 8000218:	e776      	b.n	8000108 <__udivsi3>
 800021a:	4770      	bx	lr

0800021c <__aeabi_idiv0>:
 800021c:	4770      	bx	lr
 800021e:	46c0      	nop			; (mov r8, r8)

08000220 <__aeabi_lmul>:
 8000220:	b5f0      	push	{r4, r5, r6, r7, lr}
 8000222:	46ce      	mov	lr, r9
 8000224:	4647      	mov	r7, r8
 8000226:	0415      	lsls	r5, r2, #16
 8000228:	0c2d      	lsrs	r5, r5, #16
 800022a:	002e      	movs	r6, r5
 800022c:	b580      	push	{r7, lr}
 800022e:	0407      	lsls	r7, r0, #16
 8000230:	0c14      	lsrs	r4, r2, #16
 8000232:	0c3f      	lsrs	r7, r7, #16
 8000234:	4699      	mov	r9, r3
 8000236:	0c03      	lsrs	r3, r0, #16
 8000238:	437e      	muls	r6, r7
 800023a:	435d      	muls	r5, r3
 800023c:	4367      	muls	r7, r4
 800023e:	4363      	muls	r3, r4
 8000240:	197f      	adds	r7, r7, r5
 8000242:	0c34      	lsrs	r4, r6, #16
 8000244:	19e4      	adds	r4, r4, r7
 8000246:	469c      	mov	ip, r3
 8000248:	42a5      	cmp	r5, r4
 800024a:	d903      	bls.n	8000254 <__aeabi_lmul+0x34>
 800024c:	2380      	movs	r3, #128	; 0x80
 800024e:	025b      	lsls	r3, r3, #9
 8000250:	4698      	mov	r8, r3
 8000252:	44c4      	add	ip, r8
 8000254:	464b      	mov	r3, r9
 8000256:	4343      	muls	r3, r0
 8000258:	4351      	muls	r1, r2
 800025a:	0c25      	lsrs	r5, r4, #16
 800025c:	0436      	lsls	r6, r6, #16
 800025e:	4465      	add	r5, ip
 8000260:	0c36      	lsrs	r6, r6, #16
 8000262:	0424      	lsls	r4, r4, #16
 8000264:	19a4      	adds	r4, r4, r6
 8000266:	195b      	adds	r3, r3, r5
 8000268:	1859      	adds	r1, r3, r1
 800026a:	0020      	movs	r0, r4
 800026c:	bc0c      	pop	{r2, r3}
 800026e:	4690      	mov	r8, r2
 8000270:	4699      	mov	r9, r3
 8000272:	bdf0      	pop	{r4, r5, r6, r7, pc}

08000274 <main>:

/**
 * @brief  The application entry point.
 * @retval int
 */
int main(void) {
 8000274:	b5b0      	push	{r4, r5, r7, lr}
 8000276:	b0a6      	sub	sp, #152	; 0x98
 8000278:	af02      	add	r7, sp, #8
	/* USER CODE END 1 */

	/* MCU Configuration--------------------------------------------------------*/

	/* Reset of all peripherals, Initializes the Flash interface and the Systick. */
	HAL_Init();
 800027a:	f001 fea1 	bl	8001fc0 <HAL_Init>
	/* USER CODE BEGIN Init */

	/* USER CODE END Init */

	/* Configure the system clock */
	SystemClock_Config();
 800027e:	f000 fa93 	bl	80007a8 <SystemClock_Config>

	/* USER CODE BEGIN SysInit */
	uint8_t testing = sizeof(Packet);
 8000282:	2386      	movs	r3, #134	; 0x86
 8000284:	18fb      	adds	r3, r7, r3
 8000286:	2210      	movs	r2, #16
 8000288:	701a      	strb	r2, [r3, #0]
	assert(
			sizeof(PublicKeyPacket) == 33 && sizeof(KeyExchangePacket) == 17
					&& sizeof(Packet) == 16);
	// Key writing to flash
	EraseInitStruct.Banks = FLASH_BANK_1;
 800028a:	4be9      	ldr	r3, [pc, #932]	; (8000630 <main+0x3bc>)
 800028c:	2204      	movs	r2, #4
 800028e:	605a      	str	r2, [r3, #4]
	EraseInitStruct.TypeErase = FLASH_TYPEERASE_PAGES;
 8000290:	4be7      	ldr	r3, [pc, #924]	; (8000630 <main+0x3bc>)
 8000292:	2202      	movs	r2, #2
 8000294:	601a      	str	r2, [r3, #0]
	EraseInitStruct.Page = (FLASH_PAGE_NB - 1);
 8000296:	4be6      	ldr	r3, [pc, #920]	; (8000630 <main+0x3bc>)
 8000298:	223f      	movs	r2, #63	; 0x3f
 800029a:	609a      	str	r2, [r3, #8]
	EraseInitStruct.NbPages = 1;
 800029c:	4be4      	ldr	r3, [pc, #912]	; (8000630 <main+0x3bc>)
 800029e:	2201      	movs	r2, #1
 80002a0:	60da      	str	r2, [r3, #12]

	// Sequence Number storing in flash
	EraseSeqStruct.Banks = FLASH_BANK_1;
 80002a2:	4be4      	ldr	r3, [pc, #912]	; (8000634 <main+0x3c0>)
 80002a4:	2204      	movs	r2, #4
 80002a6:	605a      	str	r2, [r3, #4]
	EraseSeqStruct.TypeErase = FLASH_TYPEERASE_PAGES;
 80002a8:	4be2      	ldr	r3, [pc, #904]	; (8000634 <main+0x3c0>)
 80002aa:	2202      	movs	r2, #2
 80002ac:	601a      	str	r2, [r3, #0]
	EraseSeqStruct.Page = (FLASH_PAGE_NB - 2);
 80002ae:	4be1      	ldr	r3, [pc, #900]	; (8000634 <main+0x3c0>)
 80002b0:	223e      	movs	r2, #62	; 0x3e
 80002b2:	609a      	str	r2, [r3, #8]
	EraseSeqStruct.NbPages = 1;
 80002b4:	4bdf      	ldr	r3, [pc, #892]	; (8000634 <main+0x3c0>)
 80002b6:	2201      	movs	r2, #1
 80002b8:	60da      	str	r2, [r3, #12]

	recording.enabled = 0;
 80002ba:	4bdf      	ldr	r3, [pc, #892]	; (8000638 <main+0x3c4>)
 80002bc:	2200      	movs	r2, #0
 80002be:	701a      	strb	r2, [r3, #0]
	playback.enabled = 0;
 80002c0:	4bde      	ldr	r3, [pc, #888]	; (800063c <main+0x3c8>)
 80002c2:	2200      	movs	r2, #0
 80002c4:	701a      	strb	r2, [r3, #0]

	radio.spi_handle = &hspi1;
 80002c6:	4bde      	ldr	r3, [pc, #888]	; (8000640 <main+0x3cc>)
 80002c8:	4ade      	ldr	r2, [pc, #888]	; (8000644 <main+0x3d0>)
 80002ca:	601a      	str	r2, [r3, #0]

	radio.nss_port = RADIO_CS_GPIO_Port;
 80002cc:	4bdc      	ldr	r3, [pc, #880]	; (8000640 <main+0x3cc>)
 80002ce:	22a0      	movs	r2, #160	; 0xa0
 80002d0:	05d2      	lsls	r2, r2, #23
 80002d2:	605a      	str	r2, [r3, #4]
	radio.nss_pin = RADIO_CS_Pin;
 80002d4:	4bda      	ldr	r3, [pc, #872]	; (8000640 <main+0x3cc>)
 80002d6:	2280      	movs	r2, #128	; 0x80
 80002d8:	811a      	strh	r2, [r3, #8]
	radio.nrst_port = RADIO_RESET_GPIO_Port;
 80002da:	4bd9      	ldr	r3, [pc, #868]	; (8000640 <main+0x3cc>)
 80002dc:	4ada      	ldr	r2, [pc, #872]	; (8000648 <main+0x3d4>)
 80002de:	60da      	str	r2, [r3, #12]
	radio.nrst_pin = RADIO_RESET_Pin;
 80002e0:	4bd7      	ldr	r3, [pc, #860]	; (8000640 <main+0x3cc>)
 80002e2:	2210      	movs	r2, #16
 80002e4:	821a      	strh	r2, [r3, #16]
	radio.irq_port = RADIO_INT_GPIO_Port;
 80002e6:	4bd6      	ldr	r3, [pc, #856]	; (8000640 <main+0x3cc>)
 80002e8:	22a0      	movs	r2, #160	; 0xa0
 80002ea:	05d2      	lsls	r2, r2, #23
 80002ec:	615a      	str	r2, [r3, #20]
	radio.irq_pin = RADIO_INT_Pin;
 80002ee:	4bd4      	ldr	r3, [pc, #848]	; (8000640 <main+0x3cc>)
 80002f0:	2201      	movs	r2, #1
 80002f2:	831a      	strh	r2, [r3, #24]

	radio.txDone = true;
 80002f4:	4bd2      	ldr	r3, [pc, #840]	; (8000640 <main+0x3cc>)
 80002f6:	2222      	movs	r2, #34	; 0x22
 80002f8:	2101      	movs	r1, #1
 80002fa:	5499      	strb	r1, [r3, r2]
	radio.rxDoneCallback = readingCallback;
 80002fc:	4bd0      	ldr	r3, [pc, #832]	; (8000640 <main+0x3cc>)
 80002fe:	4ad3      	ldr	r2, [pc, #844]	; (800064c <main+0x3d8>)
 8000300:	625a      	str	r2, [r3, #36]	; 0x24

	aKeys.gotOther = 0;
 8000302:	4bd3      	ldr	r3, [pc, #844]	; (8000650 <main+0x3dc>)
 8000304:	2280      	movs	r2, #128	; 0x80
 8000306:	2100      	movs	r1, #0
 8000308:	5499      	strb	r1, [r3, r2]
	aKeys.pairing = 0;
 800030a:	4bd1      	ldr	r3, [pc, #836]	; (8000650 <main+0x3dc>)
 800030c:	2282      	movs	r2, #130	; 0x82
 800030e:	2100      	movs	r1, #0
 8000310:	5499      	strb	r1, [r3, r2]
	aKeys.masterSent = 0;
 8000312:	4bcf      	ldr	r3, [pc, #828]	; (8000650 <main+0x3dc>)
 8000314:	2281      	movs	r2, #129	; 0x81
 8000316:	2100      	movs	r1, #0
 8000318:	5499      	strb	r1, [r3, r2]
	aKeys.sharedSecret[0] = 0;
 800031a:	4bcd      	ldr	r3, [pc, #820]	; (8000650 <main+0x3dc>)
 800031c:	2260      	movs	r2, #96	; 0x60
 800031e:	2100      	movs	r1, #0
 8000320:	5499      	strb	r1, [r3, r2]

	outgoing.data = 0;
 8000322:	4bcc      	ldr	r3, [pc, #816]	; (8000654 <main+0x3e0>)
 8000324:	3306      	adds	r3, #6
 8000326:	781a      	ldrb	r2, [r3, #0]
 8000328:	2100      	movs	r1, #0
 800032a:	400a      	ands	r2, r1
 800032c:	701a      	strb	r2, [r3, #0]
 800032e:	785a      	ldrb	r2, [r3, #1]
 8000330:	2100      	movs	r1, #0
 8000332:	400a      	ands	r2, r1
 8000334:	705a      	strb	r2, [r3, #1]
 8000336:	789a      	ldrb	r2, [r3, #2]
 8000338:	2100      	movs	r1, #0
 800033a:	400a      	ands	r2, r1
 800033c:	709a      	strb	r2, [r3, #2]
 800033e:	78da      	ldrb	r2, [r3, #3]
 8000340:	2100      	movs	r1, #0
 8000342:	400a      	ands	r2, r1
 8000344:	70da      	strb	r2, [r3, #3]
 8000346:	791a      	ldrb	r2, [r3, #4]
 8000348:	2100      	movs	r1, #0
 800034a:	400a      	ands	r2, r1
 800034c:	711a      	strb	r2, [r3, #4]
 800034e:	795a      	ldrb	r2, [r3, #5]
 8000350:	2100      	movs	r1, #0
 8000352:	400a      	ands	r2, r1
 8000354:	715a      	strb	r2, [r3, #5]
 8000356:	799a      	ldrb	r2, [r3, #6]
 8000358:	2100      	movs	r1, #0
 800035a:	400a      	ands	r2, r1
 800035c:	719a      	strb	r2, [r3, #6]
 800035e:	79da      	ldrb	r2, [r3, #7]
 8000360:	2100      	movs	r1, #0
 8000362:	400a      	ands	r2, r1
 8000364:	71da      	strb	r2, [r3, #7]

	/* USER CODE END SysInit */

	/* Initialize all configured peripherals */
	MX_GPIO_Init();
 8000366:	f000 fc21 	bl	8000bac <MX_GPIO_Init>
	MX_AES_Init();
 800036a:	f000 faa1 	bl	80008b0 <MX_AES_Init>
	MX_RNG_Init();
 800036e:	f000 faf3 	bl	8000958 <MX_RNG_Init>
	MX_CRC_Init();
 8000372:	f000 facd 	bl	8000910 <MX_CRC_Init>
	MX_TIM16_Init();
 8000376:	f000 fbf1 	bl	8000b5c <MX_TIM16_Init>
	MX_TIM1_Init();
 800037a:	f000 fb43 	bl	8000a04 <MX_TIM1_Init>
	MX_SPI1_Init();
 800037e:	f000 fb03 	bl	8000988 <MX_SPI1_Init>
	/* USER CODE BEGIN 2 */

	HAL_Delay(100);
 8000382:	2064      	movs	r0, #100	; 0x64
 8000384:	f001 fea2 	bl	80020cc <HAL_Delay>
	if (!rfm95_init(&radio)) {
 8000388:	4bad      	ldr	r3, [pc, #692]	; (8000640 <main+0x3cc>)
 800038a:	0018      	movs	r0, r3
 800038c:	f001 f828 	bl	80013e0 <rfm95_init>
 8000390:	0003      	movs	r3, r0
 8000392:	001a      	movs	r2, r3
 8000394:	2301      	movs	r3, #1
 8000396:	4053      	eors	r3, r2
 8000398:	b2db      	uxtb	r3, r3
 800039a:	2b00      	cmp	r3, #0
 800039c:	d00e      	beq.n	80003bc <main+0x148>
		HAL_GPIO_WritePin(LED2_GPIO_Port, LED2_Pin, GPIO_PIN_SET);
 800039e:	2380      	movs	r3, #128	; 0x80
 80003a0:	00db      	lsls	r3, r3, #3
 80003a2:	48a9      	ldr	r0, [pc, #676]	; (8000648 <main+0x3d4>)
 80003a4:	2201      	movs	r2, #1
 80003a6:	0019      	movs	r1, r3
 80003a8:	f003 fd29 	bl	8003dfe <HAL_GPIO_WritePin>
		HAL_GPIO_WritePin(LED1_GPIO_Port, LED1_Pin, GPIO_PIN_SET);
 80003ac:	2380      	movs	r3, #128	; 0x80
 80003ae:	009b      	lsls	r3, r3, #2
 80003b0:	48a9      	ldr	r0, [pc, #676]	; (8000658 <main+0x3e4>)
 80003b2:	2201      	movs	r2, #1
 80003b4:	0019      	movs	r1, r3
 80003b6:	f003 fd22 	bl	8003dfe <HAL_GPIO_WritePin>

		while (1) {
 80003ba:	e7fe      	b.n	80003ba <main+0x146>

		}
	}

	HAL_TIM_Base_Start_IT(&htim16);
 80003bc:	4ba7      	ldr	r3, [pc, #668]	; (800065c <main+0x3e8>)
 80003be:	0018      	movs	r0, r3
 80003c0:	f005 fc22 	bl	8005c08 <HAL_TIM_Base_Start_IT>
	HAL_TIM_PWM_Start(&htim1, TIM_CHANNEL_1);
 80003c4:	4ba6      	ldr	r3, [pc, #664]	; (8000660 <main+0x3ec>)
 80003c6:	2100      	movs	r1, #0
 80003c8:	0018      	movs	r0, r3
 80003ca:	f005 fcd1 	bl	8005d70 <HAL_TIM_PWM_Start>

	readKeyFromFlash(pKeyAES, &EraseInitStruct);
 80003ce:	4a98      	ldr	r2, [pc, #608]	; (8000630 <main+0x3bc>)
 80003d0:	4ba4      	ldr	r3, [pc, #656]	; (8000664 <main+0x3f0>)
 80003d2:	0011      	movs	r1, r2
 80003d4:	0018      	movs	r0, r3
 80003d6:	f000 ff55 	bl	8001284 <readKeyFromFlash>
	// We lost our random key or we want a reset?
	if (RESET || pKeyAES[0] == 0 || pKeyAES[0] == UINT32_MAX) {
 80003da:	4ba2      	ldr	r3, [pc, #648]	; (8000664 <main+0x3f0>)
 80003dc:	681b      	ldr	r3, [r3, #0]
 80003de:	2b00      	cmp	r3, #0
 80003e0:	d003      	beq.n	80003ea <main+0x176>
 80003e2:	4ba0      	ldr	r3, [pc, #640]	; (8000664 <main+0x3f0>)
 80003e4:	681b      	ldr	r3, [r3, #0]
 80003e6:	3301      	adds	r3, #1
 80003e8:	d14d      	bne.n	8000486 <main+0x212>
		uint64_t tmp[2];
		for (int i = 0; i < 2; i++) {
 80003ea:	2300      	movs	r3, #0
 80003ec:	228c      	movs	r2, #140	; 0x8c
 80003ee:	18ba      	adds	r2, r7, r2
 80003f0:	6013      	str	r3, [r2, #0]
 80003f2:	e036      	b.n	8000462 <main+0x1ee>
			if (HAL_RNG_GenerateRandomNumber(&hrng, &tmp[i]) != HAL_OK)
 80003f4:	2370      	movs	r3, #112	; 0x70
 80003f6:	18fa      	adds	r2, r7, r3
 80003f8:	238c      	movs	r3, #140	; 0x8c
 80003fa:	18fb      	adds	r3, r7, r3
 80003fc:	681b      	ldr	r3, [r3, #0]
 80003fe:	00db      	lsls	r3, r3, #3
 8000400:	18d2      	adds	r2, r2, r3
 8000402:	4b99      	ldr	r3, [pc, #612]	; (8000668 <main+0x3f4>)
 8000404:	0011      	movs	r1, r2
 8000406:	0018      	movs	r0, r3
 8000408:	f004 fc57 	bl	8004cba <HAL_RNG_GenerateRandomNumber>
 800040c:	1e03      	subs	r3, r0, #0
 800040e:	d001      	beq.n	8000414 <main+0x1a0>
				Error_Handler();
 8000410:	f000 ffe2 	bl	80013d8 <Error_Handler>
			tmp[i] <<= 32;
 8000414:	2170      	movs	r1, #112	; 0x70
 8000416:	187a      	adds	r2, r7, r1
 8000418:	208c      	movs	r0, #140	; 0x8c
 800041a:	183b      	adds	r3, r7, r0
 800041c:	681b      	ldr	r3, [r3, #0]
 800041e:	00db      	lsls	r3, r3, #3
 8000420:	18d3      	adds	r3, r2, r3
 8000422:	681a      	ldr	r2, [r3, #0]
 8000424:	685b      	ldr	r3, [r3, #4]
 8000426:	0015      	movs	r5, r2
 8000428:	2300      	movs	r3, #0
 800042a:	001c      	movs	r4, r3
 800042c:	187a      	adds	r2, r7, r1
 800042e:	183b      	adds	r3, r7, r0
 8000430:	681b      	ldr	r3, [r3, #0]
 8000432:	00db      	lsls	r3, r3, #3
 8000434:	18d3      	adds	r3, r2, r3
 8000436:	601c      	str	r4, [r3, #0]
 8000438:	605d      	str	r5, [r3, #4]
			if (HAL_RNG_GenerateRandomNumber(&hrng, &tmp[i]) != HAL_OK)
 800043a:	187a      	adds	r2, r7, r1
 800043c:	183b      	adds	r3, r7, r0
 800043e:	681b      	ldr	r3, [r3, #0]
 8000440:	00db      	lsls	r3, r3, #3
 8000442:	18d2      	adds	r2, r2, r3
 8000444:	4b88      	ldr	r3, [pc, #544]	; (8000668 <main+0x3f4>)
 8000446:	0011      	movs	r1, r2
 8000448:	0018      	movs	r0, r3
 800044a:	f004 fc36 	bl	8004cba <HAL_RNG_GenerateRandomNumber>
 800044e:	1e03      	subs	r3, r0, #0
 8000450:	d001      	beq.n	8000456 <main+0x1e2>
				Error_Handler();
 8000452:	f000 ffc1 	bl	80013d8 <Error_Handler>
		for (int i = 0; i < 2; i++) {
 8000456:	228c      	movs	r2, #140	; 0x8c
 8000458:	18bb      	adds	r3, r7, r2
 800045a:	681b      	ldr	r3, [r3, #0]
 800045c:	3301      	adds	r3, #1
 800045e:	18ba      	adds	r2, r7, r2
 8000460:	6013      	str	r3, [r2, #0]
 8000462:	238c      	movs	r3, #140	; 0x8c
 8000464:	18fb      	adds	r3, r7, r3
 8000466:	681b      	ldr	r3, [r3, #0]
 8000468:	2b01      	cmp	r3, #1
 800046a:	ddc3      	ble.n	80003f4 <main+0x180>
		}
		writeKeyToFlash(tmp, &EraseInitStruct);
 800046c:	4a70      	ldr	r2, [pc, #448]	; (8000630 <main+0x3bc>)
 800046e:	2370      	movs	r3, #112	; 0x70
 8000470:	18fb      	adds	r3, r7, r3
 8000472:	0011      	movs	r1, r2
 8000474:	0018      	movs	r0, r3
 8000476:	f000 ff2a 	bl	80012ce <writeKeyToFlash>
		readKeyFromFlash(pKeyAES, &EraseInitStruct);
 800047a:	4a6d      	ldr	r2, [pc, #436]	; (8000630 <main+0x3bc>)
 800047c:	4b79      	ldr	r3, [pc, #484]	; (8000664 <main+0x3f0>)
 800047e:	0011      	movs	r1, r2
 8000480:	0018      	movs	r0, r3
 8000482:	f000 feff 	bl	8001284 <readKeyFromFlash>
	}
	MX_AES_Init();
 8000486:	f000 fa13 	bl	80008b0 <MX_AES_Init>

	// Generate a random sequence number for packets -- assume 2000 is the most packets we'll ever send while devices haven't rebooted
	deviceSeqs[DEVICE_ID] = readSeqFromFlash(&EraseSeqStruct);
 800048a:	4b6a      	ldr	r3, [pc, #424]	; (8000634 <main+0x3c0>)
 800048c:	0018      	movs	r0, r3
 800048e:	f000 ff69 	bl	8001364 <readSeqFromFlash>
 8000492:	0002      	movs	r2, r0
 8000494:	4b75      	ldr	r3, [pc, #468]	; (800066c <main+0x3f8>)
 8000496:	605a      	str	r2, [r3, #4]
	if (NEW_SEQ || deviceSeqs[DEVICE_ID] >= ((UINT32_MAX) >> 1)
 8000498:	4b74      	ldr	r3, [pc, #464]	; (800066c <main+0x3f8>)
 800049a:	685b      	ldr	r3, [r3, #4]
 800049c:	4a74      	ldr	r2, [pc, #464]	; (8000670 <main+0x3fc>)
 800049e:	4293      	cmp	r3, r2
 80004a0:	d803      	bhi.n	80004aa <main+0x236>
			|| deviceSeqs[DEVICE_ID] == 0) {
 80004a2:	4b72      	ldr	r3, [pc, #456]	; (800066c <main+0x3f8>)
 80004a4:	685b      	ldr	r3, [r3, #4]
 80004a6:	2b00      	cmp	r3, #0
 80004a8:	d10e      	bne.n	80004c8 <main+0x254>
		uint32_t seq = 0;
 80004aa:	2300      	movs	r3, #0
 80004ac:	66fb      	str	r3, [r7, #108]	; 0x6c
		HAL_RNG_GenerateRandomNumber(&hrng, &seq);
 80004ae:	236c      	movs	r3, #108	; 0x6c
 80004b0:	18fa      	adds	r2, r7, r3
 80004b2:	4b6d      	ldr	r3, [pc, #436]	; (8000668 <main+0x3f4>)
 80004b4:	0011      	movs	r1, r2
 80004b6:	0018      	movs	r0, r3
 80004b8:	f004 fbff 	bl	8004cba <HAL_RNG_GenerateRandomNumber>
		seq >>= 1;
 80004bc:	6efb      	ldr	r3, [r7, #108]	; 0x6c
 80004be:	085b      	lsrs	r3, r3, #1
 80004c0:	66fb      	str	r3, [r7, #108]	; 0x6c
		deviceSeqs[DEVICE_ID] = seq;
 80004c2:	6efa      	ldr	r2, [r7, #108]	; 0x6c
 80004c4:	4b69      	ldr	r3, [pc, #420]	; (800066c <main+0x3f8>)
 80004c6:	605a      	str	r2, [r3, #4]
	}
	deviceSeqs[DEVICE_ID] += 2000;
 80004c8:	4b68      	ldr	r3, [pc, #416]	; (800066c <main+0x3f8>)
 80004ca:	685b      	ldr	r3, [r3, #4]
 80004cc:	22fa      	movs	r2, #250	; 0xfa
 80004ce:	00d2      	lsls	r2, r2, #3
 80004d0:	189a      	adds	r2, r3, r2
 80004d2:	4b66      	ldr	r3, [pc, #408]	; (800066c <main+0x3f8>)
 80004d4:	605a      	str	r2, [r3, #4]
	writeSeqToFlash(deviceSeqs[DEVICE_ID], &EraseSeqStruct);
 80004d6:	4b65      	ldr	r3, [pc, #404]	; (800066c <main+0x3f8>)
 80004d8:	685b      	ldr	r3, [r3, #4]
 80004da:	4a56      	ldr	r2, [pc, #344]	; (8000634 <main+0x3c0>)
 80004dc:	0011      	movs	r1, r2
 80004de:	0018      	movs	r0, r3
 80004e0:	f000 ff52 	bl	8001388 <writeSeqToFlash>

	// Might as well generate a public key in advance
	for (int i = 0; i < 8; i++) {
 80004e4:	2300      	movs	r3, #0
 80004e6:	2288      	movs	r2, #136	; 0x88
 80004e8:	18ba      	adds	r2, r7, r2
 80004ea:	6013      	str	r3, [r2, #0]
 80004ec:	e00f      	b.n	800050e <main+0x29a>
		HAL_RNG_GenerateRandomNumber(&hrng, &aKeys.privateKey[i]);
 80004ee:	2488      	movs	r4, #136	; 0x88
 80004f0:	193b      	adds	r3, r7, r4
 80004f2:	681b      	ldr	r3, [r3, #0]
 80004f4:	009a      	lsls	r2, r3, #2
 80004f6:	4b56      	ldr	r3, [pc, #344]	; (8000650 <main+0x3dc>)
 80004f8:	18d2      	adds	r2, r2, r3
 80004fa:	4b5b      	ldr	r3, [pc, #364]	; (8000668 <main+0x3f4>)
 80004fc:	0011      	movs	r1, r2
 80004fe:	0018      	movs	r0, r3
 8000500:	f004 fbdb 	bl	8004cba <HAL_RNG_GenerateRandomNumber>
	for (int i = 0; i < 8; i++) {
 8000504:	193b      	adds	r3, r7, r4
 8000506:	681b      	ldr	r3, [r3, #0]
 8000508:	3301      	adds	r3, #1
 800050a:	193a      	adds	r2, r7, r4
 800050c:	6013      	str	r3, [r2, #0]
 800050e:	2388      	movs	r3, #136	; 0x88
 8000510:	18fb      	adds	r3, r7, r3
 8000512:	681b      	ldr	r3, [r3, #0]
 8000514:	2b07      	cmp	r3, #7
 8000516:	ddea      	ble.n	80004ee <main+0x27a>
	}
	C25519keyGen((uint8_t*) aKeys.privateKey, aKeys.publicKey);
 8000518:	4a56      	ldr	r2, [pc, #344]	; (8000674 <main+0x400>)
 800051a:	4b4d      	ldr	r3, [pc, #308]	; (8000650 <main+0x3dc>)
 800051c:	0011      	movs	r1, r2
 800051e:	0018      	movs	r0, r3
 8000520:	f007 feee 	bl	8008300 <C25519keyGen>
	/* USER CODE END 2 */

	/* Infinite loop */
	/* USER CODE BEGIN WHILE */
	while (1) {
		if (aKeys.pairing && aKeys.pairing++ <= 5) {
 8000524:	4b4a      	ldr	r3, [pc, #296]	; (8000650 <main+0x3dc>)
 8000526:	2282      	movs	r2, #130	; 0x82
 8000528:	5c9b      	ldrb	r3, [r3, r2]
 800052a:	b2db      	uxtb	r3, r3
 800052c:	2b00      	cmp	r3, #0
 800052e:	d02f      	beq.n	8000590 <main+0x31c>
 8000530:	4b47      	ldr	r3, [pc, #284]	; (8000650 <main+0x3dc>)
 8000532:	2282      	movs	r2, #130	; 0x82
 8000534:	5c9b      	ldrb	r3, [r3, r2]
 8000536:	b2db      	uxtb	r3, r3
 8000538:	1c5a      	adds	r2, r3, #1
 800053a:	b2d0      	uxtb	r0, r2
 800053c:	4a44      	ldr	r2, [pc, #272]	; (8000650 <main+0x3dc>)
 800053e:	2182      	movs	r1, #130	; 0x82
 8000540:	5450      	strb	r0, [r2, r1]
 8000542:	2b05      	cmp	r3, #5
 8000544:	d824      	bhi.n	8000590 <main+0x31c>
			// send our public key in plaintext.
			PublicKeyPacket tmp;
			tmp.preamble = PUBLIC_EXCHANGE_PREAMBLE;
 8000546:	003b      	movs	r3, r7
 8000548:	2255      	movs	r2, #85	; 0x55
 800054a:	701a      	strb	r2, [r3, #0]
			memcpy(tmp.data, aKeys.publicKey, sizeof(tmp.data));
 800054c:	003a      	movs	r2, r7
 800054e:	2101      	movs	r1, #1
 8000550:	4b3f      	ldr	r3, [pc, #252]	; (8000650 <main+0x3dc>)
 8000552:	1850      	adds	r0, r2, r1
 8000554:	3320      	adds	r3, #32
 8000556:	2220      	movs	r2, #32
 8000558:	0019      	movs	r1, r3
 800055a:	f007 ff71 	bl	8008440 <memcpy>
			transmitPackage(&tmp, sizeof(PublicKeyPacket));
 800055e:	003b      	movs	r3, r7
 8000560:	2121      	movs	r1, #33	; 0x21
 8000562:	0018      	movs	r0, r3
 8000564:	f001 f906 	bl	8001774 <transmitPackage>
			// randomize the delay here
			uint32_t randoffset = 0;
 8000568:	2300      	movs	r3, #0
 800056a:	66bb      	str	r3, [r7, #104]	; 0x68
			HAL_RNG_GenerateRandomNumber(&hrng, &randoffset);
 800056c:	2368      	movs	r3, #104	; 0x68
 800056e:	18fa      	adds	r2, r7, r3
 8000570:	4b3d      	ldr	r3, [pc, #244]	; (8000668 <main+0x3f4>)
 8000572:	0011      	movs	r1, r2
 8000574:	0018      	movs	r0, r3
 8000576:	f004 fba0 	bl	8004cba <HAL_RNG_GenerateRandomNumber>

			HAL_Delay(1000 + (randoffset & 0x7ff));
 800057a:	6ebb      	ldr	r3, [r7, #104]	; 0x68
 800057c:	055b      	lsls	r3, r3, #21
 800057e:	0d5b      	lsrs	r3, r3, #21
 8000580:	22fa      	movs	r2, #250	; 0xfa
 8000582:	0092      	lsls	r2, r2, #2
 8000584:	4694      	mov	ip, r2
 8000586:	4463      	add	r3, ip
 8000588:	0018      	movs	r0, r3
 800058a:	f001 fd9f 	bl	80020cc <HAL_Delay>
 800058e:	e7c9      	b.n	8000524 <main+0x2b0>
			continue;
		} else {
			aKeys.pairing = 0;
 8000590:	4b2f      	ldr	r3, [pc, #188]	; (8000650 <main+0x3dc>)
 8000592:	2282      	movs	r2, #130	; 0x82
 8000594:	2100      	movs	r1, #0
 8000596:	5499      	strb	r1, [r3, r2]
		}

		if (aKeys.gotOther) {
 8000598:	4b2d      	ldr	r3, [pc, #180]	; (8000650 <main+0x3dc>)
 800059a:	2280      	movs	r2, #128	; 0x80
 800059c:	5c9b      	ldrb	r3, [r3, r2]
 800059e:	b2db      	uxtb	r3, r3
 80005a0:	2b00      	cmp	r3, #0
 80005a2:	d00d      	beq.n	80005c0 <main+0x34c>
			C25519keyExchange(aKeys.sharedSecret, (uint8_t*) aKeys.privateKey,
 80005a4:	4a34      	ldr	r2, [pc, #208]	; (8000678 <main+0x404>)
 80005a6:	492a      	ldr	r1, [pc, #168]	; (8000650 <main+0x3dc>)
 80005a8:	4b34      	ldr	r3, [pc, #208]	; (800067c <main+0x408>)
 80005aa:	0018      	movs	r0, r3
 80005ac:	f007 fece 	bl	800834c <C25519keyExchange>
					aKeys.otherPublicKey);
//			rfm95_init(&radio);
			aKeys.gotOther = 0;
 80005b0:	4b27      	ldr	r3, [pc, #156]	; (8000650 <main+0x3dc>)
 80005b2:	2280      	movs	r2, #128	; 0x80
 80005b4:	2100      	movs	r1, #0
 80005b6:	5499      	strb	r1, [r3, r2]
			aKeys.masterSent = 1;
 80005b8:	4b25      	ldr	r3, [pc, #148]	; (8000650 <main+0x3dc>)
 80005ba:	2281      	movs	r2, #129	; 0x81
 80005bc:	2101      	movs	r1, #1
 80005be:	5499      	strb	r1, [r3, r2]
		}

		if (aKeys.masterSent && aKeys.masterSent++ <= 5) {
 80005c0:	4b23      	ldr	r3, [pc, #140]	; (8000650 <main+0x3dc>)
 80005c2:	2281      	movs	r2, #129	; 0x81
 80005c4:	5c9b      	ldrb	r3, [r3, r2]
 80005c6:	b2db      	uxtb	r3, r3
 80005c8:	2b00      	cmp	r3, #0
 80005ca:	d059      	beq.n	8000680 <main+0x40c>
 80005cc:	4b20      	ldr	r3, [pc, #128]	; (8000650 <main+0x3dc>)
 80005ce:	2281      	movs	r2, #129	; 0x81
 80005d0:	5c9b      	ldrb	r3, [r3, r2]
 80005d2:	b2db      	uxtb	r3, r3
 80005d4:	1c5a      	adds	r2, r3, #1
 80005d6:	b2d0      	uxtb	r0, r2
 80005d8:	4a1d      	ldr	r2, [pc, #116]	; (8000650 <main+0x3dc>)
 80005da:	2181      	movs	r1, #129	; 0x81
 80005dc:	5450      	strb	r0, [r2, r1]
 80005de:	2b05      	cmp	r3, #5
 80005e0:	d84e      	bhi.n	8000680 <main+0x40c>
				memcpy(pKeyAES, oldPkeys, AESKeySize);
				MX_AES_Init();
			} else {
				//we're a slave device and we can just sit and wait for master count to ++
			}
			HAL_GPIO_WritePin(LED1_GPIO_Port, LED1_Pin, GPIO_PIN_RESET);
 80005e2:	2380      	movs	r3, #128	; 0x80
 80005e4:	009b      	lsls	r3, r3, #2
 80005e6:	481c      	ldr	r0, [pc, #112]	; (8000658 <main+0x3e4>)
 80005e8:	2200      	movs	r2, #0
 80005ea:	0019      	movs	r1, r3
 80005ec:	f003 fc07 	bl	8003dfe <HAL_GPIO_WritePin>
			HAL_GPIO_WritePin(LED2_GPIO_Port, LED2_Pin, GPIO_PIN_SET);
 80005f0:	2380      	movs	r3, #128	; 0x80
 80005f2:	00db      	lsls	r3, r3, #3
 80005f4:	4814      	ldr	r0, [pc, #80]	; (8000648 <main+0x3d4>)
 80005f6:	2201      	movs	r2, #1
 80005f8:	0019      	movs	r1, r3
 80005fa:	f003 fc00 	bl	8003dfe <HAL_GPIO_WritePin>
			HAL_Delay(500);
 80005fe:	23fa      	movs	r3, #250	; 0xfa
 8000600:	005b      	lsls	r3, r3, #1
 8000602:	0018      	movs	r0, r3
 8000604:	f001 fd62 	bl	80020cc <HAL_Delay>
			HAL_GPIO_WritePin(LED1_GPIO_Port, LED1_Pin, GPIO_PIN_SET);
 8000608:	2380      	movs	r3, #128	; 0x80
 800060a:	009b      	lsls	r3, r3, #2
 800060c:	4812      	ldr	r0, [pc, #72]	; (8000658 <main+0x3e4>)
 800060e:	2201      	movs	r2, #1
 8000610:	0019      	movs	r1, r3
 8000612:	f003 fbf4 	bl	8003dfe <HAL_GPIO_WritePin>
			HAL_GPIO_WritePin(LED2_GPIO_Port, LED2_Pin, GPIO_PIN_RESET);
 8000616:	2380      	movs	r3, #128	; 0x80
 8000618:	00db      	lsls	r3, r3, #3
 800061a:	480b      	ldr	r0, [pc, #44]	; (8000648 <main+0x3d4>)
 800061c:	2200      	movs	r2, #0
 800061e:	0019      	movs	r1, r3
 8000620:	f003 fbed 	bl	8003dfe <HAL_GPIO_WritePin>
			HAL_Delay(500);
 8000624:	23fa      	movs	r3, #250	; 0xfa
 8000626:	005b      	lsls	r3, r3, #1
 8000628:	0018      	movs	r0, r3
 800062a:	f001 fd4f 	bl	80020cc <HAL_Delay>
			continue;
 800062e:	e0b1      	b.n	8000794 <main+0x520>
 8000630:	20000588 	.word	0x20000588
 8000634:	2000071c 	.word	0x2000071c
 8000638:	20000610 	.word	0x20000610
 800063c:	20000578 	.word	0x20000578
 8000640:	20000598 	.word	0x20000598
 8000644:	20000634 	.word	0x20000634
 8000648:	50000800 	.word	0x50000800
 800064c:	0800109d 	.word	0x0800109d
 8000650:	20000698 	.word	0x20000698
 8000654:	20000884 	.word	0x20000884
 8000658:	50000400 	.word	0x50000400
 800065c:	2000072c 	.word	0x2000072c
 8000660:	200005c4 	.word	0x200005c4
 8000664:	20000114 	.word	0x20000114
 8000668:	20000620 	.word	0x20000620
 800066c:	20000124 	.word	0x20000124
 8000670:	7ffffffe 	.word	0x7ffffffe
 8000674:	200006b8 	.word	0x200006b8
 8000678:	200006d8 	.word	0x200006d8
 800067c:	200006f8 	.word	0x200006f8
		} else {
			aKeys.masterSent = 0;
 8000680:	4b45      	ldr	r3, [pc, #276]	; (8000798 <main+0x524>)
 8000682:	2281      	movs	r2, #129	; 0x81
 8000684:	2100      	movs	r1, #0
 8000686:	5499      	strb	r1, [r3, r2]
		}

		if (outgoing.data) {
 8000688:	4b44      	ldr	r3, [pc, #272]	; (800079c <main+0x528>)
 800068a:	7998      	ldrb	r0, [r3, #6]
 800068c:	79dc      	ldrb	r4, [r3, #7]
 800068e:	0224      	lsls	r4, r4, #8
 8000690:	4320      	orrs	r0, r4
 8000692:	7a1c      	ldrb	r4, [r3, #8]
 8000694:	0424      	lsls	r4, r4, #16
 8000696:	4320      	orrs	r0, r4
 8000698:	7a5c      	ldrb	r4, [r3, #9]
 800069a:	0624      	lsls	r4, r4, #24
 800069c:	4320      	orrs	r0, r4
 800069e:	0001      	movs	r1, r0
 80006a0:	7a98      	ldrb	r0, [r3, #10]
 80006a2:	7adc      	ldrb	r4, [r3, #11]
 80006a4:	0224      	lsls	r4, r4, #8
 80006a6:	4320      	orrs	r0, r4
 80006a8:	7b1c      	ldrb	r4, [r3, #12]
 80006aa:	0424      	lsls	r4, r4, #16
 80006ac:	4320      	orrs	r0, r4
 80006ae:	7b5b      	ldrb	r3, [r3, #13]
 80006b0:	061b      	lsls	r3, r3, #24
 80006b2:	4303      	orrs	r3, r0
 80006b4:	001a      	movs	r2, r3
 80006b6:	000b      	movs	r3, r1
 80006b8:	4313      	orrs	r3, r2
 80006ba:	d061      	beq.n	8000780 <main+0x50c>
			//encrypt and transmit the outgoing packet
			uint32_t tempin[4] = { 0 };
 80006bc:	2434      	movs	r4, #52	; 0x34
 80006be:	193b      	adds	r3, r7, r4
 80006c0:	0018      	movs	r0, r3
 80006c2:	2310      	movs	r3, #16
 80006c4:	001a      	movs	r2, r3
 80006c6:	2100      	movs	r1, #0
 80006c8:	f007 fec3 	bl	8008452 <memset>
			uint32_t tempout[4] = { 0 };
 80006cc:	2524      	movs	r5, #36	; 0x24
 80006ce:	197b      	adds	r3, r7, r5
 80006d0:	0018      	movs	r0, r3
 80006d2:	2310      	movs	r3, #16
 80006d4:	001a      	movs	r2, r3
 80006d6:	2100      	movs	r1, #0
 80006d8:	f007 febb 	bl	8008452 <memset>
			memcpy(tempin, &outgoing, sizeof(Packet));
 80006dc:	492f      	ldr	r1, [pc, #188]	; (800079c <main+0x528>)
 80006de:	193b      	adds	r3, r7, r4
 80006e0:	2210      	movs	r2, #16
 80006e2:	0018      	movs	r0, r3
 80006e4:	f007 feac 	bl	8008440 <memcpy>
			HAL_CRYP_Encrypt(&hcryp, (uint8_t*) tempin, 16, (uint8_t*) tempout,
 80006e8:	197a      	adds	r2, r7, r5
 80006ea:	1939      	adds	r1, r7, r4
 80006ec:	482c      	ldr	r0, [pc, #176]	; (80007a0 <main+0x52c>)
 80006ee:	2301      	movs	r3, #1
 80006f0:	9300      	str	r3, [sp, #0]
 80006f2:	0013      	movs	r3, r2
 80006f4:	2210      	movs	r2, #16
 80006f6:	f001 ff09 	bl	800250c <HAL_CRYP_Encrypt>
					1);
			outgoing.data = 0;
 80006fa:	4b28      	ldr	r3, [pc, #160]	; (800079c <main+0x528>)
 80006fc:	3306      	adds	r3, #6
 80006fe:	781a      	ldrb	r2, [r3, #0]
 8000700:	2100      	movs	r1, #0
 8000702:	400a      	ands	r2, r1
 8000704:	701a      	strb	r2, [r3, #0]
 8000706:	785a      	ldrb	r2, [r3, #1]
 8000708:	2100      	movs	r1, #0
 800070a:	400a      	ands	r2, r1
 800070c:	705a      	strb	r2, [r3, #1]
 800070e:	789a      	ldrb	r2, [r3, #2]
 8000710:	2100      	movs	r1, #0
 8000712:	400a      	ands	r2, r1
 8000714:	709a      	strb	r2, [r3, #2]
 8000716:	78da      	ldrb	r2, [r3, #3]
 8000718:	2100      	movs	r1, #0
 800071a:	400a      	ands	r2, r1
 800071c:	70da      	strb	r2, [r3, #3]
 800071e:	791a      	ldrb	r2, [r3, #4]
 8000720:	2100      	movs	r1, #0
 8000722:	400a      	ands	r2, r1
 8000724:	711a      	strb	r2, [r3, #4]
 8000726:	795a      	ldrb	r2, [r3, #5]
 8000728:	2100      	movs	r1, #0
 800072a:	400a      	ands	r2, r1
 800072c:	715a      	strb	r2, [r3, #5]
 800072e:	799a      	ldrb	r2, [r3, #6]
 8000730:	2100      	movs	r1, #0
 8000732:	400a      	ands	r2, r1
 8000734:	719a      	strb	r2, [r3, #6]
 8000736:	79da      	ldrb	r2, [r3, #7]
 8000738:	2100      	movs	r1, #0
 800073a:	400a      	ands	r2, r1
 800073c:	71da      	strb	r2, [r3, #7]
			for (uint8_t i = 0; i < 1; i++) {
 800073e:	2387      	movs	r3, #135	; 0x87
 8000740:	18fb      	adds	r3, r7, r3
 8000742:	2200      	movs	r2, #0
 8000744:	701a      	strb	r2, [r3, #0]
 8000746:	e015      	b.n	8000774 <main+0x500>
				while (!transmitPackage((uint8_t*) tempout, 16)) {
					HAL_Delay(70);
 8000748:	2046      	movs	r0, #70	; 0x46
 800074a:	f001 fcbf 	bl	80020cc <HAL_Delay>
				while (!transmitPackage((uint8_t*) tempout, 16)) {
 800074e:	2324      	movs	r3, #36	; 0x24
 8000750:	18fb      	adds	r3, r7, r3
 8000752:	2110      	movs	r1, #16
 8000754:	0018      	movs	r0, r3
 8000756:	f001 f80d 	bl	8001774 <transmitPackage>
 800075a:	0003      	movs	r3, r0
 800075c:	001a      	movs	r2, r3
 800075e:	2301      	movs	r3, #1
 8000760:	4053      	eors	r3, r2
 8000762:	b2db      	uxtb	r3, r3
 8000764:	2b00      	cmp	r3, #0
 8000766:	d1ef      	bne.n	8000748 <main+0x4d4>
			for (uint8_t i = 0; i < 1; i++) {
 8000768:	2187      	movs	r1, #135	; 0x87
 800076a:	187b      	adds	r3, r7, r1
 800076c:	781a      	ldrb	r2, [r3, #0]
 800076e:	187b      	adds	r3, r7, r1
 8000770:	3201      	adds	r2, #1
 8000772:	701a      	strb	r2, [r3, #0]
 8000774:	2387      	movs	r3, #135	; 0x87
 8000776:	18fb      	adds	r3, r7, r3
 8000778:	781b      	ldrb	r3, [r3, #0]
 800077a:	2b00      	cmp	r3, #0
 800077c:	d0e7      	beq.n	800074e <main+0x4da>
 800077e:	e6d1      	b.n	8000524 <main+0x2b0>
				}
			}
			continue;
		}

		HAL_GPIO_TogglePin(LED1_GPIO_Port, LED1_Pin);
 8000780:	2380      	movs	r3, #128	; 0x80
 8000782:	009b      	lsls	r3, r3, #2
 8000784:	4a07      	ldr	r2, [pc, #28]	; (80007a4 <main+0x530>)
 8000786:	0019      	movs	r1, r3
 8000788:	0010      	movs	r0, r2
 800078a:	f003 fb55 	bl	8003e38 <HAL_GPIO_TogglePin>

//		HAL_GPIO_TogglePin(GPIOB, GPIO_PIN_9);
		HAL_Delay(250);
 800078e:	20fa      	movs	r0, #250	; 0xfa
 8000790:	f001 fc9c 	bl	80020cc <HAL_Delay>
		if (aKeys.pairing && aKeys.pairing++ <= 5) {
 8000794:	e6c6      	b.n	8000524 <main+0x2b0>
 8000796:	46c0      	nop			; (mov r8, r8)
 8000798:	20000698 	.word	0x20000698
 800079c:	20000884 	.word	0x20000884
 80007a0:	20000778 	.word	0x20000778
 80007a4:	50000400 	.word	0x50000400

080007a8 <SystemClock_Config>:

/**
 * @brief System Clock Configuration
 * @retval None
 */
void SystemClock_Config(void) {
 80007a8:	b590      	push	{r4, r7, lr}
 80007aa:	b0a1      	sub	sp, #132	; 0x84
 80007ac:	af00      	add	r7, sp, #0
	RCC_OscInitTypeDef RCC_OscInitStruct = { 0 };
 80007ae:	2448      	movs	r4, #72	; 0x48
 80007b0:	193b      	adds	r3, r7, r4
 80007b2:	0018      	movs	r0, r3
 80007b4:	2338      	movs	r3, #56	; 0x38
 80007b6:	001a      	movs	r2, r3
 80007b8:	2100      	movs	r1, #0
 80007ba:	f007 fe4a 	bl	8008452 <memset>
	RCC_ClkInitTypeDef RCC_ClkInitStruct = { 0 };
 80007be:	2338      	movs	r3, #56	; 0x38
 80007c0:	18fb      	adds	r3, r7, r3
 80007c2:	0018      	movs	r0, r3
 80007c4:	2310      	movs	r3, #16
 80007c6:	001a      	movs	r2, r3
 80007c8:	2100      	movs	r1, #0
 80007ca:	f007 fe42 	bl	8008452 <memset>
	RCC_PeriphCLKInitTypeDef PeriphClkInit = { 0 };
 80007ce:	003b      	movs	r3, r7
 80007d0:	0018      	movs	r0, r3
 80007d2:	2338      	movs	r3, #56	; 0x38
 80007d4:	001a      	movs	r2, r3
 80007d6:	2100      	movs	r1, #0
 80007d8:	f007 fe3b 	bl	8008452 <memset>

	/** Configure the main internal regulator output voltage
	 */
	HAL_PWREx_ControlVoltageScaling(PWR_REGULATOR_VOLTAGE_SCALE1);
 80007dc:	2380      	movs	r3, #128	; 0x80
 80007de:	009b      	lsls	r3, r3, #2
 80007e0:	0018      	movs	r0, r3
 80007e2:	f003 fb6f 	bl	8003ec4 <HAL_PWREx_ControlVoltageScaling>
	/** Initializes the RCC Oscillators according to the specified parameters
	 * in the RCC_OscInitTypeDef structure.
	 */
	RCC_OscInitStruct.OscillatorType = RCC_OSCILLATORTYPE_HSI;
 80007e6:	193b      	adds	r3, r7, r4
 80007e8:	2202      	movs	r2, #2
 80007ea:	601a      	str	r2, [r3, #0]
	RCC_OscInitStruct.HSIState = RCC_HSI_ON;
 80007ec:	193b      	adds	r3, r7, r4
 80007ee:	2280      	movs	r2, #128	; 0x80
 80007f0:	0052      	lsls	r2, r2, #1
 80007f2:	60da      	str	r2, [r3, #12]
	RCC_OscInitStruct.HSIDiv = RCC_HSI_DIV1;
 80007f4:	0021      	movs	r1, r4
 80007f6:	187b      	adds	r3, r7, r1
 80007f8:	2200      	movs	r2, #0
 80007fa:	611a      	str	r2, [r3, #16]
	RCC_OscInitStruct.HSICalibrationValue = RCC_HSICALIBRATION_DEFAULT;
 80007fc:	187b      	adds	r3, r7, r1
 80007fe:	2240      	movs	r2, #64	; 0x40
 8000800:	615a      	str	r2, [r3, #20]
	RCC_OscInitStruct.PLL.PLLState = RCC_PLL_ON;
 8000802:	187b      	adds	r3, r7, r1
 8000804:	2202      	movs	r2, #2
 8000806:	61da      	str	r2, [r3, #28]
	RCC_OscInitStruct.PLL.PLLSource = RCC_PLLSOURCE_HSI;
 8000808:	187b      	adds	r3, r7, r1
 800080a:	2202      	movs	r2, #2
 800080c:	621a      	str	r2, [r3, #32]
	RCC_OscInitStruct.PLL.PLLM = RCC_PLLM_DIV1;
 800080e:	187b      	adds	r3, r7, r1
 8000810:	2200      	movs	r2, #0
 8000812:	625a      	str	r2, [r3, #36]	; 0x24
	RCC_OscInitStruct.PLL.PLLN = 8;
 8000814:	187b      	adds	r3, r7, r1
 8000816:	2208      	movs	r2, #8
 8000818:	629a      	str	r2, [r3, #40]	; 0x28
	RCC_OscInitStruct.PLL.PLLP = RCC_PLLP_DIV2;
 800081a:	187b      	adds	r3, r7, r1
 800081c:	2280      	movs	r2, #128	; 0x80
 800081e:	0292      	lsls	r2, r2, #10
 8000820:	62da      	str	r2, [r3, #44]	; 0x2c
	RCC_OscInitStruct.PLL.PLLQ = RCC_PLLQ_DIV2;
 8000822:	187b      	adds	r3, r7, r1
 8000824:	2280      	movs	r2, #128	; 0x80
 8000826:	0492      	lsls	r2, r2, #18
 8000828:	631a      	str	r2, [r3, #48]	; 0x30
	RCC_OscInitStruct.PLL.PLLR = RCC_PLLR_DIV2;
 800082a:	187b      	adds	r3, r7, r1
 800082c:	2280      	movs	r2, #128	; 0x80
 800082e:	0592      	lsls	r2, r2, #22
 8000830:	635a      	str	r2, [r3, #52]	; 0x34
	if (HAL_RCC_OscConfig(&RCC_OscInitStruct) != HAL_OK) {
 8000832:	187b      	adds	r3, r7, r1
 8000834:	0018      	movs	r0, r3
 8000836:	f003 fb85 	bl	8003f44 <HAL_RCC_OscConfig>
 800083a:	1e03      	subs	r3, r0, #0
 800083c:	d001      	beq.n	8000842 <SystemClock_Config+0x9a>
		Error_Handler();
 800083e:	f000 fdcb 	bl	80013d8 <Error_Handler>
	}
	/** Initializes the CPU, AHB and APB buses clocks
	 */
	RCC_ClkInitStruct.ClockType = RCC_CLOCKTYPE_HCLK | RCC_CLOCKTYPE_SYSCLK
 8000842:	2138      	movs	r1, #56	; 0x38
 8000844:	187b      	adds	r3, r7, r1
 8000846:	2207      	movs	r2, #7
 8000848:	601a      	str	r2, [r3, #0]
			| RCC_CLOCKTYPE_PCLK1;
	RCC_ClkInitStruct.SYSCLKSource = RCC_SYSCLKSOURCE_PLLCLK;
 800084a:	187b      	adds	r3, r7, r1
 800084c:	2202      	movs	r2, #2
 800084e:	605a      	str	r2, [r3, #4]
	RCC_ClkInitStruct.AHBCLKDivider = RCC_SYSCLK_DIV1;
 8000850:	187b      	adds	r3, r7, r1
 8000852:	2200      	movs	r2, #0
 8000854:	609a      	str	r2, [r3, #8]
	RCC_ClkInitStruct.APB1CLKDivider = RCC_HCLK_DIV1;
 8000856:	187b      	adds	r3, r7, r1
 8000858:	2200      	movs	r2, #0
 800085a:	60da      	str	r2, [r3, #12]

	if (HAL_RCC_ClockConfig(&RCC_ClkInitStruct, FLASH_LATENCY_2) != HAL_OK) {
 800085c:	187b      	adds	r3, r7, r1
 800085e:	2102      	movs	r1, #2
 8000860:	0018      	movs	r0, r3
 8000862:	f003 fe8f 	bl	8004584 <HAL_RCC_ClockConfig>
 8000866:	1e03      	subs	r3, r0, #0
 8000868:	d001      	beq.n	800086e <SystemClock_Config+0xc6>
		Error_Handler();
 800086a:	f000 fdb5 	bl	80013d8 <Error_Handler>
	}
	/** Initializes the peripherals clocks
	 */
	PeriphClkInit.PeriphClockSelection = RCC_PERIPHCLK_RNG | RCC_PERIPHCLK_TIM1;
 800086e:	003b      	movs	r3, r7
 8000870:	2290      	movs	r2, #144	; 0x90
 8000872:	0392      	lsls	r2, r2, #14
 8000874:	601a      	str	r2, [r3, #0]
	PeriphClkInit.RngClockSelection = RCC_RNGCLKSOURCE_HSI_DIV8;
 8000876:	003b      	movs	r3, r7
 8000878:	2280      	movs	r2, #128	; 0x80
 800087a:	04d2      	lsls	r2, r2, #19
 800087c:	621a      	str	r2, [r3, #32]
	PeriphClkInit.Tim1ClockSelection = RCC_TIM1CLKSOURCE_PCLK1;
 800087e:	003b      	movs	r3, r7
 8000880:	2200      	movs	r2, #0
 8000882:	62da      	str	r2, [r3, #44]	; 0x2c
	if (HAL_RCCEx_PeriphCLKConfig(&PeriphClkInit) != HAL_OK) {
 8000884:	003b      	movs	r3, r7
 8000886:	0018      	movs	r0, r3
 8000888:	f004 f806 	bl	8004898 <HAL_RCCEx_PeriphCLKConfig>
 800088c:	1e03      	subs	r3, r0, #0
 800088e:	d001      	beq.n	8000894 <SystemClock_Config+0xec>
		Error_Handler();
 8000890:	f000 fda2 	bl	80013d8 <Error_Handler>
	}
	/** Configure the RNG clock.
	 */
	__HAL_RCC_RNGDIV_CONFIG(RCC_RNGCLK_DIV1);
 8000894:	4b04      	ldr	r3, [pc, #16]	; (80008a8 <SystemClock_Config+0x100>)
 8000896:	6d5a      	ldr	r2, [r3, #84]	; 0x54
 8000898:	4b03      	ldr	r3, [pc, #12]	; (80008a8 <SystemClock_Config+0x100>)
 800089a:	4904      	ldr	r1, [pc, #16]	; (80008ac <SystemClock_Config+0x104>)
 800089c:	400a      	ands	r2, r1
 800089e:	655a      	str	r2, [r3, #84]	; 0x54
}
 80008a0:	46c0      	nop			; (mov r8, r8)
 80008a2:	46bd      	mov	sp, r7
 80008a4:	b021      	add	sp, #132	; 0x84
 80008a6:	bd90      	pop	{r4, r7, pc}
 80008a8:	40021000 	.word	0x40021000
 80008ac:	cfffffff 	.word	0xcfffffff

080008b0 <MX_AES_Init>:
/**
 * @brief AES Initialization Function
 * @param None
 * @retval None
 */
static void MX_AES_Init(void) {
 80008b0:	b580      	push	{r7, lr}
 80008b2:	af00      	add	r7, sp, #0
	/* USER CODE END AES_Init 0 */

	/* USER CODE BEGIN AES_Init 1 */

	/* USER CODE END AES_Init 1 */
	hcryp.Instance = AES;
 80008b4:	4b12      	ldr	r3, [pc, #72]	; (8000900 <MX_AES_Init+0x50>)
 80008b6:	4a13      	ldr	r2, [pc, #76]	; (8000904 <MX_AES_Init+0x54>)
 80008b8:	601a      	str	r2, [r3, #0]
	hcryp.Init.DataType = CRYP_DATATYPE_8B;
 80008ba:	4b11      	ldr	r3, [pc, #68]	; (8000900 <MX_AES_Init+0x50>)
 80008bc:	2204      	movs	r2, #4
 80008be:	605a      	str	r2, [r3, #4]
	hcryp.Init.KeySize = CRYP_KEYSIZE_128B;
 80008c0:	4b0f      	ldr	r3, [pc, #60]	; (8000900 <MX_AES_Init+0x50>)
 80008c2:	2200      	movs	r2, #0
 80008c4:	609a      	str	r2, [r3, #8]
	hcryp.Init.pKey = (uint32_t*) pKeyAES;
 80008c6:	4b0e      	ldr	r3, [pc, #56]	; (8000900 <MX_AES_Init+0x50>)
 80008c8:	4a0f      	ldr	r2, [pc, #60]	; (8000908 <MX_AES_Init+0x58>)
 80008ca:	60da      	str	r2, [r3, #12]
	hcryp.Init.pInitVect = (uint32_t*) pInitVectAES;
 80008cc:	4b0c      	ldr	r3, [pc, #48]	; (8000900 <MX_AES_Init+0x50>)
 80008ce:	4a0f      	ldr	r2, [pc, #60]	; (800090c <MX_AES_Init+0x5c>)
 80008d0:	611a      	str	r2, [r3, #16]
	hcryp.Init.Algorithm = CRYP_AES_CBC;
 80008d2:	4b0b      	ldr	r3, [pc, #44]	; (8000900 <MX_AES_Init+0x50>)
 80008d4:	2220      	movs	r2, #32
 80008d6:	615a      	str	r2, [r3, #20]
	hcryp.Init.DataWidthUnit = CRYP_DATAWIDTHUNIT_BYTE;
 80008d8:	4b09      	ldr	r3, [pc, #36]	; (8000900 <MX_AES_Init+0x50>)
 80008da:	2201      	movs	r2, #1
 80008dc:	625a      	str	r2, [r3, #36]	; 0x24
	hcryp.Init.HeaderWidthUnit = CRYP_HEADERWIDTHUNIT_BYTE;
 80008de:	4b08      	ldr	r3, [pc, #32]	; (8000900 <MX_AES_Init+0x50>)
 80008e0:	2201      	movs	r2, #1
 80008e2:	629a      	str	r2, [r3, #40]	; 0x28
	hcryp.Init.KeyIVConfigSkip = CRYP_KEYIVCONFIG_ALWAYS;
 80008e4:	4b06      	ldr	r3, [pc, #24]	; (8000900 <MX_AES_Init+0x50>)
 80008e6:	2200      	movs	r2, #0
 80008e8:	62da      	str	r2, [r3, #44]	; 0x2c
	if (HAL_CRYP_Init(&hcryp) != HAL_OK) {
 80008ea:	4b05      	ldr	r3, [pc, #20]	; (8000900 <MX_AES_Init+0x50>)
 80008ec:	0018      	movs	r0, r3
 80008ee:	f001 fdcf 	bl	8002490 <HAL_CRYP_Init>
 80008f2:	1e03      	subs	r3, r0, #0
 80008f4:	d001      	beq.n	80008fa <MX_AES_Init+0x4a>
		Error_Handler();
 80008f6:	f000 fd6f 	bl	80013d8 <Error_Handler>
	}
	/* USER CODE BEGIN AES_Init 2 */
	/* USER CODE END AES_Init 2 */

}
 80008fa:	46c0      	nop			; (mov r8, r8)
 80008fc:	46bd      	mov	sp, r7
 80008fe:	bd80      	pop	{r7, pc}
 8000900:	20000778 	.word	0x20000778
 8000904:	40026000 	.word	0x40026000
 8000908:	20000114 	.word	0x20000114
 800090c:	080094a8 	.word	0x080094a8

08000910 <MX_CRC_Init>:
/**
 * @brief CRC Initialization Function
 * @param None
 * @retval None
 */
static void MX_CRC_Init(void) {
 8000910:	b580      	push	{r7, lr}
 8000912:	af00      	add	r7, sp, #0
	/* USER CODE END CRC_Init 0 */

	/* USER CODE BEGIN CRC_Init 1 */

	/* USER CODE END CRC_Init 1 */
	hcrc.Instance = CRC;
 8000914:	4b0e      	ldr	r3, [pc, #56]	; (8000950 <MX_CRC_Init+0x40>)
 8000916:	4a0f      	ldr	r2, [pc, #60]	; (8000954 <MX_CRC_Init+0x44>)
 8000918:	601a      	str	r2, [r3, #0]
	hcrc.Init.DefaultPolynomialUse = DEFAULT_POLYNOMIAL_ENABLE;
 800091a:	4b0d      	ldr	r3, [pc, #52]	; (8000950 <MX_CRC_Init+0x40>)
 800091c:	2200      	movs	r2, #0
 800091e:	711a      	strb	r2, [r3, #4]
	hcrc.Init.DefaultInitValueUse = DEFAULT_INIT_VALUE_ENABLE;
 8000920:	4b0b      	ldr	r3, [pc, #44]	; (8000950 <MX_CRC_Init+0x40>)
 8000922:	2200      	movs	r2, #0
 8000924:	715a      	strb	r2, [r3, #5]
	hcrc.Init.InputDataInversionMode = CRC_INPUTDATA_INVERSION_NONE;
 8000926:	4b0a      	ldr	r3, [pc, #40]	; (8000950 <MX_CRC_Init+0x40>)
 8000928:	2200      	movs	r2, #0
 800092a:	615a      	str	r2, [r3, #20]
	hcrc.Init.OutputDataInversionMode = CRC_OUTPUTDATA_INVERSION_DISABLE;
 800092c:	4b08      	ldr	r3, [pc, #32]	; (8000950 <MX_CRC_Init+0x40>)
 800092e:	2200      	movs	r2, #0
 8000930:	619a      	str	r2, [r3, #24]
	hcrc.InputDataFormat = CRC_INPUTDATA_FORMAT_BYTES;
 8000932:	4b07      	ldr	r3, [pc, #28]	; (8000950 <MX_CRC_Init+0x40>)
 8000934:	2201      	movs	r2, #1
 8000936:	621a      	str	r2, [r3, #32]
	if (HAL_CRC_Init(&hcrc) != HAL_OK) {
 8000938:	4b05      	ldr	r3, [pc, #20]	; (8000950 <MX_CRC_Init+0x40>)
 800093a:	0018      	movs	r0, r3
 800093c:	f001 fcdc 	bl	80022f8 <HAL_CRC_Init>
 8000940:	1e03      	subs	r3, r0, #0
 8000942:	d001      	beq.n	8000948 <MX_CRC_Init+0x38>
		Error_Handler();
 8000944:	f000 fd48 	bl	80013d8 <Error_Handler>
	}
	/* USER CODE BEGIN CRC_Init 2 */

	/* USER CODE END CRC_Init 2 */

}
 8000948:	46c0      	nop			; (mov r8, r8)
 800094a:	46bd      	mov	sp, r7
 800094c:	bd80      	pop	{r7, pc}
 800094e:	46c0      	nop			; (mov r8, r8)
 8000950:	20000550 	.word	0x20000550
 8000954:	40023000 	.word	0x40023000

08000958 <MX_RNG_Init>:
/**
 * @brief RNG Initialization Function
 * @param None
 * @retval None
 */
static void MX_RNG_Init(void) {
 8000958:	b580      	push	{r7, lr}
 800095a:	af00      	add	r7, sp, #0
	/* USER CODE END RNG_Init 0 */

	/* USER CODE BEGIN RNG_Init 1 */

	/* USER CODE END RNG_Init 1 */
	hrng.Instance = RNG;
 800095c:	4b08      	ldr	r3, [pc, #32]	; (8000980 <MX_RNG_Init+0x28>)
 800095e:	4a09      	ldr	r2, [pc, #36]	; (8000984 <MX_RNG_Init+0x2c>)
 8000960:	601a      	str	r2, [r3, #0]
	hrng.Init.ClockErrorDetection = RNG_CED_ENABLE;
 8000962:	4b07      	ldr	r3, [pc, #28]	; (8000980 <MX_RNG_Init+0x28>)
 8000964:	2200      	movs	r2, #0
 8000966:	605a      	str	r2, [r3, #4]
	if (HAL_RNG_Init(&hrng) != HAL_OK) {
 8000968:	4b05      	ldr	r3, [pc, #20]	; (8000980 <MX_RNG_Init+0x28>)
 800096a:	0018      	movs	r0, r3
 800096c:	f004 f96e 	bl	8004c4c <HAL_RNG_Init>
 8000970:	1e03      	subs	r3, r0, #0
 8000972:	d001      	beq.n	8000978 <MX_RNG_Init+0x20>
		Error_Handler();
 8000974:	f000 fd30 	bl	80013d8 <Error_Handler>
	}
	/* USER CODE BEGIN RNG_Init 2 */

	/* USER CODE END RNG_Init 2 */

}
 8000978:	46c0      	nop			; (mov r8, r8)
 800097a:	46bd      	mov	sp, r7
 800097c:	bd80      	pop	{r7, pc}
 800097e:	46c0      	nop			; (mov r8, r8)
 8000980:	20000620 	.word	0x20000620
 8000984:	40025000 	.word	0x40025000

08000988 <MX_SPI1_Init>:
/**
 * @brief SPI1 Initialization Function
 * @param None
 * @retval None
 */
static void MX_SPI1_Init(void) {
 8000988:	b580      	push	{r7, lr}
 800098a:	af00      	add	r7, sp, #0

	/* USER CODE BEGIN SPI1_Init 1 */

	/* USER CODE END SPI1_Init 1 */
	/* SPI1 parameter configuration*/
	hspi1.Instance = SPI1;
 800098c:	4b1b      	ldr	r3, [pc, #108]	; (80009fc <MX_SPI1_Init+0x74>)
 800098e:	4a1c      	ldr	r2, [pc, #112]	; (8000a00 <MX_SPI1_Init+0x78>)
 8000990:	601a      	str	r2, [r3, #0]
	hspi1.Init.Mode = SPI_MODE_MASTER;
 8000992:	4b1a      	ldr	r3, [pc, #104]	; (80009fc <MX_SPI1_Init+0x74>)
 8000994:	2282      	movs	r2, #130	; 0x82
 8000996:	0052      	lsls	r2, r2, #1
 8000998:	605a      	str	r2, [r3, #4]
	hspi1.Init.Direction = SPI_DIRECTION_2LINES;
 800099a:	4b18      	ldr	r3, [pc, #96]	; (80009fc <MX_SPI1_Init+0x74>)
 800099c:	2200      	movs	r2, #0
 800099e:	609a      	str	r2, [r3, #8]
	hspi1.Init.DataSize = SPI_DATASIZE_8BIT;
 80009a0:	4b16      	ldr	r3, [pc, #88]	; (80009fc <MX_SPI1_Init+0x74>)
 80009a2:	22e0      	movs	r2, #224	; 0xe0
 80009a4:	00d2      	lsls	r2, r2, #3
 80009a6:	60da      	str	r2, [r3, #12]
	hspi1.Init.CLKPolarity = SPI_POLARITY_LOW;
 80009a8:	4b14      	ldr	r3, [pc, #80]	; (80009fc <MX_SPI1_Init+0x74>)
 80009aa:	2200      	movs	r2, #0
 80009ac:	611a      	str	r2, [r3, #16]
	hspi1.Init.CLKPhase = SPI_PHASE_1EDGE;
 80009ae:	4b13      	ldr	r3, [pc, #76]	; (80009fc <MX_SPI1_Init+0x74>)
 80009b0:	2200      	movs	r2, #0
 80009b2:	615a      	str	r2, [r3, #20]
	hspi1.Init.NSS = SPI_NSS_SOFT;
 80009b4:	4b11      	ldr	r3, [pc, #68]	; (80009fc <MX_SPI1_Init+0x74>)
 80009b6:	2280      	movs	r2, #128	; 0x80
 80009b8:	0092      	lsls	r2, r2, #2
 80009ba:	619a      	str	r2, [r3, #24]
	hspi1.Init.BaudRatePrescaler = SPI_BAUDRATEPRESCALER_16;
 80009bc:	4b0f      	ldr	r3, [pc, #60]	; (80009fc <MX_SPI1_Init+0x74>)
 80009be:	2218      	movs	r2, #24
 80009c0:	61da      	str	r2, [r3, #28]
	hspi1.Init.FirstBit = SPI_FIRSTBIT_MSB;
 80009c2:	4b0e      	ldr	r3, [pc, #56]	; (80009fc <MX_SPI1_Init+0x74>)
 80009c4:	2200      	movs	r2, #0
 80009c6:	621a      	str	r2, [r3, #32]
	hspi1.Init.TIMode = SPI_TIMODE_DISABLE;
 80009c8:	4b0c      	ldr	r3, [pc, #48]	; (80009fc <MX_SPI1_Init+0x74>)
 80009ca:	2200      	movs	r2, #0
 80009cc:	625a      	str	r2, [r3, #36]	; 0x24
	hspi1.Init.CRCCalculation = SPI_CRCCALCULATION_DISABLE;
 80009ce:	4b0b      	ldr	r3, [pc, #44]	; (80009fc <MX_SPI1_Init+0x74>)
 80009d0:	2200      	movs	r2, #0
 80009d2:	629a      	str	r2, [r3, #40]	; 0x28
	hspi1.Init.CRCPolynomial = 7;
 80009d4:	4b09      	ldr	r3, [pc, #36]	; (80009fc <MX_SPI1_Init+0x74>)
 80009d6:	2207      	movs	r2, #7
 80009d8:	62da      	str	r2, [r3, #44]	; 0x2c
	hspi1.Init.CRCLength = SPI_CRC_LENGTH_DATASIZE;
 80009da:	4b08      	ldr	r3, [pc, #32]	; (80009fc <MX_SPI1_Init+0x74>)
 80009dc:	2200      	movs	r2, #0
 80009de:	631a      	str	r2, [r3, #48]	; 0x30
	hspi1.Init.NSSPMode = SPI_NSS_PULSE_ENABLE;
 80009e0:	4b06      	ldr	r3, [pc, #24]	; (80009fc <MX_SPI1_Init+0x74>)
 80009e2:	2208      	movs	r2, #8
 80009e4:	635a      	str	r2, [r3, #52]	; 0x34
	if (HAL_SPI_Init(&hspi1) != HAL_OK) {
 80009e6:	4b05      	ldr	r3, [pc, #20]	; (80009fc <MX_SPI1_Init+0x74>)
 80009e8:	0018      	movs	r0, r3
 80009ea:	f004 f9bd 	bl	8004d68 <HAL_SPI_Init>
 80009ee:	1e03      	subs	r3, r0, #0
 80009f0:	d001      	beq.n	80009f6 <MX_SPI1_Init+0x6e>
		Error_Handler();
 80009f2:	f000 fcf1 	bl	80013d8 <Error_Handler>
	}
	/* USER CODE BEGIN SPI1_Init 2 */

	/* USER CODE END SPI1_Init 2 */

}
 80009f6:	46c0      	nop			; (mov r8, r8)
 80009f8:	46bd      	mov	sp, r7
 80009fa:	bd80      	pop	{r7, pc}
 80009fc:	20000634 	.word	0x20000634
 8000a00:	40013000 	.word	0x40013000

08000a04 <MX_TIM1_Init>:
/**
 * @brief TIM1 Initialization Function
 * @param None
 * @retval None
 */
static void MX_TIM1_Init(void) {
 8000a04:	b580      	push	{r7, lr}
 8000a06:	b098      	sub	sp, #96	; 0x60
 8000a08:	af00      	add	r7, sp, #0

	/* USER CODE BEGIN TIM1_Init 0 */

	/* USER CODE END TIM1_Init 0 */

	TIM_MasterConfigTypeDef sMasterConfig = { 0 };
 8000a0a:	2354      	movs	r3, #84	; 0x54
 8000a0c:	18fb      	adds	r3, r7, r3
 8000a0e:	0018      	movs	r0, r3
 8000a10:	230c      	movs	r3, #12
 8000a12:	001a      	movs	r2, r3
 8000a14:	2100      	movs	r1, #0
 8000a16:	f007 fd1c 	bl	8008452 <memset>
	TIM_OC_InitTypeDef sConfigOC = { 0 };
 8000a1a:	2338      	movs	r3, #56	; 0x38
 8000a1c:	18fb      	adds	r3, r7, r3
 8000a1e:	0018      	movs	r0, r3
 8000a20:	231c      	movs	r3, #28
 8000a22:	001a      	movs	r2, r3
 8000a24:	2100      	movs	r1, #0
 8000a26:	f007 fd14 	bl	8008452 <memset>
	TIM_BreakDeadTimeConfigTypeDef sBreakDeadTimeConfig = { 0 };
 8000a2a:	1d3b      	adds	r3, r7, #4
 8000a2c:	0018      	movs	r0, r3
 8000a2e:	2334      	movs	r3, #52	; 0x34
 8000a30:	001a      	movs	r2, r3
 8000a32:	2100      	movs	r1, #0
 8000a34:	f007 fd0d 	bl	8008452 <memset>

	/* USER CODE BEGIN TIM1_Init 1 */

	/* USER CODE END TIM1_Init 1 */
	htim1.Instance = TIM1;
 8000a38:	4b45      	ldr	r3, [pc, #276]	; (8000b50 <MX_TIM1_Init+0x14c>)
 8000a3a:	4a46      	ldr	r2, [pc, #280]	; (8000b54 <MX_TIM1_Init+0x150>)
 8000a3c:	601a      	str	r2, [r3, #0]
	htim1.Init.Prescaler = 0;
 8000a3e:	4b44      	ldr	r3, [pc, #272]	; (8000b50 <MX_TIM1_Init+0x14c>)
 8000a40:	2200      	movs	r2, #0
 8000a42:	605a      	str	r2, [r3, #4]
	htim1.Init.CounterMode = TIM_COUNTERMODE_UP;
 8000a44:	4b42      	ldr	r3, [pc, #264]	; (8000b50 <MX_TIM1_Init+0x14c>)
 8000a46:	2200      	movs	r2, #0
 8000a48:	609a      	str	r2, [r3, #8]
	htim1.Init.Period = 65535;
 8000a4a:	4b41      	ldr	r3, [pc, #260]	; (8000b50 <MX_TIM1_Init+0x14c>)
 8000a4c:	4a42      	ldr	r2, [pc, #264]	; (8000b58 <MX_TIM1_Init+0x154>)
 8000a4e:	60da      	str	r2, [r3, #12]
	htim1.Init.ClockDivision = TIM_CLOCKDIVISION_DIV1;
 8000a50:	4b3f      	ldr	r3, [pc, #252]	; (8000b50 <MX_TIM1_Init+0x14c>)
 8000a52:	2200      	movs	r2, #0
 8000a54:	611a      	str	r2, [r3, #16]
	htim1.Init.RepetitionCounter = 0;
 8000a56:	4b3e      	ldr	r3, [pc, #248]	; (8000b50 <MX_TIM1_Init+0x14c>)
 8000a58:	2200      	movs	r2, #0
 8000a5a:	615a      	str	r2, [r3, #20]
	htim1.Init.AutoReloadPreload = TIM_AUTORELOAD_PRELOAD_DISABLE;
 8000a5c:	4b3c      	ldr	r3, [pc, #240]	; (8000b50 <MX_TIM1_Init+0x14c>)
 8000a5e:	2200      	movs	r2, #0
 8000a60:	619a      	str	r2, [r3, #24]
	if (HAL_TIM_PWM_Init(&htim1) != HAL_OK) {
 8000a62:	4b3b      	ldr	r3, [pc, #236]	; (8000b50 <MX_TIM1_Init+0x14c>)
 8000a64:	0018      	movs	r0, r3
 8000a66:	f005 f92b 	bl	8005cc0 <HAL_TIM_PWM_Init>
 8000a6a:	1e03      	subs	r3, r0, #0
 8000a6c:	d001      	beq.n	8000a72 <MX_TIM1_Init+0x6e>
		Error_Handler();
 8000a6e:	f000 fcb3 	bl	80013d8 <Error_Handler>
	}
	sMasterConfig.MasterOutputTrigger = TIM_TRGO_RESET;
 8000a72:	2154      	movs	r1, #84	; 0x54
 8000a74:	187b      	adds	r3, r7, r1
 8000a76:	2200      	movs	r2, #0
 8000a78:	601a      	str	r2, [r3, #0]
	sMasterConfig.MasterOutputTrigger2 = TIM_TRGO2_RESET;
 8000a7a:	187b      	adds	r3, r7, r1
 8000a7c:	2200      	movs	r2, #0
 8000a7e:	605a      	str	r2, [r3, #4]
	sMasterConfig.MasterSlaveMode = TIM_MASTERSLAVEMODE_DISABLE;
 8000a80:	187b      	adds	r3, r7, r1
 8000a82:	2200      	movs	r2, #0
 8000a84:	609a      	str	r2, [r3, #8]
	if (HAL_TIMEx_MasterConfigSynchronization(&htim1, &sMasterConfig)
 8000a86:	187a      	adds	r2, r7, r1
 8000a88:	4b31      	ldr	r3, [pc, #196]	; (8000b50 <MX_TIM1_Init+0x14c>)
 8000a8a:	0011      	movs	r1, r2
 8000a8c:	0018      	movs	r0, r3
 8000a8e:	f006 f809 	bl	8006aa4 <HAL_TIMEx_MasterConfigSynchronization>
 8000a92:	1e03      	subs	r3, r0, #0
 8000a94:	d001      	beq.n	8000a9a <MX_TIM1_Init+0x96>
			!= HAL_OK) {
		Error_Handler();
 8000a96:	f000 fc9f 	bl	80013d8 <Error_Handler>
	}
	sConfigOC.OCMode = TIM_OCMODE_PWM1;
 8000a9a:	2138      	movs	r1, #56	; 0x38
 8000a9c:	187b      	adds	r3, r7, r1
 8000a9e:	2260      	movs	r2, #96	; 0x60
 8000aa0:	601a      	str	r2, [r3, #0]
	sConfigOC.Pulse = 0;
 8000aa2:	187b      	adds	r3, r7, r1
 8000aa4:	2200      	movs	r2, #0
 8000aa6:	605a      	str	r2, [r3, #4]
	sConfigOC.OCPolarity = TIM_OCPOLARITY_HIGH;
 8000aa8:	187b      	adds	r3, r7, r1
 8000aaa:	2200      	movs	r2, #0
 8000aac:	609a      	str	r2, [r3, #8]
	sConfigOC.OCNPolarity = TIM_OCNPOLARITY_HIGH;
 8000aae:	187b      	adds	r3, r7, r1
 8000ab0:	2200      	movs	r2, #0
 8000ab2:	60da      	str	r2, [r3, #12]
	sConfigOC.OCFastMode = TIM_OCFAST_DISABLE;
 8000ab4:	187b      	adds	r3, r7, r1
 8000ab6:	2200      	movs	r2, #0
 8000ab8:	611a      	str	r2, [r3, #16]
	sConfigOC.OCIdleState = TIM_OCIDLESTATE_RESET;
 8000aba:	187b      	adds	r3, r7, r1
 8000abc:	2200      	movs	r2, #0
 8000abe:	615a      	str	r2, [r3, #20]
	sConfigOC.OCNIdleState = TIM_OCNIDLESTATE_RESET;
 8000ac0:	187b      	adds	r3, r7, r1
 8000ac2:	2200      	movs	r2, #0
 8000ac4:	619a      	str	r2, [r3, #24]
	if (HAL_TIM_PWM_ConfigChannel(&htim1, &sConfigOC, TIM_CHANNEL_1)
 8000ac6:	1879      	adds	r1, r7, r1
 8000ac8:	4b21      	ldr	r3, [pc, #132]	; (8000b50 <MX_TIM1_Init+0x14c>)
 8000aca:	2200      	movs	r2, #0
 8000acc:	0018      	movs	r0, r3
 8000ace:	f005 fb6b 	bl	80061a8 <HAL_TIM_PWM_ConfigChannel>
 8000ad2:	1e03      	subs	r3, r0, #0
 8000ad4:	d001      	beq.n	8000ada <MX_TIM1_Init+0xd6>
			!= HAL_OK) {
		Error_Handler();
 8000ad6:	f000 fc7f 	bl	80013d8 <Error_Handler>
	}
	sBreakDeadTimeConfig.OffStateRunMode = TIM_OSSR_DISABLE;
 8000ada:	1d3b      	adds	r3, r7, #4
 8000adc:	2200      	movs	r2, #0
 8000ade:	601a      	str	r2, [r3, #0]
	sBreakDeadTimeConfig.OffStateIDLEMode = TIM_OSSI_DISABLE;
 8000ae0:	1d3b      	adds	r3, r7, #4
 8000ae2:	2200      	movs	r2, #0
 8000ae4:	605a      	str	r2, [r3, #4]
	sBreakDeadTimeConfig.LockLevel = TIM_LOCKLEVEL_OFF;
 8000ae6:	1d3b      	adds	r3, r7, #4
 8000ae8:	2200      	movs	r2, #0
 8000aea:	609a      	str	r2, [r3, #8]
	sBreakDeadTimeConfig.DeadTime = 0;
 8000aec:	1d3b      	adds	r3, r7, #4
 8000aee:	2200      	movs	r2, #0
 8000af0:	60da      	str	r2, [r3, #12]
	sBreakDeadTimeConfig.BreakState = TIM_BREAK_DISABLE;
 8000af2:	1d3b      	adds	r3, r7, #4
 8000af4:	2200      	movs	r2, #0
 8000af6:	611a      	str	r2, [r3, #16]
	sBreakDeadTimeConfig.BreakPolarity = TIM_BREAKPOLARITY_HIGH;
 8000af8:	1d3b      	adds	r3, r7, #4
 8000afa:	2280      	movs	r2, #128	; 0x80
 8000afc:	0192      	lsls	r2, r2, #6
 8000afe:	615a      	str	r2, [r3, #20]
	sBreakDeadTimeConfig.BreakFilter = 0;
 8000b00:	1d3b      	adds	r3, r7, #4
 8000b02:	2200      	movs	r2, #0
 8000b04:	619a      	str	r2, [r3, #24]
	sBreakDeadTimeConfig.BreakAFMode = TIM_BREAK_AFMODE_INPUT;
 8000b06:	1d3b      	adds	r3, r7, #4
 8000b08:	2200      	movs	r2, #0
 8000b0a:	61da      	str	r2, [r3, #28]
	sBreakDeadTimeConfig.Break2State = TIM_BREAK2_DISABLE;
 8000b0c:	1d3b      	adds	r3, r7, #4
 8000b0e:	2200      	movs	r2, #0
 8000b10:	621a      	str	r2, [r3, #32]
	sBreakDeadTimeConfig.Break2Polarity = TIM_BREAK2POLARITY_HIGH;
 8000b12:	1d3b      	adds	r3, r7, #4
 8000b14:	2280      	movs	r2, #128	; 0x80
 8000b16:	0492      	lsls	r2, r2, #18
 8000b18:	625a      	str	r2, [r3, #36]	; 0x24
	sBreakDeadTimeConfig.Break2Filter = 0;
 8000b1a:	1d3b      	adds	r3, r7, #4
 8000b1c:	2200      	movs	r2, #0
 8000b1e:	629a      	str	r2, [r3, #40]	; 0x28
	sBreakDeadTimeConfig.Break2AFMode = TIM_BREAK_AFMODE_INPUT;
 8000b20:	1d3b      	adds	r3, r7, #4
 8000b22:	2200      	movs	r2, #0
 8000b24:	62da      	str	r2, [r3, #44]	; 0x2c
	sBreakDeadTimeConfig.AutomaticOutput = TIM_AUTOMATICOUTPUT_DISABLE;
 8000b26:	1d3b      	adds	r3, r7, #4
 8000b28:	2200      	movs	r2, #0
 8000b2a:	631a      	str	r2, [r3, #48]	; 0x30
	if (HAL_TIMEx_ConfigBreakDeadTime(&htim1, &sBreakDeadTimeConfig)
 8000b2c:	1d3a      	adds	r2, r7, #4
 8000b2e:	4b08      	ldr	r3, [pc, #32]	; (8000b50 <MX_TIM1_Init+0x14c>)
 8000b30:	0011      	movs	r1, r2
 8000b32:	0018      	movs	r0, r3
 8000b34:	f006 f824 	bl	8006b80 <HAL_TIMEx_ConfigBreakDeadTime>
 8000b38:	1e03      	subs	r3, r0, #0
 8000b3a:	d001      	beq.n	8000b40 <MX_TIM1_Init+0x13c>
			!= HAL_OK) {
		Error_Handler();
 8000b3c:	f000 fc4c 	bl	80013d8 <Error_Handler>
	}
	/* USER CODE BEGIN TIM1_Init 2 */

	/* USER CODE END TIM1_Init 2 */
	HAL_TIM_MspPostInit(&htim1);
 8000b40:	4b03      	ldr	r3, [pc, #12]	; (8000b50 <MX_TIM1_Init+0x14c>)
 8000b42:	0018      	movs	r0, r3
 8000b44:	f001 f8d0 	bl	8001ce8 <HAL_TIM_MspPostInit>

}
 8000b48:	46c0      	nop			; (mov r8, r8)
 8000b4a:	46bd      	mov	sp, r7
 8000b4c:	b018      	add	sp, #96	; 0x60
 8000b4e:	bd80      	pop	{r7, pc}
 8000b50:	200005c4 	.word	0x200005c4
 8000b54:	40012c00 	.word	0x40012c00
 8000b58:	0000ffff 	.word	0x0000ffff

08000b5c <MX_TIM16_Init>:
/**
 * @brief TIM16 Initialization Function
 * @param None
 * @retval None
 */
static void MX_TIM16_Init(void) {
 8000b5c:	b580      	push	{r7, lr}
 8000b5e:	af00      	add	r7, sp, #0
	/* USER CODE END TIM16_Init 0 */

	/* USER CODE BEGIN TIM16_Init 1 */

	/* USER CODE END TIM16_Init 1 */
	htim16.Instance = TIM16;
 8000b60:	4b0f      	ldr	r3, [pc, #60]	; (8000ba0 <MX_TIM16_Init+0x44>)
 8000b62:	4a10      	ldr	r2, [pc, #64]	; (8000ba4 <MX_TIM16_Init+0x48>)
 8000b64:	601a      	str	r2, [r3, #0]
	htim16.Init.Prescaler = 64;
 8000b66:	4b0e      	ldr	r3, [pc, #56]	; (8000ba0 <MX_TIM16_Init+0x44>)
 8000b68:	2240      	movs	r2, #64	; 0x40
 8000b6a:	605a      	str	r2, [r3, #4]
	htim16.Init.CounterMode = TIM_COUNTERMODE_UP;
 8000b6c:	4b0c      	ldr	r3, [pc, #48]	; (8000ba0 <MX_TIM16_Init+0x44>)
 8000b6e:	2200      	movs	r2, #0
 8000b70:	609a      	str	r2, [r3, #8]
	htim16.Init.Period = 25000;
 8000b72:	4b0b      	ldr	r3, [pc, #44]	; (8000ba0 <MX_TIM16_Init+0x44>)
 8000b74:	4a0c      	ldr	r2, [pc, #48]	; (8000ba8 <MX_TIM16_Init+0x4c>)
 8000b76:	60da      	str	r2, [r3, #12]
	htim16.Init.ClockDivision = TIM_CLOCKDIVISION_DIV1;
 8000b78:	4b09      	ldr	r3, [pc, #36]	; (8000ba0 <MX_TIM16_Init+0x44>)
 8000b7a:	2200      	movs	r2, #0
 8000b7c:	611a      	str	r2, [r3, #16]
	htim16.Init.RepetitionCounter = 0;
 8000b7e:	4b08      	ldr	r3, [pc, #32]	; (8000ba0 <MX_TIM16_Init+0x44>)
 8000b80:	2200      	movs	r2, #0
 8000b82:	615a      	str	r2, [r3, #20]
	htim16.Init.AutoReloadPreload = TIM_AUTORELOAD_PRELOAD_DISABLE;
 8000b84:	4b06      	ldr	r3, [pc, #24]	; (8000ba0 <MX_TIM16_Init+0x44>)
 8000b86:	2200      	movs	r2, #0
 8000b88:	619a      	str	r2, [r3, #24]
	if (HAL_TIM_Base_Init(&htim16) != HAL_OK) {
 8000b8a:	4b05      	ldr	r3, [pc, #20]	; (8000ba0 <MX_TIM16_Init+0x44>)
 8000b8c:	0018      	movs	r0, r3
 8000b8e:	f004 ffe3 	bl	8005b58 <HAL_TIM_Base_Init>
 8000b92:	1e03      	subs	r3, r0, #0
 8000b94:	d001      	beq.n	8000b9a <MX_TIM16_Init+0x3e>
		Error_Handler();
 8000b96:	f000 fc1f 	bl	80013d8 <Error_Handler>
	}
	/* USER CODE BEGIN TIM16_Init 2 */

	/* USER CODE END TIM16_Init 2 */

}
 8000b9a:	46c0      	nop			; (mov r8, r8)
 8000b9c:	46bd      	mov	sp, r7
 8000b9e:	bd80      	pop	{r7, pc}
 8000ba0:	2000072c 	.word	0x2000072c
 8000ba4:	40014400 	.word	0x40014400
 8000ba8:	000061a8 	.word	0x000061a8

08000bac <MX_GPIO_Init>:
/**
 * @brief GPIO Initialization Function
 * @param None
 * @retval None
 */
static void MX_GPIO_Init(void) {
 8000bac:	b590      	push	{r4, r7, lr}
 8000bae:	b089      	sub	sp, #36	; 0x24
 8000bb0:	af00      	add	r7, sp, #0
	GPIO_InitTypeDef GPIO_InitStruct = { 0 };
 8000bb2:	240c      	movs	r4, #12
 8000bb4:	193b      	adds	r3, r7, r4
 8000bb6:	0018      	movs	r0, r3
 8000bb8:	2314      	movs	r3, #20
 8000bba:	001a      	movs	r2, r3
 8000bbc:	2100      	movs	r1, #0
 8000bbe:	f007 fc48 	bl	8008452 <memset>

	/* GPIO Ports Clock Enable */
	__HAL_RCC_GPIOA_CLK_ENABLE();
 8000bc2:	4b56      	ldr	r3, [pc, #344]	; (8000d1c <MX_GPIO_Init+0x170>)
 8000bc4:	6b5a      	ldr	r2, [r3, #52]	; 0x34
 8000bc6:	4b55      	ldr	r3, [pc, #340]	; (8000d1c <MX_GPIO_Init+0x170>)
 8000bc8:	2101      	movs	r1, #1
 8000bca:	430a      	orrs	r2, r1
 8000bcc:	635a      	str	r2, [r3, #52]	; 0x34
 8000bce:	4b53      	ldr	r3, [pc, #332]	; (8000d1c <MX_GPIO_Init+0x170>)
 8000bd0:	6b5b      	ldr	r3, [r3, #52]	; 0x34
 8000bd2:	2201      	movs	r2, #1
 8000bd4:	4013      	ands	r3, r2
 8000bd6:	60bb      	str	r3, [r7, #8]
 8000bd8:	68bb      	ldr	r3, [r7, #8]
	__HAL_RCC_GPIOC_CLK_ENABLE();
 8000bda:	4b50      	ldr	r3, [pc, #320]	; (8000d1c <MX_GPIO_Init+0x170>)
 8000bdc:	6b5a      	ldr	r2, [r3, #52]	; 0x34
 8000bde:	4b4f      	ldr	r3, [pc, #316]	; (8000d1c <MX_GPIO_Init+0x170>)
 8000be0:	2104      	movs	r1, #4
 8000be2:	430a      	orrs	r2, r1
 8000be4:	635a      	str	r2, [r3, #52]	; 0x34
 8000be6:	4b4d      	ldr	r3, [pc, #308]	; (8000d1c <MX_GPIO_Init+0x170>)
 8000be8:	6b5b      	ldr	r3, [r3, #52]	; 0x34
 8000bea:	2204      	movs	r2, #4
 8000bec:	4013      	ands	r3, r2
 8000bee:	607b      	str	r3, [r7, #4]
 8000bf0:	687b      	ldr	r3, [r7, #4]
	__HAL_RCC_GPIOB_CLK_ENABLE();
 8000bf2:	4b4a      	ldr	r3, [pc, #296]	; (8000d1c <MX_GPIO_Init+0x170>)
 8000bf4:	6b5a      	ldr	r2, [r3, #52]	; 0x34
 8000bf6:	4b49      	ldr	r3, [pc, #292]	; (8000d1c <MX_GPIO_Init+0x170>)
 8000bf8:	2102      	movs	r1, #2
 8000bfa:	430a      	orrs	r2, r1
 8000bfc:	635a      	str	r2, [r3, #52]	; 0x34
 8000bfe:	4b47      	ldr	r3, [pc, #284]	; (8000d1c <MX_GPIO_Init+0x170>)
 8000c00:	6b5b      	ldr	r3, [r3, #52]	; 0x34
 8000c02:	2202      	movs	r2, #2
 8000c04:	4013      	ands	r3, r2
 8000c06:	603b      	str	r3, [r7, #0]
 8000c08:	683b      	ldr	r3, [r7, #0]

	/*Configure GPIO pin Output Level */
	HAL_GPIO_WritePin(RADIO_CS_GPIO_Port, RADIO_CS_Pin, GPIO_PIN_RESET);
 8000c0a:	23a0      	movs	r3, #160	; 0xa0
 8000c0c:	05db      	lsls	r3, r3, #23
 8000c0e:	2200      	movs	r2, #0
 8000c10:	2180      	movs	r1, #128	; 0x80
 8000c12:	0018      	movs	r0, r3
 8000c14:	f003 f8f3 	bl	8003dfe <HAL_GPIO_WritePin>

	/*Configure GPIO pin Output Level */
	HAL_GPIO_WritePin(GPIOC, RADIO_RESET_Pin | LED2_Pin, GPIO_PIN_RESET);
 8000c18:	2382      	movs	r3, #130	; 0x82
 8000c1a:	00db      	lsls	r3, r3, #3
 8000c1c:	4840      	ldr	r0, [pc, #256]	; (8000d20 <MX_GPIO_Init+0x174>)
 8000c1e:	2200      	movs	r2, #0
 8000c20:	0019      	movs	r1, r3
 8000c22:	f003 f8ec 	bl	8003dfe <HAL_GPIO_WritePin>

	/*Configure GPIO pin Output Level */
	HAL_GPIO_WritePin(LED1_GPIO_Port, LED1_Pin, GPIO_PIN_RESET);
 8000c26:	2380      	movs	r3, #128	; 0x80
 8000c28:	009b      	lsls	r3, r3, #2
 8000c2a:	483e      	ldr	r0, [pc, #248]	; (8000d24 <MX_GPIO_Init+0x178>)
 8000c2c:	2200      	movs	r2, #0
 8000c2e:	0019      	movs	r1, r3
 8000c30:	f003 f8e5 	bl	8003dfe <HAL_GPIO_WritePin>

	/*Configure GPIO pin : RADIO_INT_Pin */
	GPIO_InitStruct.Pin = RADIO_INT_Pin;
 8000c34:	193b      	adds	r3, r7, r4
 8000c36:	2201      	movs	r2, #1
 8000c38:	601a      	str	r2, [r3, #0]
	GPIO_InitStruct.Mode = GPIO_MODE_IT_RISING;
 8000c3a:	193b      	adds	r3, r7, r4
 8000c3c:	4a3a      	ldr	r2, [pc, #232]	; (8000d28 <MX_GPIO_Init+0x17c>)
 8000c3e:	605a      	str	r2, [r3, #4]
	GPIO_InitStruct.Pull = GPIO_PULLDOWN;
 8000c40:	193b      	adds	r3, r7, r4
 8000c42:	2202      	movs	r2, #2
 8000c44:	609a      	str	r2, [r3, #8]
	HAL_GPIO_Init(RADIO_INT_GPIO_Port, &GPIO_InitStruct);
 8000c46:	193a      	adds	r2, r7, r4
 8000c48:	23a0      	movs	r3, #160	; 0xa0
 8000c4a:	05db      	lsls	r3, r3, #23
 8000c4c:	0011      	movs	r1, r2
 8000c4e:	0018      	movs	r0, r3
 8000c50:	f002 ff54 	bl	8003afc <HAL_GPIO_Init>

	/*Configure GPIO pin : RADIO_CS_Pin */
	GPIO_InitStruct.Pin = RADIO_CS_Pin;
 8000c54:	0021      	movs	r1, r4
 8000c56:	187b      	adds	r3, r7, r1
 8000c58:	2280      	movs	r2, #128	; 0x80
 8000c5a:	601a      	str	r2, [r3, #0]
	GPIO_InitStruct.Mode = GPIO_MODE_OUTPUT_PP;
 8000c5c:	187b      	adds	r3, r7, r1
 8000c5e:	2201      	movs	r2, #1
 8000c60:	605a      	str	r2, [r3, #4]
	GPIO_InitStruct.Pull = GPIO_PULLUP;
 8000c62:	187b      	adds	r3, r7, r1
 8000c64:	2201      	movs	r2, #1
 8000c66:	609a      	str	r2, [r3, #8]
	GPIO_InitStruct.Speed = GPIO_SPEED_FREQ_LOW;
 8000c68:	187b      	adds	r3, r7, r1
 8000c6a:	2200      	movs	r2, #0
 8000c6c:	60da      	str	r2, [r3, #12]
	HAL_GPIO_Init(RADIO_CS_GPIO_Port, &GPIO_InitStruct);
 8000c6e:	000c      	movs	r4, r1
 8000c70:	187a      	adds	r2, r7, r1
 8000c72:	23a0      	movs	r3, #160	; 0xa0
 8000c74:	05db      	lsls	r3, r3, #23
 8000c76:	0011      	movs	r1, r2
 8000c78:	0018      	movs	r0, r3
 8000c7a:	f002 ff3f 	bl	8003afc <HAL_GPIO_Init>

	/*Configure GPIO pins : RADIO_RESET_Pin LED2_Pin */
	GPIO_InitStruct.Pin = RADIO_RESET_Pin | LED2_Pin;
 8000c7e:	0021      	movs	r1, r4
 8000c80:	187b      	adds	r3, r7, r1
 8000c82:	2282      	movs	r2, #130	; 0x82
 8000c84:	00d2      	lsls	r2, r2, #3
 8000c86:	601a      	str	r2, [r3, #0]
	GPIO_InitStruct.Mode = GPIO_MODE_OUTPUT_PP;
 8000c88:	187b      	adds	r3, r7, r1
 8000c8a:	2201      	movs	r2, #1
 8000c8c:	605a      	str	r2, [r3, #4]
	GPIO_InitStruct.Pull = GPIO_NOPULL;
 8000c8e:	187b      	adds	r3, r7, r1
 8000c90:	2200      	movs	r2, #0
 8000c92:	609a      	str	r2, [r3, #8]
	GPIO_InitStruct.Speed = GPIO_SPEED_FREQ_LOW;
 8000c94:	187b      	adds	r3, r7, r1
 8000c96:	2200      	movs	r2, #0
 8000c98:	60da      	str	r2, [r3, #12]
	HAL_GPIO_Init(GPIOC, &GPIO_InitStruct);
 8000c9a:	000c      	movs	r4, r1
 8000c9c:	187b      	adds	r3, r7, r1
 8000c9e:	4a20      	ldr	r2, [pc, #128]	; (8000d20 <MX_GPIO_Init+0x174>)
 8000ca0:	0019      	movs	r1, r3
 8000ca2:	0010      	movs	r0, r2
 8000ca4:	f002 ff2a 	bl	8003afc <HAL_GPIO_Init>

	/*Configure GPIO pins : PAIR_Pin VIBE_BUTTON_Pin */
	GPIO_InitStruct.Pin = PAIR_Pin | VIBE_BUTTON_Pin;
 8000ca8:	0021      	movs	r1, r4
 8000caa:	187b      	adds	r3, r7, r1
 8000cac:	2284      	movs	r2, #132	; 0x84
 8000cae:	0192      	lsls	r2, r2, #6
 8000cb0:	601a      	str	r2, [r3, #0]
	GPIO_InitStruct.Mode = GPIO_MODE_IT_FALLING;
 8000cb2:	187b      	adds	r3, r7, r1
 8000cb4:	4a1d      	ldr	r2, [pc, #116]	; (8000d2c <MX_GPIO_Init+0x180>)
 8000cb6:	605a      	str	r2, [r3, #4]
	GPIO_InitStruct.Pull = GPIO_PULLUP;
 8000cb8:	187b      	adds	r3, r7, r1
 8000cba:	2201      	movs	r2, #1
 8000cbc:	609a      	str	r2, [r3, #8]
	HAL_GPIO_Init(GPIOB, &GPIO_InitStruct);
 8000cbe:	000c      	movs	r4, r1
 8000cc0:	187b      	adds	r3, r7, r1
 8000cc2:	4a18      	ldr	r2, [pc, #96]	; (8000d24 <MX_GPIO_Init+0x178>)
 8000cc4:	0019      	movs	r1, r3
 8000cc6:	0010      	movs	r0, r2
 8000cc8:	f002 ff18 	bl	8003afc <HAL_GPIO_Init>

	/*Configure GPIO pin : LED1_Pin */
	GPIO_InitStruct.Pin = LED1_Pin;
 8000ccc:	0021      	movs	r1, r4
 8000cce:	187b      	adds	r3, r7, r1
 8000cd0:	2280      	movs	r2, #128	; 0x80
 8000cd2:	0092      	lsls	r2, r2, #2
 8000cd4:	601a      	str	r2, [r3, #0]
	GPIO_InitStruct.Mode = GPIO_MODE_OUTPUT_PP;
 8000cd6:	187b      	adds	r3, r7, r1
 8000cd8:	2201      	movs	r2, #1
 8000cda:	605a      	str	r2, [r3, #4]
	GPIO_InitStruct.Pull = GPIO_NOPULL;
 8000cdc:	187b      	adds	r3, r7, r1
 8000cde:	2200      	movs	r2, #0
 8000ce0:	609a      	str	r2, [r3, #8]
	GPIO_InitStruct.Speed = GPIO_SPEED_FREQ_LOW;
 8000ce2:	187b      	adds	r3, r7, r1
 8000ce4:	2200      	movs	r2, #0
 8000ce6:	60da      	str	r2, [r3, #12]
	HAL_GPIO_Init(LED1_GPIO_Port, &GPIO_InitStruct);
 8000ce8:	187b      	adds	r3, r7, r1
 8000cea:	4a0e      	ldr	r2, [pc, #56]	; (8000d24 <MX_GPIO_Init+0x178>)
 8000cec:	0019      	movs	r1, r3
 8000cee:	0010      	movs	r0, r2
 8000cf0:	f002 ff04 	bl	8003afc <HAL_GPIO_Init>

	/* EXTI interrupt init*/
	HAL_NVIC_SetPriority(EXTI0_1_IRQn, 1, 0);
 8000cf4:	2200      	movs	r2, #0
 8000cf6:	2101      	movs	r1, #1
 8000cf8:	2005      	movs	r0, #5
 8000cfa:	f001 facb 	bl	8002294 <HAL_NVIC_SetPriority>
	HAL_NVIC_EnableIRQ(EXTI0_1_IRQn);
 8000cfe:	2005      	movs	r0, #5
 8000d00:	f001 fadd 	bl	80022be <HAL_NVIC_EnableIRQ>

	HAL_NVIC_SetPriority(EXTI4_15_IRQn, 1, 0);
 8000d04:	2200      	movs	r2, #0
 8000d06:	2101      	movs	r1, #1
 8000d08:	2007      	movs	r0, #7
 8000d0a:	f001 fac3 	bl	8002294 <HAL_NVIC_SetPriority>
	HAL_NVIC_EnableIRQ(EXTI4_15_IRQn);
 8000d0e:	2007      	movs	r0, #7
 8000d10:	f001 fad5 	bl	80022be <HAL_NVIC_EnableIRQ>

}
 8000d14:	46c0      	nop			; (mov r8, r8)
 8000d16:	46bd      	mov	sp, r7
 8000d18:	b009      	add	sp, #36	; 0x24
 8000d1a:	bd90      	pop	{r4, r7, pc}
 8000d1c:	40021000 	.word	0x40021000
 8000d20:	50000800 	.word	0x50000800
 8000d24:	50000400 	.word	0x50000400
 8000d28:	10110000 	.word	0x10110000
 8000d2c:	10210000 	.word	0x10210000

08000d30 <HAL_GPIO_EXTI_Falling_Callback>:

/* USER CODE BEGIN 4 */

void HAL_GPIO_EXTI_Falling_Callback(uint16_t GPIO_Pin) {
 8000d30:	b590      	push	{r4, r7, lr}
 8000d32:	b083      	sub	sp, #12
 8000d34:	af00      	add	r7, sp, #0
 8000d36:	0002      	movs	r2, r0
 8000d38:	1dbb      	adds	r3, r7, #6
 8000d3a:	801a      	strh	r2, [r3, #0]

	if (recording.enabled || aKeys.pairing) {
 8000d3c:	4b15      	ldr	r3, [pc, #84]	; (8000d94 <HAL_GPIO_EXTI_Falling_Callback+0x64>)
 8000d3e:	781b      	ldrb	r3, [r3, #0]
 8000d40:	b2db      	uxtb	r3, r3
 8000d42:	2b00      	cmp	r3, #0
 8000d44:	d122      	bne.n	8000d8c <HAL_GPIO_EXTI_Falling_Callback+0x5c>
 8000d46:	4b14      	ldr	r3, [pc, #80]	; (8000d98 <HAL_GPIO_EXTI_Falling_Callback+0x68>)
 8000d48:	2282      	movs	r2, #130	; 0x82
 8000d4a:	5c9b      	ldrb	r3, [r3, r2]
 8000d4c:	b2db      	uxtb	r3, r3
 8000d4e:	2b00      	cmp	r3, #0
 8000d50:	d11c      	bne.n	8000d8c <HAL_GPIO_EXTI_Falling_Callback+0x5c>
		return;
	}
	if (GPIO_Pin == PAIR_Pin) {
 8000d52:	1dbb      	adds	r3, r7, #6
 8000d54:	881a      	ldrh	r2, [r3, #0]
 8000d56:	2380      	movs	r3, #128	; 0x80
 8000d58:	019b      	lsls	r3, r3, #6
 8000d5a:	429a      	cmp	r2, r3
 8000d5c:	d104      	bne.n	8000d68 <HAL_GPIO_EXTI_Falling_Callback+0x38>
		// in actual pairing
		aKeys.pairing = 1;
 8000d5e:	4b0e      	ldr	r3, [pc, #56]	; (8000d98 <HAL_GPIO_EXTI_Falling_Callback+0x68>)
 8000d60:	2282      	movs	r2, #130	; 0x82
 8000d62:	2101      	movs	r1, #1
 8000d64:	5499      	strb	r1, [r3, r2]
 8000d66:	e012      	b.n	8000d8e <HAL_GPIO_EXTI_Falling_Callback+0x5e>

	} else if (GPIO_Pin == VIBE_BUTTON_Pin) {
 8000d68:	1dbb      	adds	r3, r7, #6
 8000d6a:	881a      	ldrh	r2, [r3, #0]
 8000d6c:	2380      	movs	r3, #128	; 0x80
 8000d6e:	005b      	lsls	r3, r3, #1
 8000d70:	429a      	cmp	r2, r3
 8000d72:	d10c      	bne.n	8000d8e <HAL_GPIO_EXTI_Falling_Callback+0x5e>
		// on vibe button:
		recording.enabled = 1;
 8000d74:	4b07      	ldr	r3, [pc, #28]	; (8000d94 <HAL_GPIO_EXTI_Falling_Callback+0x64>)
 8000d76:	2201      	movs	r2, #1
 8000d78:	701a      	strb	r2, [r3, #0]
		recording.count = 1;
 8000d7a:	4b06      	ldr	r3, [pc, #24]	; (8000d94 <HAL_GPIO_EXTI_Falling_Callback+0x64>)
 8000d7c:	2201      	movs	r2, #1
 8000d7e:	705a      	strb	r2, [r3, #1]
		recording.data = 1;
 8000d80:	4a04      	ldr	r2, [pc, #16]	; (8000d94 <HAL_GPIO_EXTI_Falling_Callback+0x64>)
 8000d82:	2301      	movs	r3, #1
 8000d84:	2400      	movs	r4, #0
 8000d86:	6093      	str	r3, [r2, #8]
 8000d88:	60d4      	str	r4, [r2, #12]
 8000d8a:	e000      	b.n	8000d8e <HAL_GPIO_EXTI_Falling_Callback+0x5e>
		return;
 8000d8c:	46c0      	nop			; (mov r8, r8)
	}
}
 8000d8e:	46bd      	mov	sp, r7
 8000d90:	b003      	add	sp, #12
 8000d92:	bd90      	pop	{r4, r7, pc}
 8000d94:	20000610 	.word	0x20000610
 8000d98:	20000698 	.word	0x20000698

08000d9c <HAL_GPIO_EXTI_Rising_Callback>:

void HAL_GPIO_EXTI_Rising_Callback(uint16_t GPIO_Pin) {
 8000d9c:	b580      	push	{r7, lr}
 8000d9e:	b082      	sub	sp, #8
 8000da0:	af00      	add	r7, sp, #0
 8000da2:	0002      	movs	r2, r0
 8000da4:	1dbb      	adds	r3, r7, #6
 8000da6:	801a      	strh	r2, [r3, #0]
	if (GPIO_Pin == RADIO_INT_Pin) {
 8000da8:	1dbb      	adds	r3, r7, #6
 8000daa:	881b      	ldrh	r3, [r3, #0]
 8000dac:	2b01      	cmp	r3, #1
 8000dae:	d101      	bne.n	8000db4 <HAL_GPIO_EXTI_Rising_Callback+0x18>
		rfm95_handleInterrupt();
 8000db0:	f000 fd62 	bl	8001878 <rfm95_handleInterrupt>
	}
}
 8000db4:	46c0      	nop			; (mov r8, r8)
 8000db6:	46bd      	mov	sp, r7
 8000db8:	b002      	add	sp, #8
 8000dba:	bd80      	pop	{r7, pc}

08000dbc <HAL_TIM_PeriodElapsedCallback>:

void HAL_TIM_PeriodElapsedCallback(TIM_HandleTypeDef *htim) {
 8000dbc:	b5f0      	push	{r4, r5, r6, r7, lr}
 8000dbe:	b08b      	sub	sp, #44	; 0x2c
 8000dc0:	af00      	add	r7, sp, #0
 8000dc2:	60f8      	str	r0, [r7, #12]
	if (aKeys.pairing) {
 8000dc4:	4bac      	ldr	r3, [pc, #688]	; (8001078 <HAL_TIM_PeriodElapsedCallback+0x2bc>)
 8000dc6:	2282      	movs	r2, #130	; 0x82
 8000dc8:	5c9b      	ldrb	r3, [r3, r2]
 8000dca:	b2db      	uxtb	r3, r3
 8000dcc:	2b00      	cmp	r3, #0
 8000dce:	d006      	beq.n	8000dde <HAL_TIM_PeriodElapsedCallback+0x22>
		HAL_GPIO_TogglePin(LED2_GPIO_Port, LED2_Pin);
 8000dd0:	2380      	movs	r3, #128	; 0x80
 8000dd2:	00db      	lsls	r3, r3, #3
 8000dd4:	4aa9      	ldr	r2, [pc, #676]	; (800107c <HAL_TIM_PeriodElapsedCallback+0x2c0>)
 8000dd6:	0019      	movs	r1, r3
 8000dd8:	0010      	movs	r0, r2
 8000dda:	f003 f82d 	bl	8003e38 <HAL_GPIO_TogglePin>
	}
//	if (aKeys.masterSent) {
//		HAL_GPIO_TogglePin(LED1_GPIO_Port, LED1_Pin);
//	}

	if (htim == &htim16 && (recording.enabled || playback.enabled)) {
 8000dde:	68fa      	ldr	r2, [r7, #12]
 8000de0:	4ba7      	ldr	r3, [pc, #668]	; (8001080 <HAL_TIM_PeriodElapsedCallback+0x2c4>)
 8000de2:	429a      	cmp	r2, r3
 8000de4:	d000      	beq.n	8000de8 <HAL_TIM_PeriodElapsedCallback+0x2c>
 8000de6:	e142      	b.n	800106e <HAL_TIM_PeriodElapsedCallback+0x2b2>
 8000de8:	4ba6      	ldr	r3, [pc, #664]	; (8001084 <HAL_TIM_PeriodElapsedCallback+0x2c8>)
 8000dea:	781b      	ldrb	r3, [r3, #0]
 8000dec:	b2db      	uxtb	r3, r3
 8000dee:	2b00      	cmp	r3, #0
 8000df0:	d105      	bne.n	8000dfe <HAL_TIM_PeriodElapsedCallback+0x42>
 8000df2:	4ba5      	ldr	r3, [pc, #660]	; (8001088 <HAL_TIM_PeriodElapsedCallback+0x2cc>)
 8000df4:	781b      	ldrb	r3, [r3, #0]
 8000df6:	b2db      	uxtb	r3, r3
 8000df8:	2b00      	cmp	r3, #0
 8000dfa:	d100      	bne.n	8000dfe <HAL_TIM_PeriodElapsedCallback+0x42>
 8000dfc:	e137      	b.n	800106e <HAL_TIM_PeriodElapsedCallback+0x2b2>

		if (playback.enabled) {
 8000dfe:	4ba2      	ldr	r3, [pc, #648]	; (8001088 <HAL_TIM_PeriodElapsedCallback+0x2cc>)
 8000e00:	781b      	ldrb	r3, [r3, #0]
 8000e02:	b2db      	uxtb	r3, r3
 8000e04:	2b00      	cmp	r3, #0
 8000e06:	d045      	beq.n	8000e94 <HAL_TIM_PeriodElapsedCallback+0xd8>
			uint8_t state = (playback.data >> (playback.count++)) & 1;
 8000e08:	4b9f      	ldr	r3, [pc, #636]	; (8001088 <HAL_TIM_PeriodElapsedCallback+0x2cc>)
 8000e0a:	68dc      	ldr	r4, [r3, #12]
 8000e0c:	689b      	ldr	r3, [r3, #8]
 8000e0e:	4a9e      	ldr	r2, [pc, #632]	; (8001088 <HAL_TIM_PeriodElapsedCallback+0x2cc>)
 8000e10:	7852      	ldrb	r2, [r2, #1]
 8000e12:	1c51      	adds	r1, r2, #1
 8000e14:	b2c8      	uxtb	r0, r1
 8000e16:	499c      	ldr	r1, [pc, #624]	; (8001088 <HAL_TIM_PeriodElapsedCallback+0x2cc>)
 8000e18:	7048      	strb	r0, [r1, #1]
 8000e1a:	0011      	movs	r1, r2
 8000e1c:	3920      	subs	r1, #32
 8000e1e:	2900      	cmp	r1, #0
 8000e20:	db03      	blt.n	8000e2a <HAL_TIM_PeriodElapsedCallback+0x6e>
 8000e22:	0020      	movs	r0, r4
 8000e24:	40c8      	lsrs	r0, r1
 8000e26:	0005      	movs	r5, r0
 8000e28:	e008      	b.n	8000e3c <HAL_TIM_PeriodElapsedCallback+0x80>
 8000e2a:	2120      	movs	r1, #32
 8000e2c:	1a89      	subs	r1, r1, r2
 8000e2e:	0020      	movs	r0, r4
 8000e30:	4088      	lsls	r0, r1
 8000e32:	0001      	movs	r1, r0
 8000e34:	0018      	movs	r0, r3
 8000e36:	40d0      	lsrs	r0, r2
 8000e38:	0005      	movs	r5, r0
 8000e3a:	430d      	orrs	r5, r1
 8000e3c:	0023      	movs	r3, r4
 8000e3e:	40d3      	lsrs	r3, r2
 8000e40:	001e      	movs	r6, r3
 8000e42:	b2ea      	uxtb	r2, r5
 8000e44:	201f      	movs	r0, #31
 8000e46:	2408      	movs	r4, #8
 8000e48:	193b      	adds	r3, r7, r4
 8000e4a:	181b      	adds	r3, r3, r0
 8000e4c:	2101      	movs	r1, #1
 8000e4e:	400a      	ands	r2, r1
 8000e50:	701a      	strb	r2, [r3, #0]

			TIM1->CCR1 = state ? (DUTY_CYCLE_ON * UINT16_MAX) / 10 : 0;
 8000e52:	4b8e      	ldr	r3, [pc, #568]	; (800108c <HAL_TIM_PeriodElapsedCallback+0x2d0>)
 8000e54:	2200      	movs	r2, #0
 8000e56:	635a      	str	r2, [r3, #52]	; 0x34
			HAL_GPIO_WritePin(LED2_GPIO_Port, LED2_Pin,
 8000e58:	193b      	adds	r3, r7, r4
 8000e5a:	181b      	adds	r3, r3, r0
 8000e5c:	781b      	ldrb	r3, [r3, #0]
 8000e5e:	1e5a      	subs	r2, r3, #1
 8000e60:	4193      	sbcs	r3, r2
 8000e62:	b2db      	uxtb	r3, r3
 8000e64:	001a      	movs	r2, r3
 8000e66:	2380      	movs	r3, #128	; 0x80
 8000e68:	00db      	lsls	r3, r3, #3
 8000e6a:	4884      	ldr	r0, [pc, #528]	; (800107c <HAL_TIM_PeriodElapsedCallback+0x2c0>)
 8000e6c:	0019      	movs	r1, r3
 8000e6e:	f002 ffc6 	bl	8003dfe <HAL_GPIO_WritePin>
					(state ? GPIO_PIN_SET : GPIO_PIN_RESET));

			if (playback.count >= sizeof(playback.data) * 8) {
 8000e72:	4b85      	ldr	r3, [pc, #532]	; (8001088 <HAL_TIM_PeriodElapsedCallback+0x2cc>)
 8000e74:	785b      	ldrb	r3, [r3, #1]
 8000e76:	2b3f      	cmp	r3, #63	; 0x3f
 8000e78:	d90c      	bls.n	8000e94 <HAL_TIM_PeriodElapsedCallback+0xd8>
				playback.enabled = 0;
 8000e7a:	4b83      	ldr	r3, [pc, #524]	; (8001088 <HAL_TIM_PeriodElapsedCallback+0x2cc>)
 8000e7c:	2200      	movs	r2, #0
 8000e7e:	701a      	strb	r2, [r3, #0]
				HAL_GPIO_WritePin(LED2_GPIO_Port, LED2_Pin, GPIO_PIN_RESET);
 8000e80:	2380      	movs	r3, #128	; 0x80
 8000e82:	00db      	lsls	r3, r3, #3
 8000e84:	487d      	ldr	r0, [pc, #500]	; (800107c <HAL_TIM_PeriodElapsedCallback+0x2c0>)
 8000e86:	2200      	movs	r2, #0
 8000e88:	0019      	movs	r1, r3
 8000e8a:	f002 ffb8 	bl	8003dfe <HAL_GPIO_WritePin>
				TIM1->CCR1 = 0;
 8000e8e:	4b7f      	ldr	r3, [pc, #508]	; (800108c <HAL_TIM_PeriodElapsedCallback+0x2d0>)
 8000e90:	2200      	movs	r2, #0
 8000e92:	635a      	str	r2, [r3, #52]	; 0x34
			}
		}

		if (recording.enabled) {
 8000e94:	4b7b      	ldr	r3, [pc, #492]	; (8001084 <HAL_TIM_PeriodElapsedCallback+0x2c8>)
 8000e96:	781b      	ldrb	r3, [r3, #0]
 8000e98:	b2db      	uxtb	r3, r3
 8000e9a:	2b00      	cmp	r3, #0
 8000e9c:	d100      	bne.n	8000ea0 <HAL_TIM_PeriodElapsedCallback+0xe4>
 8000e9e:	e0e6      	b.n	800106e <HAL_TIM_PeriodElapsedCallback+0x2b2>
			uint64_t read = (
					HAL_GPIO_ReadPin(VIBE_BUTTON_GPIO_Port, VIBE_BUTTON_Pin)
 8000ea0:	2380      	movs	r3, #128	; 0x80
 8000ea2:	005b      	lsls	r3, r3, #1
 8000ea4:	4a7a      	ldr	r2, [pc, #488]	; (8001090 <HAL_TIM_PeriodElapsedCallback+0x2d4>)
 8000ea6:	0019      	movs	r1, r3
 8000ea8:	0010      	movs	r0, r2
 8000eaa:	f002 ff8b 	bl	8003dc4 <HAL_GPIO_ReadPin>
 8000eae:	0003      	movs	r3, r0
							== GPIO_PIN_RESET ? 1 : 0);
 8000eb0:	425a      	negs	r2, r3
 8000eb2:	4153      	adcs	r3, r2
 8000eb4:	b2db      	uxtb	r3, r3
			uint64_t read = (
 8000eb6:	61bb      	str	r3, [r7, #24]
 8000eb8:	2300      	movs	r3, #0
 8000eba:	61fb      	str	r3, [r7, #28]
			uint64_t state = read << (recording.count++);
 8000ebc:	4b71      	ldr	r3, [pc, #452]	; (8001084 <HAL_TIM_PeriodElapsedCallback+0x2c8>)
 8000ebe:	785b      	ldrb	r3, [r3, #1]
 8000ec0:	1c5a      	adds	r2, r3, #1
 8000ec2:	b2d1      	uxtb	r1, r2
 8000ec4:	4a6f      	ldr	r2, [pc, #444]	; (8001084 <HAL_TIM_PeriodElapsedCallback+0x2c8>)
 8000ec6:	7051      	strb	r1, [r2, #1]
 8000ec8:	001a      	movs	r2, r3
 8000eca:	3a20      	subs	r2, #32
 8000ecc:	2a00      	cmp	r2, #0
 8000ece:	db04      	blt.n	8000eda <HAL_TIM_PeriodElapsedCallback+0x11e>
 8000ed0:	69b9      	ldr	r1, [r7, #24]
 8000ed2:	4091      	lsls	r1, r2
 8000ed4:	000a      	movs	r2, r1
 8000ed6:	617a      	str	r2, [r7, #20]
 8000ed8:	e008      	b.n	8000eec <HAL_TIM_PeriodElapsedCallback+0x130>
 8000eda:	2220      	movs	r2, #32
 8000edc:	1ad2      	subs	r2, r2, r3
 8000ede:	69b9      	ldr	r1, [r7, #24]
 8000ee0:	40d1      	lsrs	r1, r2
 8000ee2:	000a      	movs	r2, r1
 8000ee4:	69f9      	ldr	r1, [r7, #28]
 8000ee6:	4099      	lsls	r1, r3
 8000ee8:	430a      	orrs	r2, r1
 8000eea:	617a      	str	r2, [r7, #20]
 8000eec:	69ba      	ldr	r2, [r7, #24]
 8000eee:	409a      	lsls	r2, r3
 8000ef0:	0013      	movs	r3, r2
 8000ef2:	613b      	str	r3, [r7, #16]
			recording.data |= state;
 8000ef4:	4b63      	ldr	r3, [pc, #396]	; (8001084 <HAL_TIM_PeriodElapsedCallback+0x2c8>)
 8000ef6:	68dc      	ldr	r4, [r3, #12]
 8000ef8:	689b      	ldr	r3, [r3, #8]
 8000efa:	693a      	ldr	r2, [r7, #16]
 8000efc:	431a      	orrs	r2, r3
 8000efe:	603a      	str	r2, [r7, #0]
 8000f00:	697a      	ldr	r2, [r7, #20]
 8000f02:	4322      	orrs	r2, r4
 8000f04:	607a      	str	r2, [r7, #4]
 8000f06:	4b5f      	ldr	r3, [pc, #380]	; (8001084 <HAL_TIM_PeriodElapsedCallback+0x2c8>)
 8000f08:	6839      	ldr	r1, [r7, #0]
 8000f0a:	687a      	ldr	r2, [r7, #4]
 8000f0c:	6099      	str	r1, [r3, #8]
 8000f0e:	60da      	str	r2, [r3, #12]
			if (recording.count >= sizeof(recording.data) * 8) {
 8000f10:	4b5c      	ldr	r3, [pc, #368]	; (8001084 <HAL_TIM_PeriodElapsedCallback+0x2c8>)
 8000f12:	785b      	ldrb	r3, [r3, #1]
 8000f14:	2b3f      	cmp	r3, #63	; 0x3f
 8000f16:	d800      	bhi.n	8000f1a <HAL_TIM_PeriodElapsedCallback+0x15e>
 8000f18:	e0a9      	b.n	800106e <HAL_TIM_PeriodElapsedCallback+0x2b2>
				// packet should be formed & sent here

				outgoing.deviceID = DEVICE_ID;
 8000f1a:	4b5e      	ldr	r3, [pc, #376]	; (8001094 <HAL_TIM_PeriodElapsedCallback+0x2d8>)
 8000f1c:	2201      	movs	r2, #1
 8000f1e:	705a      	strb	r2, [r3, #1]
				outgoing.preamble = VIBE_PREAMBLE;
 8000f20:	4b5c      	ldr	r3, [pc, #368]	; (8001094 <HAL_TIM_PeriodElapsedCallback+0x2d8>)
 8000f22:	22f0      	movs	r2, #240	; 0xf0
 8000f24:	701a      	strb	r2, [r3, #0]
				outgoing.sequenceNumber = ++deviceSeqs[DEVICE_ID];
 8000f26:	4b5c      	ldr	r3, [pc, #368]	; (8001098 <HAL_TIM_PeriodElapsedCallback+0x2dc>)
 8000f28:	685b      	ldr	r3, [r3, #4]
 8000f2a:	1c5a      	adds	r2, r3, #1
 8000f2c:	4b5a      	ldr	r3, [pc, #360]	; (8001098 <HAL_TIM_PeriodElapsedCallback+0x2dc>)
 8000f2e:	605a      	str	r2, [r3, #4]
 8000f30:	4b59      	ldr	r3, [pc, #356]	; (8001098 <HAL_TIM_PeriodElapsedCallback+0x2dc>)
 8000f32:	685a      	ldr	r2, [r3, #4]
 8000f34:	4b57      	ldr	r3, [pc, #348]	; (8001094 <HAL_TIM_PeriodElapsedCallback+0x2d8>)
 8000f36:	3302      	adds	r3, #2
 8000f38:	21ff      	movs	r1, #255	; 0xff
 8000f3a:	4011      	ands	r1, r2
 8000f3c:	000c      	movs	r4, r1
 8000f3e:	7819      	ldrb	r1, [r3, #0]
 8000f40:	2000      	movs	r0, #0
 8000f42:	4001      	ands	r1, r0
 8000f44:	1c08      	adds	r0, r1, #0
 8000f46:	1c21      	adds	r1, r4, #0
 8000f48:	4301      	orrs	r1, r0
 8000f4a:	7019      	strb	r1, [r3, #0]
 8000f4c:	0a11      	lsrs	r1, r2, #8
 8000f4e:	20ff      	movs	r0, #255	; 0xff
 8000f50:	4001      	ands	r1, r0
 8000f52:	000c      	movs	r4, r1
 8000f54:	7859      	ldrb	r1, [r3, #1]
 8000f56:	2000      	movs	r0, #0
 8000f58:	4001      	ands	r1, r0
 8000f5a:	1c08      	adds	r0, r1, #0
 8000f5c:	1c21      	adds	r1, r4, #0
 8000f5e:	4301      	orrs	r1, r0
 8000f60:	7059      	strb	r1, [r3, #1]
 8000f62:	0c11      	lsrs	r1, r2, #16
 8000f64:	20ff      	movs	r0, #255	; 0xff
 8000f66:	4001      	ands	r1, r0
 8000f68:	000c      	movs	r4, r1
 8000f6a:	7899      	ldrb	r1, [r3, #2]
 8000f6c:	2000      	movs	r0, #0
 8000f6e:	4001      	ands	r1, r0
 8000f70:	1c08      	adds	r0, r1, #0
 8000f72:	1c21      	adds	r1, r4, #0
 8000f74:	4301      	orrs	r1, r0
 8000f76:	7099      	strb	r1, [r3, #2]
 8000f78:	0e10      	lsrs	r0, r2, #24
 8000f7a:	78da      	ldrb	r2, [r3, #3]
 8000f7c:	2100      	movs	r1, #0
 8000f7e:	400a      	ands	r2, r1
 8000f80:	1c11      	adds	r1, r2, #0
 8000f82:	1c02      	adds	r2, r0, #0
 8000f84:	430a      	orrs	r2, r1
 8000f86:	70da      	strb	r2, [r3, #3]
				outgoing.data = recording.data;
 8000f88:	4b3e      	ldr	r3, [pc, #248]	; (8001084 <HAL_TIM_PeriodElapsedCallback+0x2c8>)
 8000f8a:	6899      	ldr	r1, [r3, #8]
 8000f8c:	68da      	ldr	r2, [r3, #12]
 8000f8e:	4b41      	ldr	r3, [pc, #260]	; (8001094 <HAL_TIM_PeriodElapsedCallback+0x2d8>)
 8000f90:	3306      	adds	r3, #6
 8000f92:	20ff      	movs	r0, #255	; 0xff
 8000f94:	4008      	ands	r0, r1
 8000f96:	0005      	movs	r5, r0
 8000f98:	7818      	ldrb	r0, [r3, #0]
 8000f9a:	2400      	movs	r4, #0
 8000f9c:	4020      	ands	r0, r4
 8000f9e:	1c04      	adds	r4, r0, #0
 8000fa0:	1c28      	adds	r0, r5, #0
 8000fa2:	4320      	orrs	r0, r4
 8000fa4:	7018      	strb	r0, [r3, #0]
 8000fa6:	0a08      	lsrs	r0, r1, #8
 8000fa8:	24ff      	movs	r4, #255	; 0xff
 8000faa:	4020      	ands	r0, r4
 8000fac:	0005      	movs	r5, r0
 8000fae:	7858      	ldrb	r0, [r3, #1]
 8000fb0:	2400      	movs	r4, #0
 8000fb2:	4020      	ands	r0, r4
 8000fb4:	1c04      	adds	r4, r0, #0
 8000fb6:	1c28      	adds	r0, r5, #0
 8000fb8:	4320      	orrs	r0, r4
 8000fba:	7058      	strb	r0, [r3, #1]
 8000fbc:	0c08      	lsrs	r0, r1, #16
 8000fbe:	24ff      	movs	r4, #255	; 0xff
 8000fc0:	4020      	ands	r0, r4
 8000fc2:	0005      	movs	r5, r0
 8000fc4:	7898      	ldrb	r0, [r3, #2]
 8000fc6:	2400      	movs	r4, #0
 8000fc8:	4020      	ands	r0, r4
 8000fca:	1c04      	adds	r4, r0, #0
 8000fcc:	1c28      	adds	r0, r5, #0
 8000fce:	4320      	orrs	r0, r4
 8000fd0:	7098      	strb	r0, [r3, #2]
 8000fd2:	0e0d      	lsrs	r5, r1, #24
 8000fd4:	78d8      	ldrb	r0, [r3, #3]
 8000fd6:	2400      	movs	r4, #0
 8000fd8:	4020      	ands	r0, r4
 8000fda:	1c04      	adds	r4, r0, #0
 8000fdc:	1c28      	adds	r0, r5, #0
 8000fde:	4320      	orrs	r0, r4
 8000fe0:	70d8      	strb	r0, [r3, #3]
 8000fe2:	20ff      	movs	r0, #255	; 0xff
 8000fe4:	4010      	ands	r0, r2
 8000fe6:	0005      	movs	r5, r0
 8000fe8:	7918      	ldrb	r0, [r3, #4]
 8000fea:	2400      	movs	r4, #0
 8000fec:	4020      	ands	r0, r4
 8000fee:	1c04      	adds	r4, r0, #0
 8000ff0:	1c28      	adds	r0, r5, #0
 8000ff2:	4320      	orrs	r0, r4
 8000ff4:	7118      	strb	r0, [r3, #4]
 8000ff6:	0a10      	lsrs	r0, r2, #8
 8000ff8:	24ff      	movs	r4, #255	; 0xff
 8000ffa:	4020      	ands	r0, r4
 8000ffc:	0005      	movs	r5, r0
 8000ffe:	7958      	ldrb	r0, [r3, #5]
 8001000:	2400      	movs	r4, #0
 8001002:	4020      	ands	r0, r4
 8001004:	1c04      	adds	r4, r0, #0
 8001006:	1c28      	adds	r0, r5, #0
 8001008:	4320      	orrs	r0, r4
 800100a:	7158      	strb	r0, [r3, #5]
 800100c:	0c10      	lsrs	r0, r2, #16
 800100e:	24ff      	movs	r4, #255	; 0xff
 8001010:	4020      	ands	r0, r4
 8001012:	0005      	movs	r5, r0
 8001014:	7998      	ldrb	r0, [r3, #6]
 8001016:	2400      	movs	r4, #0
 8001018:	4020      	ands	r0, r4
 800101a:	1c04      	adds	r4, r0, #0
 800101c:	1c28      	adds	r0, r5, #0
 800101e:	4320      	orrs	r0, r4
 8001020:	7198      	strb	r0, [r3, #6]
 8001022:	0e10      	lsrs	r0, r2, #24
 8001024:	79da      	ldrb	r2, [r3, #7]
 8001026:	2100      	movs	r1, #0
 8001028:	400a      	ands	r2, r1
 800102a:	1c11      	adds	r1, r2, #0
 800102c:	1c02      	adds	r2, r0, #0
 800102e:	430a      	orrs	r2, r1
 8001030:	71da      	strb	r2, [r3, #7]

				playback.data = recording.data;
 8001032:	4b14      	ldr	r3, [pc, #80]	; (8001084 <HAL_TIM_PeriodElapsedCallback+0x2c8>)
 8001034:	68dc      	ldr	r4, [r3, #12]
 8001036:	689b      	ldr	r3, [r3, #8]
 8001038:	4a13      	ldr	r2, [pc, #76]	; (8001088 <HAL_TIM_PeriodElapsedCallback+0x2cc>)
 800103a:	6093      	str	r3, [r2, #8]
 800103c:	60d4      	str	r4, [r2, #12]
				playback.enabled = 1;
 800103e:	4b12      	ldr	r3, [pc, #72]	; (8001088 <HAL_TIM_PeriodElapsedCallback+0x2cc>)
 8001040:	2201      	movs	r2, #1
 8001042:	701a      	strb	r2, [r3, #0]
				playback.count = 0;
 8001044:	4b10      	ldr	r3, [pc, #64]	; (8001088 <HAL_TIM_PeriodElapsedCallback+0x2cc>)
 8001046:	2200      	movs	r2, #0
 8001048:	705a      	strb	r2, [r3, #1]
				recording.enabled = 0;
 800104a:	4b0e      	ldr	r3, [pc, #56]	; (8001084 <HAL_TIM_PeriodElapsedCallback+0x2c8>)
 800104c:	2200      	movs	r2, #0
 800104e:	701a      	strb	r2, [r3, #0]
				if (state) {
 8001050:	693b      	ldr	r3, [r7, #16]
 8001052:	697a      	ldr	r2, [r7, #20]
 8001054:	4313      	orrs	r3, r2
 8001056:	d00a      	beq.n	800106e <HAL_TIM_PeriodElapsedCallback+0x2b2>
					recording.enabled = 1;
 8001058:	4b0a      	ldr	r3, [pc, #40]	; (8001084 <HAL_TIM_PeriodElapsedCallback+0x2c8>)
 800105a:	2201      	movs	r2, #1
 800105c:	701a      	strb	r2, [r3, #0]
					recording.count = 1;
 800105e:	4b09      	ldr	r3, [pc, #36]	; (8001084 <HAL_TIM_PeriodElapsedCallback+0x2c8>)
 8001060:	2201      	movs	r2, #1
 8001062:	705a      	strb	r2, [r3, #1]
					recording.data = 1;
 8001064:	4a07      	ldr	r2, [pc, #28]	; (8001084 <HAL_TIM_PeriodElapsedCallback+0x2c8>)
 8001066:	2301      	movs	r3, #1
 8001068:	2400      	movs	r4, #0
 800106a:	6093      	str	r3, [r2, #8]
 800106c:	60d4      	str	r4, [r2, #12]
				}

			}
		}
	}
}
 800106e:	46c0      	nop			; (mov r8, r8)
 8001070:	46bd      	mov	sp, r7
 8001072:	b00b      	add	sp, #44	; 0x2c
 8001074:	bdf0      	pop	{r4, r5, r6, r7, pc}
 8001076:	46c0      	nop			; (mov r8, r8)
 8001078:	20000698 	.word	0x20000698
 800107c:	50000800 	.word	0x50000800
 8001080:	2000072c 	.word	0x2000072c
 8001084:	20000610 	.word	0x20000610
 8001088:	20000578 	.word	0x20000578
 800108c:	40012c00 	.word	0x40012c00
 8001090:	50000400 	.word	0x50000400
 8001094:	20000884 	.word	0x20000884
 8001098:	20000124 	.word	0x20000124

0800109c <readingCallback>:

static void readingCallback(uint8_t *buffer, uint8_t length) {
 800109c:	b5b0      	push	{r4, r5, r7, lr}
 800109e:	b09a      	sub	sp, #104	; 0x68
 80010a0:	af02      	add	r7, sp, #8
 80010a2:	6078      	str	r0, [r7, #4]
 80010a4:	000a      	movs	r2, r1
 80010a6:	1cfb      	adds	r3, r7, #3
 80010a8:	701a      	strb	r2, [r3, #0]
	if (aKeys.pairing && length == sizeof(PublicKeyPacket)) {
 80010aa:	4b70      	ldr	r3, [pc, #448]	; (800126c <readingCallback+0x1d0>)
 80010ac:	2282      	movs	r2, #130	; 0x82
 80010ae:	5c9b      	ldrb	r3, [r3, r2]
 80010b0:	b2db      	uxtb	r3, r3
 80010b2:	2b00      	cmp	r3, #0
 80010b4:	d025      	beq.n	8001102 <readingCallback+0x66>
 80010b6:	1cfb      	adds	r3, r7, #3
 80010b8:	781b      	ldrb	r3, [r3, #0]
 80010ba:	2b21      	cmp	r3, #33	; 0x21
 80010bc:	d121      	bne.n	8001102 <readingCallback+0x66>
		PublicKeyPacket tmp;
		tmp.preamble = 0;
 80010be:	2008      	movs	r0, #8
 80010c0:	183b      	adds	r3, r7, r0
 80010c2:	2200      	movs	r2, #0
 80010c4:	701a      	strb	r2, [r3, #0]
		memcpy(&tmp, buffer, length);
 80010c6:	1cfb      	adds	r3, r7, #3
 80010c8:	781a      	ldrb	r2, [r3, #0]
 80010ca:	6879      	ldr	r1, [r7, #4]
 80010cc:	0004      	movs	r4, r0
 80010ce:	183b      	adds	r3, r7, r0
 80010d0:	0018      	movs	r0, r3
 80010d2:	f007 f9b5 	bl	8008440 <memcpy>
		if (tmp.preamble == PUBLIC_EXCHANGE_PREAMBLE) {
 80010d6:	0020      	movs	r0, r4
 80010d8:	183b      	adds	r3, r7, r0
 80010da:	781b      	ldrb	r3, [r3, #0]
 80010dc:	2b55      	cmp	r3, #85	; 0x55
 80010de:	d000      	beq.n	80010e2 <readingCallback+0x46>
 80010e0:	e0bf      	b.n	8001262 <readingCallback+0x1c6>
			memcpy(aKeys.otherPublicKey, tmp.data, 32);
 80010e2:	4a62      	ldr	r2, [pc, #392]	; (800126c <readingCallback+0x1d0>)
 80010e4:	2308      	movs	r3, #8
 80010e6:	18fb      	adds	r3, r7, r3
 80010e8:	2101      	movs	r1, #1
 80010ea:	3240      	adds	r2, #64	; 0x40
 80010ec:	0010      	movs	r0, r2
 80010ee:	185b      	adds	r3, r3, r1
 80010f0:	2220      	movs	r2, #32
 80010f2:	0019      	movs	r1, r3
 80010f4:	f007 f9a4 	bl	8008440 <memcpy>
			aKeys.gotOther = 1;
 80010f8:	4b5c      	ldr	r3, [pc, #368]	; (800126c <readingCallback+0x1d0>)
 80010fa:	2280      	movs	r2, #128	; 0x80
 80010fc:	2101      	movs	r1, #1
 80010fe:	5499      	strb	r1, [r3, r2]
	if (aKeys.pairing && length == sizeof(PublicKeyPacket)) {
 8001100:	e0af      	b.n	8001262 <readingCallback+0x1c6>
		}
	} else if (!MASTER_DEVICE && length == 32 && aKeys.masterSent) {
 8001102:	1cfb      	adds	r3, r7, #3
 8001104:	781b      	ldrb	r3, [r3, #0]
 8001106:	2b20      	cmp	r3, #32
 8001108:	d160      	bne.n	80011cc <readingCallback+0x130>
 800110a:	4b58      	ldr	r3, [pc, #352]	; (800126c <readingCallback+0x1d0>)
 800110c:	2281      	movs	r2, #129	; 0x81
 800110e:	5c9b      	ldrb	r3, [r3, r2]
 8001110:	b2db      	uxtb	r3, r3
 8001112:	2b00      	cmp	r3, #0
 8001114:	d05a      	beq.n	80011cc <readingCallback+0x130>
		// try to decrypt with shared secret
		uint32_t oldPkeys[4] = { 0 };
 8001116:	2450      	movs	r4, #80	; 0x50
 8001118:	193b      	adds	r3, r7, r4
 800111a:	0018      	movs	r0, r3
 800111c:	2310      	movs	r3, #16
 800111e:	001a      	movs	r2, r3
 8001120:	2100      	movs	r1, #0
 8001122:	f007 f996 	bl	8008452 <memset>

		memcpy(oldPkeys, pKeyAES, AESKeySize);
 8001126:	193b      	adds	r3, r7, r4
 8001128:	4a51      	ldr	r2, [pc, #324]	; (8001270 <readingCallback+0x1d4>)
 800112a:	ca13      	ldmia	r2!, {r0, r1, r4}
 800112c:	c313      	stmia	r3!, {r0, r1, r4}
 800112e:	6812      	ldr	r2, [r2, #0]
 8001130:	601a      	str	r2, [r3, #0]
		memcpy(pKeyAES, aKeys.sharedSecret, AESKeySize);
 8001132:	4a4f      	ldr	r2, [pc, #316]	; (8001270 <readingCallback+0x1d4>)
 8001134:	4b4d      	ldr	r3, [pc, #308]	; (800126c <readingCallback+0x1d0>)
 8001136:	3360      	adds	r3, #96	; 0x60
 8001138:	cb13      	ldmia	r3!, {r0, r1, r4}
 800113a:	c213      	stmia	r2!, {r0, r1, r4}
 800113c:	681b      	ldr	r3, [r3, #0]
 800113e:	6013      	str	r3, [r2, #0]
		MX_AES_Init();
 8001140:	f7ff fbb6 	bl	80008b0 <MX_AES_Init>

		uint8_t decryptRes[32] = { 0 };
 8001144:	2408      	movs	r4, #8
 8001146:	193b      	adds	r3, r7, r4
 8001148:	0018      	movs	r0, r3
 800114a:	2320      	movs	r3, #32
 800114c:	001a      	movs	r2, r3
 800114e:	2100      	movs	r1, #0
 8001150:	f007 f97f 	bl	8008452 <memset>
		if (HAL_CRYP_Decrypt(&hcryp, buffer, length, decryptRes, 1) == HAL_OK) {
 8001154:	1cfb      	adds	r3, r7, #3
 8001156:	781b      	ldrb	r3, [r3, #0]
 8001158:	b29a      	uxth	r2, r3
 800115a:	193c      	adds	r4, r7, r4
 800115c:	6879      	ldr	r1, [r7, #4]
 800115e:	4845      	ldr	r0, [pc, #276]	; (8001274 <readingCallback+0x1d8>)
 8001160:	2301      	movs	r3, #1
 8001162:	9300      	str	r3, [sp, #0]
 8001164:	0023      	movs	r3, r4
 8001166:	f001 fa79 	bl	800265c <HAL_CRYP_Decrypt>
 800116a:	1e03      	subs	r3, r0, #0
 800116c:	d124      	bne.n	80011b8 <readingCallback+0x11c>
			KeyExchangePacket tmp;
			tmp.preamble = 0;
 800116e:	213c      	movs	r1, #60	; 0x3c
 8001170:	187b      	adds	r3, r7, r1
 8001172:	2200      	movs	r2, #0
 8001174:	701a      	strb	r2, [r3, #0]
			memcpy(&tmp, decryptRes, sizeof(decryptRes));
 8001176:	187b      	adds	r3, r7, r1
 8001178:	2208      	movs	r2, #8
 800117a:	18ba      	adds	r2, r7, r2
 800117c:	ca31      	ldmia	r2!, {r0, r4, r5}
 800117e:	c331      	stmia	r3!, {r0, r4, r5}
 8001180:	ca31      	ldmia	r2!, {r0, r4, r5}
 8001182:	c331      	stmia	r3!, {r0, r4, r5}
 8001184:	ca11      	ldmia	r2!, {r0, r4}
 8001186:	c311      	stmia	r3!, {r0, r4}
			if (tmp.preamble == AES_KEY_EXCHANGE_PREAMBLE) {
 8001188:	187b      	adds	r3, r7, r1
 800118a:	781b      	ldrb	r3, [r3, #0]
 800118c:	2baa      	cmp	r3, #170	; 0xaa
 800118e:	d11a      	bne.n	80011c6 <readingCallback+0x12a>
				writeKeyToFlash((uint64_t*) tmp.data, &EraseInitStruct);
 8001190:	4a39      	ldr	r2, [pc, #228]	; (8001278 <readingCallback+0x1dc>)
 8001192:	243c      	movs	r4, #60	; 0x3c
 8001194:	193b      	adds	r3, r7, r4
 8001196:	3301      	adds	r3, #1
 8001198:	0011      	movs	r1, r2
 800119a:	0018      	movs	r0, r3
 800119c:	f000 f897 	bl	80012ce <writeKeyToFlash>

				memcpy(pKeyAES, tmp.data, AESKeySize);
 80011a0:	193b      	adds	r3, r7, r4
 80011a2:	1c59      	adds	r1, r3, #1
 80011a4:	4b32      	ldr	r3, [pc, #200]	; (8001270 <readingCallback+0x1d4>)
 80011a6:	2210      	movs	r2, #16
 80011a8:	0018      	movs	r0, r3
 80011aa:	f007 f949 	bl	8008440 <memcpy>
				// We don't necessarily have to have this here -- we can let it keep writing
				aKeys.masterSent = 0;
 80011ae:	4b2f      	ldr	r3, [pc, #188]	; (800126c <readingCallback+0x1d0>)
 80011b0:	2281      	movs	r2, #129	; 0x81
 80011b2:	2100      	movs	r1, #0
 80011b4:	5499      	strb	r1, [r3, r2]
 80011b6:	e006      	b.n	80011c6 <readingCallback+0x12a>
			}
		} else {
			memcpy(pKeyAES, oldPkeys, AESKeySize);
 80011b8:	4b2d      	ldr	r3, [pc, #180]	; (8001270 <readingCallback+0x1d4>)
 80011ba:	2250      	movs	r2, #80	; 0x50
 80011bc:	18ba      	adds	r2, r7, r2
 80011be:	ca13      	ldmia	r2!, {r0, r1, r4}
 80011c0:	c313      	stmia	r3!, {r0, r1, r4}
 80011c2:	6812      	ldr	r2, [r2, #0]
 80011c4:	601a      	str	r2, [r3, #0]
		}
		MX_AES_Init();
 80011c6:	f7ff fb73 	bl	80008b0 <MX_AES_Init>
	} else if (!MASTER_DEVICE && length == 32 && aKeys.masterSent) {
 80011ca:	e04b      	b.n	8001264 <readingCallback+0x1c8>
	} else if (length == sizeof(Packet)) {
 80011cc:	1cfb      	adds	r3, r7, #3
 80011ce:	781b      	ldrb	r3, [r3, #0]
 80011d0:	2b10      	cmp	r3, #16
 80011d2:	d147      	bne.n	8001264 <readingCallback+0x1c8>
		Packet tmp;
		tmp.preamble = 0;
 80011d4:	212c      	movs	r1, #44	; 0x2c
 80011d6:	187b      	adds	r3, r7, r1
 80011d8:	2200      	movs	r2, #0
 80011da:	701a      	strb	r2, [r3, #0]
		if (HAL_CRYP_Decrypt(&hcryp, buffer, length, &tmp, 1) == HAL_OK
 80011dc:	1cfb      	adds	r3, r7, #3
 80011de:	781b      	ldrb	r3, [r3, #0]
 80011e0:	b29a      	uxth	r2, r3
 80011e2:	187c      	adds	r4, r7, r1
 80011e4:	6879      	ldr	r1, [r7, #4]
 80011e6:	4823      	ldr	r0, [pc, #140]	; (8001274 <readingCallback+0x1d8>)
 80011e8:	2301      	movs	r3, #1
 80011ea:	9300      	str	r3, [sp, #0]
 80011ec:	0023      	movs	r3, r4
 80011ee:	f001 fa35 	bl	800265c <HAL_CRYP_Decrypt>
 80011f2:	1e03      	subs	r3, r0, #0
 80011f4:	d136      	bne.n	8001264 <readingCallback+0x1c8>
				&& tmp.preamble == VIBE_PREAMBLE
 80011f6:	232c      	movs	r3, #44	; 0x2c
 80011f8:	18fb      	adds	r3, r7, r3
 80011fa:	781b      	ldrb	r3, [r3, #0]
 80011fc:	2bf0      	cmp	r3, #240	; 0xf0
 80011fe:	d131      	bne.n	8001264 <readingCallback+0x1c8>
				&& tmp.sequenceNumber > deviceSeqs[tmp.deviceID]) {
 8001200:	202c      	movs	r0, #44	; 0x2c
 8001202:	183b      	adds	r3, r7, r0
 8001204:	885a      	ldrh	r2, [r3, #2]
 8001206:	889b      	ldrh	r3, [r3, #4]
 8001208:	041b      	lsls	r3, r3, #16
 800120a:	4313      	orrs	r3, r2
 800120c:	0019      	movs	r1, r3
 800120e:	183b      	adds	r3, r7, r0
 8001210:	785b      	ldrb	r3, [r3, #1]
 8001212:	001a      	movs	r2, r3
 8001214:	4b19      	ldr	r3, [pc, #100]	; (800127c <readingCallback+0x1e0>)
 8001216:	0092      	lsls	r2, r2, #2
 8001218:	58d3      	ldr	r3, [r2, r3]
 800121a:	4299      	cmp	r1, r3
 800121c:	d922      	bls.n	8001264 <readingCallback+0x1c8>

			playback.data = tmp.data;
 800121e:	252c      	movs	r5, #44	; 0x2c
 8001220:	197b      	adds	r3, r7, r5
 8001222:	88d8      	ldrh	r0, [r3, #6]
 8001224:	891c      	ldrh	r4, [r3, #8]
 8001226:	0424      	lsls	r4, r4, #16
 8001228:	4320      	orrs	r0, r4
 800122a:	0001      	movs	r1, r0
 800122c:	8958      	ldrh	r0, [r3, #10]
 800122e:	899b      	ldrh	r3, [r3, #12]
 8001230:	041b      	lsls	r3, r3, #16
 8001232:	4303      	orrs	r3, r0
 8001234:	001a      	movs	r2, r3
 8001236:	4b12      	ldr	r3, [pc, #72]	; (8001280 <readingCallback+0x1e4>)
 8001238:	6099      	str	r1, [r3, #8]
 800123a:	60da      	str	r2, [r3, #12]
			playback.enabled = 1;
 800123c:	4b10      	ldr	r3, [pc, #64]	; (8001280 <readingCallback+0x1e4>)
 800123e:	2201      	movs	r2, #1
 8001240:	701a      	strb	r2, [r3, #0]
			playback.count = 0;
 8001242:	4b0f      	ldr	r3, [pc, #60]	; (8001280 <readingCallback+0x1e4>)
 8001244:	2200      	movs	r2, #0
 8001246:	705a      	strb	r2, [r3, #1]
			deviceSeqs[tmp.deviceID] = tmp.sequenceNumber;
 8001248:	197b      	adds	r3, r7, r5
 800124a:	785b      	ldrb	r3, [r3, #1]
 800124c:	0018      	movs	r0, r3
 800124e:	197b      	adds	r3, r7, r5
 8001250:	885a      	ldrh	r2, [r3, #2]
 8001252:	889b      	ldrh	r3, [r3, #4]
 8001254:	041b      	lsls	r3, r3, #16
 8001256:	4313      	orrs	r3, r2
 8001258:	0019      	movs	r1, r3
 800125a:	4b08      	ldr	r3, [pc, #32]	; (800127c <readingCallback+0x1e0>)
 800125c:	0082      	lsls	r2, r0, #2
 800125e:	50d1      	str	r1, [r2, r3]

		}
	}
}
 8001260:	e000      	b.n	8001264 <readingCallback+0x1c8>
	if (aKeys.pairing && length == sizeof(PublicKeyPacket)) {
 8001262:	46c0      	nop			; (mov r8, r8)
}
 8001264:	46c0      	nop			; (mov r8, r8)
 8001266:	46bd      	mov	sp, r7
 8001268:	b018      	add	sp, #96	; 0x60
 800126a:	bdb0      	pop	{r4, r5, r7, pc}
 800126c:	20000698 	.word	0x20000698
 8001270:	20000114 	.word	0x20000114
 8001274:	20000778 	.word	0x20000778
 8001278:	20000588 	.word	0x20000588
 800127c:	20000124 	.word	0x20000124
 8001280:	20000578 	.word	0x20000578

08001284 <readKeyFromFlash>:

static void readKeyFromFlash(uint32_t *ptr, FLASH_EraseInitTypeDef *erase) {
 8001284:	b580      	push	{r7, lr}
 8001286:	b084      	sub	sp, #16
 8001288:	af00      	add	r7, sp, #0
 800128a:	6078      	str	r0, [r7, #4]
 800128c:	6039      	str	r1, [r7, #0]

	uint32_t addr = 0x08000000 + FLASH_PAGE_SIZE * erase->Page;
 800128e:	683b      	ldr	r3, [r7, #0]
 8001290:	689b      	ldr	r3, [r3, #8]
 8001292:	2280      	movs	r2, #128	; 0x80
 8001294:	0252      	lsls	r2, r2, #9
 8001296:	4694      	mov	ip, r2
 8001298:	4463      	add	r3, ip
 800129a:	02db      	lsls	r3, r3, #11
 800129c:	60bb      	str	r3, [r7, #8]
	for (int i = 0; i < AESKeySize / sizeof(uint32_t); i++) {
 800129e:	2300      	movs	r3, #0
 80012a0:	60fb      	str	r3, [r7, #12]
 80012a2:	e00d      	b.n	80012c0 <readKeyFromFlash+0x3c>
		ptr[i] = ((uint32_t*) addr)[i];
 80012a4:	68fb      	ldr	r3, [r7, #12]
 80012a6:	009a      	lsls	r2, r3, #2
 80012a8:	68bb      	ldr	r3, [r7, #8]
 80012aa:	18d3      	adds	r3, r2, r3
 80012ac:	001a      	movs	r2, r3
 80012ae:	68fb      	ldr	r3, [r7, #12]
 80012b0:	009b      	lsls	r3, r3, #2
 80012b2:	6879      	ldr	r1, [r7, #4]
 80012b4:	18cb      	adds	r3, r1, r3
 80012b6:	6812      	ldr	r2, [r2, #0]
 80012b8:	601a      	str	r2, [r3, #0]
	for (int i = 0; i < AESKeySize / sizeof(uint32_t); i++) {
 80012ba:	68fb      	ldr	r3, [r7, #12]
 80012bc:	3301      	adds	r3, #1
 80012be:	60fb      	str	r3, [r7, #12]
 80012c0:	68fb      	ldr	r3, [r7, #12]
 80012c2:	2b03      	cmp	r3, #3
 80012c4:	d9ee      	bls.n	80012a4 <readKeyFromFlash+0x20>
	}
}
 80012c6:	46c0      	nop			; (mov r8, r8)
 80012c8:	46bd      	mov	sp, r7
 80012ca:	b004      	add	sp, #16
 80012cc:	bd80      	pop	{r7, pc}

080012ce <writeKeyToFlash>:

static void writeKeyToFlash(uint64_t *ptr, FLASH_EraseInitTypeDef *erase) {
 80012ce:	b590      	push	{r4, r7, lr}
 80012d0:	b08d      	sub	sp, #52	; 0x34
 80012d2:	af00      	add	r7, sp, #0
 80012d4:	6078      	str	r0, [r7, #4]
 80012d6:	6039      	str	r1, [r7, #0]
//801f800
	uint32_t addr = 0x08000000 + FLASH_PAGE_SIZE * erase->Page;
 80012d8:	683b      	ldr	r3, [r7, #0]
 80012da:	689b      	ldr	r3, [r3, #8]
 80012dc:	2280      	movs	r2, #128	; 0x80
 80012de:	0252      	lsls	r2, r2, #9
 80012e0:	4694      	mov	ip, r2
 80012e2:	4463      	add	r3, ip
 80012e4:	02db      	lsls	r3, r3, #11
 80012e6:	62bb      	str	r3, [r7, #40]	; 0x28

	uint32_t pgerr = 0;
 80012e8:	2300      	movs	r3, #0
 80012ea:	61bb      	str	r3, [r7, #24]
	HAL_FLASH_Unlock();
 80012ec:	f002 fab4 	bl	8003858 <HAL_FLASH_Unlock>
	HAL_FLASHEx_Erase(erase, &pgerr);
 80012f0:	2318      	movs	r3, #24
 80012f2:	18fa      	adds	r2, r7, r3
 80012f4:	683b      	ldr	r3, [r7, #0]
 80012f6:	0011      	movs	r1, r2
 80012f8:	0018      	movs	r0, r3
 80012fa:	f002 fb5b 	bl	80039b4 <HAL_FLASHEx_Erase>
	uint64_t alignedtmp[2] = { 0 };
 80012fe:	2408      	movs	r4, #8
 8001300:	193b      	adds	r3, r7, r4
 8001302:	0018      	movs	r0, r3
 8001304:	2310      	movs	r3, #16
 8001306:	001a      	movs	r2, r3
 8001308:	2100      	movs	r1, #0
 800130a:	f007 f8a2 	bl	8008452 <memset>
	memcpy(alignedtmp, ptr, sizeof(alignedtmp));
 800130e:	6879      	ldr	r1, [r7, #4]
 8001310:	193b      	adds	r3, r7, r4
 8001312:	2210      	movs	r2, #16
 8001314:	0018      	movs	r0, r3
 8001316:	f007 f893 	bl	8008440 <memcpy>
	for (int i = 0; i < 2; i++) {
 800131a:	2300      	movs	r3, #0
 800131c:	62fb      	str	r3, [r7, #44]	; 0x2c
 800131e:	e018      	b.n	8001352 <writeKeyToFlash+0x84>
		uint64_t val = alignedtmp[i];
 8001320:	2308      	movs	r3, #8
 8001322:	18fa      	adds	r2, r7, r3
 8001324:	6afb      	ldr	r3, [r7, #44]	; 0x2c
 8001326:	00db      	lsls	r3, r3, #3
 8001328:	18d3      	adds	r3, r2, r3
 800132a:	685c      	ldr	r4, [r3, #4]
 800132c:	681b      	ldr	r3, [r3, #0]
 800132e:	623b      	str	r3, [r7, #32]
 8001330:	627c      	str	r4, [r7, #36]	; 0x24
		uint32_t location = addr + (sizeof(uint64_t)) * i;
 8001332:	6afb      	ldr	r3, [r7, #44]	; 0x2c
 8001334:	00db      	lsls	r3, r3, #3
 8001336:	6aba      	ldr	r2, [r7, #40]	; 0x28
 8001338:	18d3      	adds	r3, r2, r3
 800133a:	61fb      	str	r3, [r7, #28]
		HAL_FLASH_Program(FLASH_TYPEPROGRAM_DOUBLEWORD, location, val);
 800133c:	6a3b      	ldr	r3, [r7, #32]
 800133e:	6a7c      	ldr	r4, [r7, #36]	; 0x24
 8001340:	69f9      	ldr	r1, [r7, #28]
 8001342:	001a      	movs	r2, r3
 8001344:	0023      	movs	r3, r4
 8001346:	2001      	movs	r0, #1
 8001348:	f002 fa36 	bl	80037b8 <HAL_FLASH_Program>
	for (int i = 0; i < 2; i++) {
 800134c:	6afb      	ldr	r3, [r7, #44]	; 0x2c
 800134e:	3301      	adds	r3, #1
 8001350:	62fb      	str	r3, [r7, #44]	; 0x2c
 8001352:	6afb      	ldr	r3, [r7, #44]	; 0x2c
 8001354:	2b01      	cmp	r3, #1
 8001356:	dde3      	ble.n	8001320 <writeKeyToFlash+0x52>
	}
	HAL_FLASH_Lock();
 8001358:	f002 faa2 	bl	80038a0 <HAL_FLASH_Lock>
}
 800135c:	46c0      	nop			; (mov r8, r8)
 800135e:	46bd      	mov	sp, r7
 8001360:	b00d      	add	sp, #52	; 0x34
 8001362:	bd90      	pop	{r4, r7, pc}

08001364 <readSeqFromFlash>:

static uint32_t readSeqFromFlash(FLASH_EraseInitTypeDef *erase) {
 8001364:	b580      	push	{r7, lr}
 8001366:	b084      	sub	sp, #16
 8001368:	af00      	add	r7, sp, #0
 800136a:	6078      	str	r0, [r7, #4]
	uint32_t addr = 0x08000000 + FLASH_PAGE_SIZE * erase->Page;
 800136c:	687b      	ldr	r3, [r7, #4]
 800136e:	689b      	ldr	r3, [r3, #8]
 8001370:	2280      	movs	r2, #128	; 0x80
 8001372:	0252      	lsls	r2, r2, #9
 8001374:	4694      	mov	ip, r2
 8001376:	4463      	add	r3, ip
 8001378:	02db      	lsls	r3, r3, #11
 800137a:	60fb      	str	r3, [r7, #12]
	return *((uint32_t*) addr);
 800137c:	68fb      	ldr	r3, [r7, #12]
 800137e:	681b      	ldr	r3, [r3, #0]
}
 8001380:	0018      	movs	r0, r3
 8001382:	46bd      	mov	sp, r7
 8001384:	b004      	add	sp, #16
 8001386:	bd80      	pop	{r7, pc}

08001388 <writeSeqToFlash>:
static void writeSeqToFlash(uint32_t seq, FLASH_EraseInitTypeDef *erase) {
 8001388:	b5b0      	push	{r4, r5, r7, lr}
 800138a:	b084      	sub	sp, #16
 800138c:	af00      	add	r7, sp, #0
 800138e:	6078      	str	r0, [r7, #4]
 8001390:	6039      	str	r1, [r7, #0]
//801f000
	uint32_t addr = 0x08000000 + FLASH_PAGE_SIZE * erase->Page;
 8001392:	683b      	ldr	r3, [r7, #0]
 8001394:	689b      	ldr	r3, [r3, #8]
 8001396:	2280      	movs	r2, #128	; 0x80
 8001398:	0252      	lsls	r2, r2, #9
 800139a:	4694      	mov	ip, r2
 800139c:	4463      	add	r3, ip
 800139e:	02db      	lsls	r3, r3, #11
 80013a0:	60fb      	str	r3, [r7, #12]
	uint32_t pgerr = 0;
 80013a2:	2300      	movs	r3, #0
 80013a4:	60bb      	str	r3, [r7, #8]
	HAL_FLASH_Unlock();
 80013a6:	f002 fa57 	bl	8003858 <HAL_FLASH_Unlock>
	HAL_FLASHEx_Erase(erase, &pgerr);
 80013aa:	2308      	movs	r3, #8
 80013ac:	18fa      	adds	r2, r7, r3
 80013ae:	683b      	ldr	r3, [r7, #0]
 80013b0:	0011      	movs	r1, r2
 80013b2:	0018      	movs	r0, r3
 80013b4:	f002 fafe 	bl	80039b4 <HAL_FLASHEx_Erase>
	HAL_FLASH_Program(FLASH_TYPEPROGRAM_DOUBLEWORD, addr, seq);
 80013b8:	687b      	ldr	r3, [r7, #4]
 80013ba:	001c      	movs	r4, r3
 80013bc:	2300      	movs	r3, #0
 80013be:	001d      	movs	r5, r3
 80013c0:	68f9      	ldr	r1, [r7, #12]
 80013c2:	0022      	movs	r2, r4
 80013c4:	002b      	movs	r3, r5
 80013c6:	2001      	movs	r0, #1
 80013c8:	f002 f9f6 	bl	80037b8 <HAL_FLASH_Program>
	HAL_FLASH_Lock();
 80013cc:	f002 fa68 	bl	80038a0 <HAL_FLASH_Lock>
}
 80013d0:	46c0      	nop			; (mov r8, r8)
 80013d2:	46bd      	mov	sp, r7
 80013d4:	b004      	add	sp, #16
 80013d6:	bdb0      	pop	{r4, r5, r7, pc}

080013d8 <Error_Handler>:

/**
 * @brief  This function is executed in case of error occurrence.
 * @retval None
 */
void Error_Handler(void) {
 80013d8:	b580      	push	{r7, lr}
 80013da:	af00      	add	r7, sp, #0
  \details Disables IRQ interrupts by setting the I-bit in the CPSR.
           Can only be executed in Privileged modes.
 */
__STATIC_FORCEINLINE void __disable_irq(void)
{
  __ASM volatile ("cpsid i" : : : "memory");
 80013dc:	b672      	cpsid	i
	/* USER CODE BEGIN Error_Handler_Debug */
	/* User can add his own implementation to report the HAL error return state */
	__disable_irq();
	while (1) {
 80013de:	e7fe      	b.n	80013de <Error_Handler+0x6>

080013e0 <rfm95_init>:
 */

/**
 * Initializes device and sets Handle
 */
bool rfm95_init(rfm95_handle_t *handle_pointer) {
 80013e0:	b580      	push	{r7, lr}
 80013e2:	b084      	sub	sp, #16
 80013e4:	af00      	add	r7, sp, #0
 80013e6:	6078      	str	r0, [r7, #4]
	handle = handle_pointer;
 80013e8:	4b9c      	ldr	r3, [pc, #624]	; (800165c <rfm95_init+0x27c>)
 80013ea:	687a      	ldr	r2, [r7, #4]
 80013ec:	601a      	str	r2, [r3, #0]

	assert(handle->spi_handle->Init.Mode == SPI_MODE_MASTER);
 80013ee:	4b9b      	ldr	r3, [pc, #620]	; (800165c <rfm95_init+0x27c>)
 80013f0:	681b      	ldr	r3, [r3, #0]
 80013f2:	681b      	ldr	r3, [r3, #0]
 80013f4:	685a      	ldr	r2, [r3, #4]
 80013f6:	2382      	movs	r3, #130	; 0x82
 80013f8:	005b      	lsls	r3, r3, #1
 80013fa:	429a      	cmp	r2, r3
 80013fc:	d005      	beq.n	800140a <rfm95_init+0x2a>
 80013fe:	4b98      	ldr	r3, [pc, #608]	; (8001660 <rfm95_init+0x280>)
 8001400:	4a98      	ldr	r2, [pc, #608]	; (8001664 <rfm95_init+0x284>)
 8001402:	4899      	ldr	r0, [pc, #612]	; (8001668 <rfm95_init+0x288>)
 8001404:	211a      	movs	r1, #26
 8001406:	f006 ffaf 	bl	8008368 <__assert_func>
	assert(handle->spi_handle->Init.Direction == SPI_DIRECTION_2LINES);
 800140a:	4b94      	ldr	r3, [pc, #592]	; (800165c <rfm95_init+0x27c>)
 800140c:	681b      	ldr	r3, [r3, #0]
 800140e:	681b      	ldr	r3, [r3, #0]
 8001410:	689b      	ldr	r3, [r3, #8]
 8001412:	2b00      	cmp	r3, #0
 8001414:	d005      	beq.n	8001422 <rfm95_init+0x42>
 8001416:	4b95      	ldr	r3, [pc, #596]	; (800166c <rfm95_init+0x28c>)
 8001418:	4a92      	ldr	r2, [pc, #584]	; (8001664 <rfm95_init+0x284>)
 800141a:	4893      	ldr	r0, [pc, #588]	; (8001668 <rfm95_init+0x288>)
 800141c:	211b      	movs	r1, #27
 800141e:	f006 ffa3 	bl	8008368 <__assert_func>
	assert(handle->spi_handle->Init.DataSize == SPI_DATASIZE_8BIT);
 8001422:	4b8e      	ldr	r3, [pc, #568]	; (800165c <rfm95_init+0x27c>)
 8001424:	681b      	ldr	r3, [r3, #0]
 8001426:	681b      	ldr	r3, [r3, #0]
 8001428:	68da      	ldr	r2, [r3, #12]
 800142a:	23e0      	movs	r3, #224	; 0xe0
 800142c:	00db      	lsls	r3, r3, #3
 800142e:	429a      	cmp	r2, r3
 8001430:	d005      	beq.n	800143e <rfm95_init+0x5e>
 8001432:	4b8f      	ldr	r3, [pc, #572]	; (8001670 <rfm95_init+0x290>)
 8001434:	4a8b      	ldr	r2, [pc, #556]	; (8001664 <rfm95_init+0x284>)
 8001436:	488c      	ldr	r0, [pc, #560]	; (8001668 <rfm95_init+0x288>)
 8001438:	211c      	movs	r1, #28
 800143a:	f006 ff95 	bl	8008368 <__assert_func>
	assert(handle->spi_handle->Init.CLKPolarity == SPI_POLARITY_LOW);
 800143e:	4b87      	ldr	r3, [pc, #540]	; (800165c <rfm95_init+0x27c>)
 8001440:	681b      	ldr	r3, [r3, #0]
 8001442:	681b      	ldr	r3, [r3, #0]
 8001444:	691b      	ldr	r3, [r3, #16]
 8001446:	2b00      	cmp	r3, #0
 8001448:	d005      	beq.n	8001456 <rfm95_init+0x76>
 800144a:	4b8a      	ldr	r3, [pc, #552]	; (8001674 <rfm95_init+0x294>)
 800144c:	4a85      	ldr	r2, [pc, #532]	; (8001664 <rfm95_init+0x284>)
 800144e:	4886      	ldr	r0, [pc, #536]	; (8001668 <rfm95_init+0x288>)
 8001450:	211d      	movs	r1, #29
 8001452:	f006 ff89 	bl	8008368 <__assert_func>
	assert(handle->spi_handle->Init.CLKPhase == SPI_PHASE_1EDGE);
 8001456:	4b81      	ldr	r3, [pc, #516]	; (800165c <rfm95_init+0x27c>)
 8001458:	681b      	ldr	r3, [r3, #0]
 800145a:	681b      	ldr	r3, [r3, #0]
 800145c:	695b      	ldr	r3, [r3, #20]
 800145e:	2b00      	cmp	r3, #0
 8001460:	d005      	beq.n	800146e <rfm95_init+0x8e>
 8001462:	4b85      	ldr	r3, [pc, #532]	; (8001678 <rfm95_init+0x298>)
 8001464:	4a7f      	ldr	r2, [pc, #508]	; (8001664 <rfm95_init+0x284>)
 8001466:	4880      	ldr	r0, [pc, #512]	; (8001668 <rfm95_init+0x288>)
 8001468:	211e      	movs	r1, #30
 800146a:	f006 ff7d 	bl	8008368 <__assert_func>

	rfm95_reset();
 800146e:	f000 faff 	bl	8001a70 <rfm95_reset>

	// Check for correct version.
	uint8_t version = 0;
 8001472:	210f      	movs	r1, #15
 8001474:	187b      	adds	r3, r7, r1
 8001476:	2200      	movs	r2, #0
 8001478:	701a      	strb	r2, [r3, #0]
	if (!rfm95_read(RFM95_REGISTER_VERSION, &version))
 800147a:	187b      	adds	r3, r7, r1
 800147c:	0019      	movs	r1, r3
 800147e:	2042      	movs	r0, #66	; 0x42
 8001480:	f000 fa76 	bl	8001970 <rfm95_read>
 8001484:	0003      	movs	r3, r0
 8001486:	001a      	movs	r2, r3
 8001488:	2301      	movs	r3, #1
 800148a:	4053      	eors	r3, r2
 800148c:	b2db      	uxtb	r3, r3
 800148e:	2b00      	cmp	r3, #0
 8001490:	d001      	beq.n	8001496 <rfm95_init+0xb6>
		return false;
 8001492:	2300      	movs	r3, #0
 8001494:	e0dd      	b.n	8001652 <rfm95_init+0x272>

	if (version != RFM9x_VER)
 8001496:	230f      	movs	r3, #15
 8001498:	18fb      	adds	r3, r7, r3
 800149a:	781b      	ldrb	r3, [r3, #0]
 800149c:	2b12      	cmp	r3, #18
 800149e:	d001      	beq.n	80014a4 <rfm95_init+0xc4>
		return false;
 80014a0:	2300      	movs	r3, #0
 80014a2:	e0d6      	b.n	8001652 <rfm95_init+0x272>

	// Module must be placed in sleep mode before switching to lora.
	if (!rfm95_write(RFM95_REGISTER_OP_MODE, RFM95_REGISTER_OP_MODE_SLEEP))
 80014a4:	2100      	movs	r1, #0
 80014a6:	2001      	movs	r0, #1
 80014a8:	f000 faa4 	bl	80019f4 <rfm95_write>
 80014ac:	0003      	movs	r3, r0
 80014ae:	001a      	movs	r2, r3
 80014b0:	2301      	movs	r3, #1
 80014b2:	4053      	eors	r3, r2
 80014b4:	b2db      	uxtb	r3, r3
 80014b6:	2b00      	cmp	r3, #0
 80014b8:	d001      	beq.n	80014be <rfm95_init+0xde>
		return false;
 80014ba:	2300      	movs	r3, #0
 80014bc:	e0c9      	b.n	8001652 <rfm95_init+0x272>
	if (!rfm95_write(RFM95_REGISTER_OP_MODE, RFM95_REGISTER_OP_MODE_LORA))
 80014be:	2180      	movs	r1, #128	; 0x80
 80014c0:	2001      	movs	r0, #1
 80014c2:	f000 fa97 	bl	80019f4 <rfm95_write>
 80014c6:	0003      	movs	r3, r0
 80014c8:	001a      	movs	r2, r3
 80014ca:	2301      	movs	r3, #1
 80014cc:	4053      	eors	r3, r2
 80014ce:	b2db      	uxtb	r3, r3
 80014d0:	2b00      	cmp	r3, #0
 80014d2:	d001      	beq.n	80014d8 <rfm95_init+0xf8>
		return false;
 80014d4:	2300      	movs	r3, #0
 80014d6:	e0bc      	b.n	8001652 <rfm95_init+0x272>

	// Set module power to 17dbm.
	if (!rfm95_setPower(20))
 80014d8:	2014      	movs	r0, #20
 80014da:	f000 f8cf 	bl	800167c <rfm95_setPower>
 80014de:	0003      	movs	r3, r0
 80014e0:	001a      	movs	r2, r3
 80014e2:	2301      	movs	r3, #1
 80014e4:	4053      	eors	r3, r2
 80014e6:	b2db      	uxtb	r3, r3
 80014e8:	2b00      	cmp	r3, #0
 80014ea:	d001      	beq.n	80014f0 <rfm95_init+0x110>
		return false;
 80014ec:	2300      	movs	r3, #0
 80014ee:	e0b0      	b.n	8001652 <rfm95_init+0x272>

	// RX timeout set to 37 symbols.
	if (!rfm95_write(RFM95_REGISTER_SYMB_TIMEOUT_LSB, 255))
 80014f0:	21ff      	movs	r1, #255	; 0xff
 80014f2:	201f      	movs	r0, #31
 80014f4:	f000 fa7e 	bl	80019f4 <rfm95_write>
 80014f8:	0003      	movs	r3, r0
 80014fa:	001a      	movs	r2, r3
 80014fc:	2301      	movs	r3, #1
 80014fe:	4053      	eors	r3, r2
 8001500:	b2db      	uxtb	r3, r3
 8001502:	2b00      	cmp	r3, #0
 8001504:	d001      	beq.n	800150a <rfm95_init+0x12a>
		return false;
 8001506:	2300      	movs	r3, #0
 8001508:	e0a3      	b.n	8001652 <rfm95_init+0x272>

	// Preamble set to 8 + 4.25 = 12.25 symbols.
	if (!rfm95_write(RFM95_REGISTER_PREAMBLE_MSB, 0x00))
 800150a:	2100      	movs	r1, #0
 800150c:	2020      	movs	r0, #32
 800150e:	f000 fa71 	bl	80019f4 <rfm95_write>
 8001512:	0003      	movs	r3, r0
 8001514:	001a      	movs	r2, r3
 8001516:	2301      	movs	r3, #1
 8001518:	4053      	eors	r3, r2
 800151a:	b2db      	uxtb	r3, r3
 800151c:	2b00      	cmp	r3, #0
 800151e:	d001      	beq.n	8001524 <rfm95_init+0x144>
		return false;
 8001520:	2300      	movs	r3, #0
 8001522:	e096      	b.n	8001652 <rfm95_init+0x272>
	if (!rfm95_write(RFM95_REGISTER_PREAMBLE_LSB, 0x08))
 8001524:	2108      	movs	r1, #8
 8001526:	2021      	movs	r0, #33	; 0x21
 8001528:	f000 fa64 	bl	80019f4 <rfm95_write>
 800152c:	0003      	movs	r3, r0
 800152e:	001a      	movs	r2, r3
 8001530:	2301      	movs	r3, #1
 8001532:	4053      	eors	r3, r2
 8001534:	b2db      	uxtb	r3, r3
 8001536:	2b00      	cmp	r3, #0
 8001538:	d001      	beq.n	800153e <rfm95_init+0x15e>
		return false;
 800153a:	2300      	movs	r3, #0
 800153c:	e089      	b.n	8001652 <rfm95_init+0x272>

	// Set IQ inversion.
	if (!rfm95_write(RFM95_REGISTER_INVERT_IQ_1,
 800153e:	2127      	movs	r1, #39	; 0x27
 8001540:	2033      	movs	r0, #51	; 0x33
 8001542:	f000 fa57 	bl	80019f4 <rfm95_write>
 8001546:	0003      	movs	r3, r0
 8001548:	001a      	movs	r2, r3
 800154a:	2301      	movs	r3, #1
 800154c:	4053      	eors	r3, r2
 800154e:	b2db      	uxtb	r3, r3
 8001550:	2b00      	cmp	r3, #0
 8001552:	d001      	beq.n	8001558 <rfm95_init+0x178>
	RFM95_REGISTER_INVERT_IQ_1_ON_TXONLY))
		return false;
 8001554:	2300      	movs	r3, #0
 8001556:	e07c      	b.n	8001652 <rfm95_init+0x272>
	if (!rfm95_write(RFM95_REGISTER_INVERT_IQ_2,
 8001558:	211d      	movs	r1, #29
 800155a:	203b      	movs	r0, #59	; 0x3b
 800155c:	f000 fa4a 	bl	80019f4 <rfm95_write>
 8001560:	0003      	movs	r3, r0
 8001562:	001a      	movs	r2, r3
 8001564:	2301      	movs	r3, #1
 8001566:	4053      	eors	r3, r2
 8001568:	b2db      	uxtb	r3, r3
 800156a:	2b00      	cmp	r3, #0
 800156c:	d001      	beq.n	8001572 <rfm95_init+0x192>
	RFM95_REGISTER_INVERT_IQ_2_OFF))
		return false;
 800156e:	2300      	movs	r3, #0
 8001570:	e06f      	b.n	8001652 <rfm95_init+0x272>

	// Set up TX and RX FIFO base addresses.
	if (!rfm95_write(RFM95_REGISTER_FIFO_TX_BASE_ADDR, 0x80))
 8001572:	2180      	movs	r1, #128	; 0x80
 8001574:	200e      	movs	r0, #14
 8001576:	f000 fa3d 	bl	80019f4 <rfm95_write>
 800157a:	0003      	movs	r3, r0
 800157c:	001a      	movs	r2, r3
 800157e:	2301      	movs	r3, #1
 8001580:	4053      	eors	r3, r2
 8001582:	b2db      	uxtb	r3, r3
 8001584:	2b00      	cmp	r3, #0
 8001586:	d001      	beq.n	800158c <rfm95_init+0x1ac>
		return false;
 8001588:	2300      	movs	r3, #0
 800158a:	e062      	b.n	8001652 <rfm95_init+0x272>
	if (!rfm95_write(RFM95_REGISTER_FIFO_RX_BASE_ADDR, 0x00))
 800158c:	2100      	movs	r1, #0
 800158e:	200f      	movs	r0, #15
 8001590:	f000 fa30 	bl	80019f4 <rfm95_write>
 8001594:	0003      	movs	r3, r0
 8001596:	001a      	movs	r2, r3
 8001598:	2301      	movs	r3, #1
 800159a:	4053      	eors	r3, r2
 800159c:	b2db      	uxtb	r3, r3
 800159e:	2b00      	cmp	r3, #0
 80015a0:	d001      	beq.n	80015a6 <rfm95_init+0x1c6>
		return false;
 80015a2:	2300      	movs	r3, #0
 80015a4:	e055      	b.n	8001652 <rfm95_init+0x272>

	if (!rfm95_write(RFM95_REGISTER_FR_MSB, lora_frequency[0]))
 80015a6:	23e4      	movs	r3, #228	; 0xe4
 80015a8:	0019      	movs	r1, r3
 80015aa:	2006      	movs	r0, #6
 80015ac:	f000 fa22 	bl	80019f4 <rfm95_write>
 80015b0:	0003      	movs	r3, r0
 80015b2:	001a      	movs	r2, r3
 80015b4:	2301      	movs	r3, #1
 80015b6:	4053      	eors	r3, r2
 80015b8:	b2db      	uxtb	r3, r3
 80015ba:	2b00      	cmp	r3, #0
 80015bc:	d001      	beq.n	80015c2 <rfm95_init+0x1e2>
		return false;
 80015be:	2300      	movs	r3, #0
 80015c0:	e047      	b.n	8001652 <rfm95_init+0x272>
	if (!rfm95_write(RFM95_REGISTER_FR_MID, lora_frequency[1]))
 80015c2:	23c0      	movs	r3, #192	; 0xc0
 80015c4:	0019      	movs	r1, r3
 80015c6:	2007      	movs	r0, #7
 80015c8:	f000 fa14 	bl	80019f4 <rfm95_write>
 80015cc:	0003      	movs	r3, r0
 80015ce:	001a      	movs	r2, r3
 80015d0:	2301      	movs	r3, #1
 80015d2:	4053      	eors	r3, r2
 80015d4:	b2db      	uxtb	r3, r3
 80015d6:	2b00      	cmp	r3, #0
 80015d8:	d001      	beq.n	80015de <rfm95_init+0x1fe>
		return false;
 80015da:	2300      	movs	r3, #0
 80015dc:	e039      	b.n	8001652 <rfm95_init+0x272>
	if (!rfm95_write(RFM95_REGISTER_FR_LSB, lora_frequency[2]))
 80015de:	2326      	movs	r3, #38	; 0x26
 80015e0:	0019      	movs	r1, r3
 80015e2:	2008      	movs	r0, #8
 80015e4:	f000 fa06 	bl	80019f4 <rfm95_write>
 80015e8:	0003      	movs	r3, r0
 80015ea:	001a      	movs	r2, r3
 80015ec:	2301      	movs	r3, #1
 80015ee:	4053      	eors	r3, r2
 80015f0:	b2db      	uxtb	r3, r3
 80015f2:	2b00      	cmp	r3, #0
 80015f4:	d001      	beq.n	80015fa <rfm95_init+0x21a>
		return false;
 80015f6:	2300      	movs	r3, #0
 80015f8:	e02b      	b.n	8001652 <rfm95_init+0x272>
//82
	if (!rfm95_write(RFM95_REGISTER_MODEM_CONFIG_1, 0x82))
 80015fa:	2182      	movs	r1, #130	; 0x82
 80015fc:	201d      	movs	r0, #29
 80015fe:	f000 f9f9 	bl	80019f4 <rfm95_write>
 8001602:	0003      	movs	r3, r0
 8001604:	001a      	movs	r2, r3
 8001606:	2301      	movs	r3, #1
 8001608:	4053      	eors	r3, r2
 800160a:	b2db      	uxtb	r3, r3
 800160c:	2b00      	cmp	r3, #0
 800160e:	d001      	beq.n	8001614 <rfm95_init+0x234>
		return false;
 8001610:	2300      	movs	r3, #0
 8001612:	e01e      	b.n	8001652 <rfm95_init+0x272>
	if (!rfm95_write(RFM95_REGISTER_MODEM_CONFIG_2, 0x90 | 0b111))
 8001614:	2197      	movs	r1, #151	; 0x97
 8001616:	201e      	movs	r0, #30
 8001618:	f000 f9ec 	bl	80019f4 <rfm95_write>
 800161c:	0003      	movs	r3, r0
 800161e:	001a      	movs	r2, r3
 8001620:	2301      	movs	r3, #1
 8001622:	4053      	eors	r3, r2
 8001624:	b2db      	uxtb	r3, r3
 8001626:	2b00      	cmp	r3, #0
 8001628:	d001      	beq.n	800162e <rfm95_init+0x24e>
		return false;  //change to 0x94 for enabling CRC
 800162a:	2300      	movs	r3, #0
 800162c:	e011      	b.n	8001652 <rfm95_init+0x272>
	if (!rfm95_write(RFM95_REGISTER_MODEM_CONFIG_3, 0x00))
 800162e:	2100      	movs	r1, #0
 8001630:	2026      	movs	r0, #38	; 0x26
 8001632:	f000 f9df 	bl	80019f4 <rfm95_write>
 8001636:	0003      	movs	r3, r0
 8001638:	001a      	movs	r2, r3
 800163a:	2301      	movs	r3, #1
 800163c:	4053      	eors	r3, r2
 800163e:	b2db      	uxtb	r3, r3
 8001640:	2b00      	cmp	r3, #0
 8001642:	d001      	beq.n	8001648 <rfm95_init+0x268>
		return false;
 8001644:	2300      	movs	r3, #0
 8001646:	e004      	b.n	8001652 <rfm95_init+0x272>

	rfm95_write(RFM95_REGISTER_OP_MODE,
 8001648:	2185      	movs	r1, #133	; 0x85
 800164a:	2001      	movs	r0, #1
 800164c:	f000 f9d2 	bl	80019f4 <rfm95_write>
	RFM95_REGISTER_OP_MODE_LORA_RXCONTINUOUS | 0x80);

	return true;
 8001650:	2301      	movs	r3, #1
}
 8001652:	0018      	movs	r0, r3
 8001654:	46bd      	mov	sp, r7
 8001656:	b004      	add	sp, #16
 8001658:	bd80      	pop	{r7, pc}
 800165a:	46c0      	nop			; (mov r8, r8)
 800165c:	200005c0 	.word	0x200005c0
 8001660:	08009348 	.word	0x08009348
 8001664:	080094b8 	.word	0x080094b8
 8001668:	0800937c 	.word	0x0800937c
 800166c:	08009390 	.word	0x08009390
 8001670:	080093cc 	.word	0x080093cc
 8001674:	08009404 	.word	0x08009404
 8001678:	08009440 	.word	0x08009440

0800167c <rfm95_setPower>:

/**
 * Sets power for transmission, 17 by default
 */
bool rfm95_setPower(int8_t power) {
 800167c:	b580      	push	{r7, lr}
 800167e:	b084      	sub	sp, #16
 8001680:	af00      	add	r7, sp, #0
 8001682:	0002      	movs	r2, r0
 8001684:	1dfb      	adds	r3, r7, #7
 8001686:	701a      	strb	r2, [r3, #0]
	rfm95_register_pa_config_t pa_config = { 0 };
 8001688:	230c      	movs	r3, #12
 800168a:	18fb      	adds	r3, r7, r3
 800168c:	2200      	movs	r2, #0
 800168e:	701a      	strb	r2, [r3, #0]
	uint8_t pa_dac_config = 0;
 8001690:	230f      	movs	r3, #15
 8001692:	18fb      	adds	r3, r7, r3
 8001694:	2200      	movs	r2, #0
 8001696:	701a      	strb	r2, [r3, #0]

	if (power >= 2 && power <= 17) {
 8001698:	1dfb      	adds	r3, r7, #7
 800169a:	781b      	ldrb	r3, [r3, #0]
 800169c:	b25b      	sxtb	r3, r3
 800169e:	2b01      	cmp	r3, #1
 80016a0:	dd28      	ble.n	80016f4 <rfm95_setPower+0x78>
 80016a2:	1dfb      	adds	r3, r7, #7
 80016a4:	781b      	ldrb	r3, [r3, #0]
 80016a6:	b25b      	sxtb	r3, r3
 80016a8:	2b11      	cmp	r3, #17
 80016aa:	dc23      	bgt.n	80016f4 <rfm95_setPower+0x78>
		pa_config.max_power = 7;
 80016ac:	200c      	movs	r0, #12
 80016ae:	183b      	adds	r3, r7, r0
 80016b0:	781a      	ldrb	r2, [r3, #0]
 80016b2:	2170      	movs	r1, #112	; 0x70
 80016b4:	430a      	orrs	r2, r1
 80016b6:	701a      	strb	r2, [r3, #0]
		pa_config.pa_select = 1;
 80016b8:	183b      	adds	r3, r7, r0
 80016ba:	781a      	ldrb	r2, [r3, #0]
 80016bc:	2180      	movs	r1, #128	; 0x80
 80016be:	4249      	negs	r1, r1
 80016c0:	430a      	orrs	r2, r1
 80016c2:	701a      	strb	r2, [r3, #0]
		pa_config.output_power = (power - 2);
 80016c4:	1dfb      	adds	r3, r7, #7
 80016c6:	781b      	ldrb	r3, [r3, #0]
 80016c8:	3b02      	subs	r3, #2
 80016ca:	b2db      	uxtb	r3, r3
 80016cc:	1c1a      	adds	r2, r3, #0
 80016ce:	230f      	movs	r3, #15
 80016d0:	4013      	ands	r3, r2
 80016d2:	b2da      	uxtb	r2, r3
 80016d4:	183b      	adds	r3, r7, r0
 80016d6:	210f      	movs	r1, #15
 80016d8:	400a      	ands	r2, r1
 80016da:	0010      	movs	r0, r2
 80016dc:	781a      	ldrb	r2, [r3, #0]
 80016de:	210f      	movs	r1, #15
 80016e0:	438a      	bics	r2, r1
 80016e2:	1c11      	adds	r1, r2, #0
 80016e4:	1c02      	adds	r2, r0, #0
 80016e6:	430a      	orrs	r2, r1
 80016e8:	701a      	strb	r2, [r3, #0]
		pa_dac_config = RFM95_REGISTER_PA_DAC_LOW_POWER;
 80016ea:	230f      	movs	r3, #15
 80016ec:	18fb      	adds	r3, r7, r3
 80016ee:	2284      	movs	r2, #132	; 0x84
 80016f0:	701a      	strb	r2, [r3, #0]
 80016f2:	e019      	b.n	8001728 <rfm95_setPower+0xac>

	} else if (power == 20) {
 80016f4:	1dfb      	adds	r3, r7, #7
 80016f6:	781b      	ldrb	r3, [r3, #0]
 80016f8:	b25b      	sxtb	r3, r3
 80016fa:	2b14      	cmp	r3, #20
 80016fc:	d114      	bne.n	8001728 <rfm95_setPower+0xac>
		pa_config.max_power = 7;
 80016fe:	200c      	movs	r0, #12
 8001700:	183b      	adds	r3, r7, r0
 8001702:	781a      	ldrb	r2, [r3, #0]
 8001704:	2170      	movs	r1, #112	; 0x70
 8001706:	430a      	orrs	r2, r1
 8001708:	701a      	strb	r2, [r3, #0]
		pa_config.pa_select = 1;
 800170a:	183b      	adds	r3, r7, r0
 800170c:	781a      	ldrb	r2, [r3, #0]
 800170e:	2180      	movs	r1, #128	; 0x80
 8001710:	4249      	negs	r1, r1
 8001712:	430a      	orrs	r2, r1
 8001714:	701a      	strb	r2, [r3, #0]
		pa_config.output_power = 15;
 8001716:	183b      	adds	r3, r7, r0
 8001718:	781a      	ldrb	r2, [r3, #0]
 800171a:	210f      	movs	r1, #15
 800171c:	430a      	orrs	r2, r1
 800171e:	701a      	strb	r2, [r3, #0]
		pa_dac_config = RFM95_REGISTER_PA_DAC_HIGH_POWER;
 8001720:	230f      	movs	r3, #15
 8001722:	18fb      	adds	r3, r7, r3
 8001724:	2287      	movs	r2, #135	; 0x87
 8001726:	701a      	strb	r2, [r3, #0]
	}

	if (!rfm95_write(RFM95_REGISTER_PA_CONFIG, pa_config.buffer))
 8001728:	230c      	movs	r3, #12
 800172a:	18fb      	adds	r3, r7, r3
 800172c:	781b      	ldrb	r3, [r3, #0]
 800172e:	0019      	movs	r1, r3
 8001730:	2009      	movs	r0, #9
 8001732:	f000 f95f 	bl	80019f4 <rfm95_write>
 8001736:	0003      	movs	r3, r0
 8001738:	001a      	movs	r2, r3
 800173a:	2301      	movs	r3, #1
 800173c:	4053      	eors	r3, r2
 800173e:	b2db      	uxtb	r3, r3
 8001740:	2b00      	cmp	r3, #0
 8001742:	d001      	beq.n	8001748 <rfm95_setPower+0xcc>
		return false;
 8001744:	2300      	movs	r3, #0
 8001746:	e010      	b.n	800176a <rfm95_setPower+0xee>
	if (!rfm95_write(RFM95_REGISTER_PA_DAC, pa_dac_config))
 8001748:	230f      	movs	r3, #15
 800174a:	18fb      	adds	r3, r7, r3
 800174c:	781b      	ldrb	r3, [r3, #0]
 800174e:	0019      	movs	r1, r3
 8001750:	204d      	movs	r0, #77	; 0x4d
 8001752:	f000 f94f 	bl	80019f4 <rfm95_write>
 8001756:	0003      	movs	r3, r0
 8001758:	001a      	movs	r2, r3
 800175a:	2301      	movs	r3, #1
 800175c:	4053      	eors	r3, r2
 800175e:	b2db      	uxtb	r3, r3
 8001760:	2b00      	cmp	r3, #0
 8001762:	d001      	beq.n	8001768 <rfm95_setPower+0xec>
		return false;
 8001764:	2300      	movs	r3, #0
 8001766:	e000      	b.n	800176a <rfm95_setPower+0xee>

	return true;
 8001768:	2301      	movs	r3, #1
}
 800176a:	0018      	movs	r0, r3
 800176c:	46bd      	mov	sp, r7
 800176e:	b004      	add	sp, #16
 8001770:	bd80      	pop	{r7, pc}
	...

08001774 <transmitPackage>:

/**
 * Transmits payload after adding preamble
 */
bool transmitPackage(uint8_t *payload, size_t payloadLength) {
 8001774:	b580      	push	{r7, lr}
 8001776:	b084      	sub	sp, #16
 8001778:	af00      	add	r7, sp, #0
 800177a:	6078      	str	r0, [r7, #4]
 800177c:	6039      	str	r1, [r7, #0]

	if (!handle->txDone) {
 800177e:	4b3d      	ldr	r3, [pc, #244]	; (8001874 <transmitPackage+0x100>)
 8001780:	681b      	ldr	r3, [r3, #0]
 8001782:	2222      	movs	r2, #34	; 0x22
 8001784:	5c9b      	ldrb	r3, [r3, r2]
 8001786:	b2db      	uxtb	r3, r3
 8001788:	2b00      	cmp	r3, #0
 800178a:	d101      	bne.n	8001790 <transmitPackage+0x1c>
//		rfm95_write(RFM95_REGISTER_OP_MODE,
//							RFM95_REGISTER_OP_MODE_LORA_RXCONTINUOUS | 0x80);
		return false;
 800178c:	2300      	movs	r3, #0
 800178e:	e06c      	b.n	800186a <transmitPackage+0xf6>
	}
	handle->txDone = false;
 8001790:	4b38      	ldr	r3, [pc, #224]	; (8001874 <transmitPackage+0x100>)
 8001792:	681b      	ldr	r3, [r3, #0]
 8001794:	2222      	movs	r2, #34	; 0x22
 8001796:	2100      	movs	r1, #0
 8001798:	5499      	strb	r1, [r3, r2]

	uint8_t regopmode = 0;
 800179a:	230b      	movs	r3, #11
 800179c:	18fb      	adds	r3, r7, r3
 800179e:	2200      	movs	r2, #0
 80017a0:	701a      	strb	r2, [r3, #0]
	do {
		rfm95_read(RFM95_REGISTER_OP_MODE, &regopmode);
 80017a2:	230b      	movs	r3, #11
 80017a4:	18fb      	adds	r3, r7, r3
 80017a6:	0019      	movs	r1, r3
 80017a8:	2001      	movs	r0, #1
 80017aa:	f000 f8e1 	bl	8001970 <rfm95_read>
		if (!rfm95_write(RFM95_REGISTER_OP_MODE,
 80017ae:	2181      	movs	r1, #129	; 0x81
 80017b0:	2001      	movs	r0, #1
 80017b2:	f000 f91f 	bl	80019f4 <rfm95_write>
 80017b6:	0003      	movs	r3, r0
 80017b8:	001a      	movs	r2, r3
 80017ba:	2301      	movs	r3, #1
 80017bc:	4053      	eors	r3, r2
 80017be:	b2db      	uxtb	r3, r3
 80017c0:	2b00      	cmp	r3, #0
 80017c2:	d001      	beq.n	80017c8 <transmitPackage+0x54>
		RFM95_REGISTER_OP_MODE_LORA_STANDBY))
			return false;
 80017c4:	2300      	movs	r3, #0
 80017c6:	e050      	b.n	800186a <transmitPackage+0xf6>
		HAL_Delay(1);
 80017c8:	2001      	movs	r0, #1
 80017ca:	f000 fc7f 	bl	80020cc <HAL_Delay>
	} while (regopmode != RFM95_REGISTER_OP_MODE_LORA_STANDBY);
 80017ce:	230b      	movs	r3, #11
 80017d0:	18fb      	adds	r3, r7, r3
 80017d2:	781b      	ldrb	r3, [r3, #0]
 80017d4:	2b81      	cmp	r3, #129	; 0x81
 80017d6:	d1e4      	bne.n	80017a2 <transmitPackage+0x2e>

	if (!rfm95_write(RFM95_REGISTER_PAYLOAD_LENGTH, payloadLength))
 80017d8:	683b      	ldr	r3, [r7, #0]
 80017da:	b2db      	uxtb	r3, r3
 80017dc:	0019      	movs	r1, r3
 80017de:	2022      	movs	r0, #34	; 0x22
 80017e0:	f000 f908 	bl	80019f4 <rfm95_write>
 80017e4:	0003      	movs	r3, r0
 80017e6:	001a      	movs	r2, r3
 80017e8:	2301      	movs	r3, #1
 80017ea:	4053      	eors	r3, r2
 80017ec:	b2db      	uxtb	r3, r3
 80017ee:	2b00      	cmp	r3, #0
 80017f0:	d001      	beq.n	80017f6 <transmitPackage+0x82>
		return false;
 80017f2:	2300      	movs	r3, #0
 80017f4:	e039      	b.n	800186a <transmitPackage+0xf6>

	// Set SPI pointer to start of TX section in FIFO
	if (!rfm95_write(RFM95_REGISTER_FIFO_ADDR_PTR, 0x80))
 80017f6:	2180      	movs	r1, #128	; 0x80
 80017f8:	200d      	movs	r0, #13
 80017fa:	f000 f8fb 	bl	80019f4 <rfm95_write>
 80017fe:	0003      	movs	r3, r0
 8001800:	001a      	movs	r2, r3
 8001802:	2301      	movs	r3, #1
 8001804:	4053      	eors	r3, r2
 8001806:	b2db      	uxtb	r3, r3
 8001808:	2b00      	cmp	r3, #0
 800180a:	d001      	beq.n	8001810 <transmitPackage+0x9c>
		return false;
 800180c:	2300      	movs	r3, #0
 800180e:	e02c      	b.n	800186a <transmitPackage+0xf6>

	// Write payload to FIFO.
	for (size_t i = 0; i < payloadLength; i++) {
 8001810:	2300      	movs	r3, #0
 8001812:	60fb      	str	r3, [r7, #12]
 8001814:	e00a      	b.n	800182c <transmitPackage+0xb8>
		rfm95_write(RFM95_REGISTER_FIFO_ACCESS, payload[i]);
 8001816:	687a      	ldr	r2, [r7, #4]
 8001818:	68fb      	ldr	r3, [r7, #12]
 800181a:	18d3      	adds	r3, r2, r3
 800181c:	781b      	ldrb	r3, [r3, #0]
 800181e:	0019      	movs	r1, r3
 8001820:	2000      	movs	r0, #0
 8001822:	f000 f8e7 	bl	80019f4 <rfm95_write>
	for (size_t i = 0; i < payloadLength; i++) {
 8001826:	68fb      	ldr	r3, [r7, #12]
 8001828:	3301      	adds	r3, #1
 800182a:	60fb      	str	r3, [r7, #12]
 800182c:	68fa      	ldr	r2, [r7, #12]
 800182e:	683b      	ldr	r3, [r7, #0]
 8001830:	429a      	cmp	r2, r3
 8001832:	d3f0      	bcc.n	8001816 <transmitPackage+0xa2>
	}

	if (!rfm95_write(RFM95_REGISTER_DIO_MAPPING_1,
 8001834:	2140      	movs	r1, #64	; 0x40
 8001836:	2040      	movs	r0, #64	; 0x40
 8001838:	f000 f8dc 	bl	80019f4 <rfm95_write>
 800183c:	0003      	movs	r3, r0
 800183e:	001a      	movs	r2, r3
 8001840:	2301      	movs	r3, #1
 8001842:	4053      	eors	r3, r2
 8001844:	b2db      	uxtb	r3, r3
 8001846:	2b00      	cmp	r3, #0
 8001848:	d001      	beq.n	800184e <transmitPackage+0xda>
	RFM95_REGISTER_DIO_MAPPING_1_IRQ_TXDONE))
		return false;
 800184a:	2300      	movs	r3, #0
 800184c:	e00d      	b.n	800186a <transmitPackage+0xf6>
	if (!rfm95_write(RFM95_REGISTER_OP_MODE, RFM95_REGISTER_OP_MODE_LORA_TX))
 800184e:	2183      	movs	r1, #131	; 0x83
 8001850:	2001      	movs	r0, #1
 8001852:	f000 f8cf 	bl	80019f4 <rfm95_write>
 8001856:	0003      	movs	r3, r0
 8001858:	001a      	movs	r2, r3
 800185a:	2301      	movs	r3, #1
 800185c:	4053      	eors	r3, r2
 800185e:	b2db      	uxtb	r3, r3
 8001860:	2b00      	cmp	r3, #0
 8001862:	d001      	beq.n	8001868 <transmitPackage+0xf4>
		return false;
 8001864:	2300      	movs	r3, #0
 8001866:	e000      	b.n	800186a <transmitPackage+0xf6>
//	if (!rfm95_write(RFM95_REGISTER_OP_MODE, RFM95_REGISTER_OP_MODE_SLEEP)) return false;

//	rfm95_write(RFM95_REGISTER_OP_MODE,
//				RFM95_REGISTER_OP_MODE_LORA_RXCONTINUOUS | 0x80);

	return true;
 8001868:	2301      	movs	r3, #1

}
 800186a:	0018      	movs	r0, r3
 800186c:	46bd      	mov	sp, r7
 800186e:	b004      	add	sp, #16
 8001870:	bd80      	pop	{r7, pc}
 8001872:	46c0      	nop			; (mov r8, r8)
 8001874:	200005c0 	.word	0x200005c0

08001878 <rfm95_handleInterrupt>:
//	return true;
//}
/**
 * Generic function for handling interrupt, for tx and rx
 */
void rfm95_handleInterrupt() {
 8001878:	b580      	push	{r7, lr}
 800187a:	b084      	sub	sp, #16
 800187c:	af00      	add	r7, sp, #0
	uint8_t irqFlags;
	rfm95_read(RFM95_REGISTER_IRQ_FLAGS, &irqFlags);
 800187e:	1dfb      	adds	r3, r7, #7
 8001880:	0019      	movs	r1, r3
 8001882:	2012      	movs	r0, #18
 8001884:	f000 f874 	bl	8001970 <rfm95_read>
	rfm95_write(RFM95_REGISTER_IRQ_FLAGS, irqFlags);
 8001888:	1dfb      	adds	r3, r7, #7
 800188a:	781b      	ldrb	r3, [r3, #0]
 800188c:	0019      	movs	r1, r3
 800188e:	2012      	movs	r0, #18
 8001890:	f000 f8b0 	bl	80019f4 <rfm95_write>

	if ((irqFlags & 0x20) == 0) {
 8001894:	1dfb      	adds	r3, r7, #7
 8001896:	781b      	ldrb	r3, [r3, #0]
 8001898:	001a      	movs	r2, r3
 800189a:	2320      	movs	r3, #32
 800189c:	4013      	ands	r3, r2
 800189e:	d160      	bne.n	8001962 <rfm95_handleInterrupt+0xea>
//		++packetError;
		if ((irqFlags & 0x40) != 0) {
 80018a0:	1dfb      	adds	r3, r7, #7
 80018a2:	781b      	ldrb	r3, [r3, #0]
 80018a4:	001a      	movs	r2, r3
 80018a6:	2340      	movs	r3, #64	; 0x40
 80018a8:	4013      	ands	r3, r2
 80018aa:	d047      	beq.n	800193c <rfm95_handleInterrupt+0xc4>
			// read packet length
			uint8_t packetLength;

			// reading from RX_NVBYTES, since implicit header mode is off
			// check line 706 in the arduino library
			rfm95_read(0x13, &packetLength);
 80018ac:	1dbb      	adds	r3, r7, #6
 80018ae:	0019      	movs	r1, r3
 80018b0:	2013      	movs	r0, #19
 80018b2:	f000 f85d 	bl	8001970 <rfm95_read>

			// set FIFO address to current RX address
			uint8_t currentAddr;

			rfm95_read(0x10, &currentAddr);
 80018b6:	1d7b      	adds	r3, r7, #5
 80018b8:	0019      	movs	r1, r3
 80018ba:	2010      	movs	r0, #16
 80018bc:	f000 f858 	bl	8001970 <rfm95_read>
			rfm95_write(RFM95_REGISTER_FIFO_ADDR_PTR, currentAddr);
 80018c0:	1d7b      	adds	r3, r7, #5
 80018c2:	781b      	ldrb	r3, [r3, #0]
 80018c4:	0019      	movs	r1, r3
 80018c6:	200d      	movs	r0, #13
 80018c8:	f000 f894 	bl	80019f4 <rfm95_write>

			uint8_t *buffer = (uint8_t*) calloc(packetLength, sizeof(uint8_t));
 80018cc:	1dbb      	adds	r3, r7, #6
 80018ce:	781b      	ldrb	r3, [r3, #0]
 80018d0:	2101      	movs	r1, #1
 80018d2:	0018      	movs	r0, r3
 80018d4:	f006 fd66 	bl	80083a4 <calloc>
 80018d8:	0003      	movs	r3, r0
 80018da:	60bb      	str	r3, [r7, #8]

			for (size_t i = 0; i < packetLength; i++) {
 80018dc:	2300      	movs	r3, #0
 80018de:	60fb      	str	r3, [r7, #12]
 80018e0:	e009      	b.n	80018f6 <rfm95_handleInterrupt+0x7e>
				rfm95_read(RFM95_REGISTER_FIFO_ACCESS, &buffer[i]);
 80018e2:	68ba      	ldr	r2, [r7, #8]
 80018e4:	68fb      	ldr	r3, [r7, #12]
 80018e6:	18d3      	adds	r3, r2, r3
 80018e8:	0019      	movs	r1, r3
 80018ea:	2000      	movs	r0, #0
 80018ec:	f000 f840 	bl	8001970 <rfm95_read>
			for (size_t i = 0; i < packetLength; i++) {
 80018f0:	68fb      	ldr	r3, [r7, #12]
 80018f2:	3301      	adds	r3, #1
 80018f4:	60fb      	str	r3, [r7, #12]
 80018f6:	1dbb      	adds	r3, r7, #6
 80018f8:	781b      	ldrb	r3, [r3, #0]
 80018fa:	001a      	movs	r2, r3
 80018fc:	68fb      	ldr	r3, [r7, #12]
 80018fe:	4293      	cmp	r3, r2
 8001900:	d3ef      	bcc.n	80018e2 <rfm95_handleInterrupt+0x6a>
//                receivedPacketLength = packetLength;
//                receivedPacketData = (uint8_t *) calloc(packetLength, sizeof(uint8_t));
//            	memcpy(receivedPacketData, buffer + 4, packetLength);
//            }

			if (handle->rxDoneCallback) {
 8001902:	4b1a      	ldr	r3, [pc, #104]	; (800196c <rfm95_handleInterrupt+0xf4>)
 8001904:	681b      	ldr	r3, [r3, #0]
 8001906:	6a5b      	ldr	r3, [r3, #36]	; 0x24
 8001908:	2b00      	cmp	r3, #0
 800190a:	d007      	beq.n	800191c <rfm95_handleInterrupt+0xa4>
				handle->rxDoneCallback(buffer, packetLength);
 800190c:	4b17      	ldr	r3, [pc, #92]	; (800196c <rfm95_handleInterrupt+0xf4>)
 800190e:	681b      	ldr	r3, [r3, #0]
 8001910:	6a5b      	ldr	r3, [r3, #36]	; 0x24
 8001912:	1dba      	adds	r2, r7, #6
 8001914:	7811      	ldrb	r1, [r2, #0]
 8001916:	68ba      	ldr	r2, [r7, #8]
 8001918:	0010      	movs	r0, r2
 800191a:	4798      	blx	r3
//			rfm95_write(RFM95_REGISTER_OP_MODE,
//								RFM95_REGISTER_OP_MODE_LORA_RXCONTINUOUS | 0x80);

			//line 401? receive()
			//writeRegister(REG_DIO_MAPPING_1, 0x00); // DIO0 => RXDONE
			rfm95_write(RFM95_REGISTER_DIO_MAPPING_1, 0x00);
 800191c:	2100      	movs	r1, #0
 800191e:	2040      	movs	r0, #64	; 0x40
 8001920:	f000 f868 	bl	80019f4 <rfm95_write>
			rfm95_write(RFM95_REGISTER_OP_MODE,
 8001924:	2185      	movs	r1, #133	; 0x85
 8001926:	2001      	movs	r0, #1
 8001928:	f000 f864 	bl	80019f4 <rfm95_write>
								RFM95_REGISTER_OP_MODE_LORA_RXCONTINUOUS | 0x80);

			rfm95_write(RFM95_REGISTER_FIFO_RX_BASE_ADDR, 0x00);
 800192c:	2100      	movs	r1, #0
 800192e:	200f      	movs	r0, #15
 8001930:	f000 f860 	bl	80019f4 <rfm95_write>
			//RegSeqConfig1?
			free(buffer);
 8001934:	68bb      	ldr	r3, [r7, #8]
 8001936:	0018      	movs	r0, r3
 8001938:	f006 fd78 	bl	800842c <free>

		}
		if ((irqFlags & 0x08) != 0) {
 800193c:	1dfb      	adds	r3, r7, #7
 800193e:	781b      	ldrb	r3, [r3, #0]
 8001940:	001a      	movs	r2, r3
 8001942:	2308      	movs	r3, #8
 8001944:	4013      	ands	r3, r2
 8001946:	d00c      	beq.n	8001962 <rfm95_handleInterrupt+0xea>
			handle->txDone = true;
 8001948:	4b08      	ldr	r3, [pc, #32]	; (800196c <rfm95_handleInterrupt+0xf4>)
 800194a:	681b      	ldr	r3, [r3, #0]
 800194c:	2222      	movs	r2, #34	; 0x22
 800194e:	2101      	movs	r1, #1
 8001950:	5499      	strb	r1, [r3, r2]
			rfm95_write(RFM95_REGISTER_OP_MODE,
 8001952:	2185      	movs	r1, #133	; 0x85
 8001954:	2001      	movs	r0, #1
 8001956:	f000 f84d 	bl	80019f4 <rfm95_write>
					RFM95_REGISTER_OP_MODE_LORA_RXCONTINUOUS | 0x80);
			rfm95_write(RFM95_REGISTER_DIO_MAPPING_1, 0x00);
 800195a:	2100      	movs	r1, #0
 800195c:	2040      	movs	r0, #64	; 0x40
 800195e:	f000 f849 	bl	80019f4 <rfm95_write>

		}
	}
}
 8001962:	46c0      	nop			; (mov r8, r8)
 8001964:	46bd      	mov	sp, r7
 8001966:	b004      	add	sp, #16
 8001968:	bd80      	pop	{r7, pc}
 800196a:	46c0      	nop			; (mov r8, r8)
 800196c:	200005c0 	.word	0x200005c0

08001970 <rfm95_read>:
 */

/**
 * Reads from register given by reg and stores value in buffer
 */
bool rfm95_read(rfm95_register_t reg, uint8_t *buffer) {
 8001970:	b580      	push	{r7, lr}
 8001972:	b084      	sub	sp, #16
 8001974:	af00      	add	r7, sp, #0
 8001976:	0002      	movs	r2, r0
 8001978:	6039      	str	r1, [r7, #0]
 800197a:	1dfb      	adds	r3, r7, #7
 800197c:	701a      	strb	r2, [r3, #0]
	HAL_GPIO_WritePin(handle->nss_port, handle->nss_pin, GPIO_PIN_RESET);
 800197e:	4b1c      	ldr	r3, [pc, #112]	; (80019f0 <rfm95_read+0x80>)
 8001980:	681b      	ldr	r3, [r3, #0]
 8001982:	6858      	ldr	r0, [r3, #4]
 8001984:	4b1a      	ldr	r3, [pc, #104]	; (80019f0 <rfm95_read+0x80>)
 8001986:	681b      	ldr	r3, [r3, #0]
 8001988:	891b      	ldrh	r3, [r3, #8]
 800198a:	2200      	movs	r2, #0
 800198c:	0019      	movs	r1, r3
 800198e:	f002 fa36 	bl	8003dfe <HAL_GPIO_WritePin>

	uint8_t transmit_buffer = (uint8_t) reg & 0x7fu;
 8001992:	1dfb      	adds	r3, r7, #7
 8001994:	781b      	ldrb	r3, [r3, #0]
 8001996:	227f      	movs	r2, #127	; 0x7f
 8001998:	4013      	ands	r3, r2
 800199a:	b2da      	uxtb	r2, r3
 800199c:	210f      	movs	r1, #15
 800199e:	187b      	adds	r3, r7, r1
 80019a0:	701a      	strb	r2, [r3, #0]

	if (HAL_SPI_Transmit(handle->spi_handle, &transmit_buffer, 1,
 80019a2:	4b13      	ldr	r3, [pc, #76]	; (80019f0 <rfm95_read+0x80>)
 80019a4:	681b      	ldr	r3, [r3, #0]
 80019a6:	6818      	ldr	r0, [r3, #0]
 80019a8:	1879      	adds	r1, r7, r1
 80019aa:	230a      	movs	r3, #10
 80019ac:	2201      	movs	r2, #1
 80019ae:	f003 fa93 	bl	8004ed8 <HAL_SPI_Transmit>
 80019b2:	1e03      	subs	r3, r0, #0
 80019b4:	d001      	beq.n	80019ba <rfm95_read+0x4a>
	RFM95_SPI_TIMEOUT) != HAL_OK)
		return false;
 80019b6:	2300      	movs	r3, #0
 80019b8:	e016      	b.n	80019e8 <rfm95_read+0x78>
	if (HAL_SPI_Receive(handle->spi_handle, buffer, 1, RFM95_SPI_TIMEOUT)
 80019ba:	4b0d      	ldr	r3, [pc, #52]	; (80019f0 <rfm95_read+0x80>)
 80019bc:	681b      	ldr	r3, [r3, #0]
 80019be:	6818      	ldr	r0, [r3, #0]
 80019c0:	6839      	ldr	r1, [r7, #0]
 80019c2:	230a      	movs	r3, #10
 80019c4:	2201      	movs	r2, #1
 80019c6:	f003 fbdf 	bl	8005188 <HAL_SPI_Receive>
 80019ca:	1e03      	subs	r3, r0, #0
 80019cc:	d001      	beq.n	80019d2 <rfm95_read+0x62>
			!= HAL_OK)
		return false;
 80019ce:	2300      	movs	r3, #0
 80019d0:	e00a      	b.n	80019e8 <rfm95_read+0x78>

	HAL_GPIO_WritePin(handle->nss_port, handle->nss_pin, GPIO_PIN_SET);
 80019d2:	4b07      	ldr	r3, [pc, #28]	; (80019f0 <rfm95_read+0x80>)
 80019d4:	681b      	ldr	r3, [r3, #0]
 80019d6:	6858      	ldr	r0, [r3, #4]
 80019d8:	4b05      	ldr	r3, [pc, #20]	; (80019f0 <rfm95_read+0x80>)
 80019da:	681b      	ldr	r3, [r3, #0]
 80019dc:	891b      	ldrh	r3, [r3, #8]
 80019de:	2201      	movs	r2, #1
 80019e0:	0019      	movs	r1, r3
 80019e2:	f002 fa0c 	bl	8003dfe <HAL_GPIO_WritePin>

	return true;
 80019e6:	2301      	movs	r3, #1
}
 80019e8:	0018      	movs	r0, r3
 80019ea:	46bd      	mov	sp, r7
 80019ec:	b004      	add	sp, #16
 80019ee:	bd80      	pop	{r7, pc}
 80019f0:	200005c0 	.word	0x200005c0

080019f4 <rfm95_write>:

/**
 * Writes value to register given by reg
 */
bool rfm95_write(rfm95_register_t reg, uint8_t value) {
 80019f4:	b580      	push	{r7, lr}
 80019f6:	b084      	sub	sp, #16
 80019f8:	af00      	add	r7, sp, #0
 80019fa:	0002      	movs	r2, r0
 80019fc:	1dfb      	adds	r3, r7, #7
 80019fe:	701a      	strb	r2, [r3, #0]
 8001a00:	1dbb      	adds	r3, r7, #6
 8001a02:	1c0a      	adds	r2, r1, #0
 8001a04:	701a      	strb	r2, [r3, #0]
	HAL_GPIO_WritePin(handle->nss_port, handle->nss_pin, GPIO_PIN_RESET);
 8001a06:	4b19      	ldr	r3, [pc, #100]	; (8001a6c <rfm95_write+0x78>)
 8001a08:	681b      	ldr	r3, [r3, #0]
 8001a0a:	6858      	ldr	r0, [r3, #4]
 8001a0c:	4b17      	ldr	r3, [pc, #92]	; (8001a6c <rfm95_write+0x78>)
 8001a0e:	681b      	ldr	r3, [r3, #0]
 8001a10:	891b      	ldrh	r3, [r3, #8]
 8001a12:	2200      	movs	r2, #0
 8001a14:	0019      	movs	r1, r3
 8001a16:	f002 f9f2 	bl	8003dfe <HAL_GPIO_WritePin>

	uint8_t transmit_buffer[2] = { ((uint8_t) reg | 0x80u), value };
 8001a1a:	1dfb      	adds	r3, r7, #7
 8001a1c:	781b      	ldrb	r3, [r3, #0]
 8001a1e:	2280      	movs	r2, #128	; 0x80
 8001a20:	4252      	negs	r2, r2
 8001a22:	4313      	orrs	r3, r2
 8001a24:	b2da      	uxtb	r2, r3
 8001a26:	210c      	movs	r1, #12
 8001a28:	187b      	adds	r3, r7, r1
 8001a2a:	701a      	strb	r2, [r3, #0]
 8001a2c:	187b      	adds	r3, r7, r1
 8001a2e:	1dba      	adds	r2, r7, #6
 8001a30:	7812      	ldrb	r2, [r2, #0]
 8001a32:	705a      	strb	r2, [r3, #1]

	if (HAL_SPI_Transmit(handle->spi_handle, transmit_buffer, 2,
 8001a34:	4b0d      	ldr	r3, [pc, #52]	; (8001a6c <rfm95_write+0x78>)
 8001a36:	681b      	ldr	r3, [r3, #0]
 8001a38:	6818      	ldr	r0, [r3, #0]
 8001a3a:	1879      	adds	r1, r7, r1
 8001a3c:	230a      	movs	r3, #10
 8001a3e:	2202      	movs	r2, #2
 8001a40:	f003 fa4a 	bl	8004ed8 <HAL_SPI_Transmit>
 8001a44:	1e03      	subs	r3, r0, #0
 8001a46:	d001      	beq.n	8001a4c <rfm95_write+0x58>
	RFM95_SPI_TIMEOUT) != HAL_OK)
		return false;
 8001a48:	2300      	movs	r3, #0
 8001a4a:	e00a      	b.n	8001a62 <rfm95_write+0x6e>

	HAL_GPIO_WritePin(handle->nss_port, handle->nss_pin, GPIO_PIN_SET);
 8001a4c:	4b07      	ldr	r3, [pc, #28]	; (8001a6c <rfm95_write+0x78>)
 8001a4e:	681b      	ldr	r3, [r3, #0]
 8001a50:	6858      	ldr	r0, [r3, #4]
 8001a52:	4b06      	ldr	r3, [pc, #24]	; (8001a6c <rfm95_write+0x78>)
 8001a54:	681b      	ldr	r3, [r3, #0]
 8001a56:	891b      	ldrh	r3, [r3, #8]
 8001a58:	2201      	movs	r2, #1
 8001a5a:	0019      	movs	r1, r3
 8001a5c:	f002 f9cf 	bl	8003dfe <HAL_GPIO_WritePin>

	return true;
 8001a60:	2301      	movs	r3, #1
}
 8001a62:	0018      	movs	r0, r3
 8001a64:	46bd      	mov	sp, r7
 8001a66:	b004      	add	sp, #16
 8001a68:	bd80      	pop	{r7, pc}
 8001a6a:	46c0      	nop			; (mov r8, r8)
 8001a6c:	200005c0 	.word	0x200005c0

08001a70 <rfm95_reset>:

/**
 * Resets Device for initialization
 */
void rfm95_reset() {
 8001a70:	b580      	push	{r7, lr}
 8001a72:	af00      	add	r7, sp, #0
	HAL_GPIO_WritePin(handle->nrst_port, handle->nrst_pin, GPIO_PIN_RESET);
 8001a74:	4b0e      	ldr	r3, [pc, #56]	; (8001ab0 <rfm95_reset+0x40>)
 8001a76:	681b      	ldr	r3, [r3, #0]
 8001a78:	68d8      	ldr	r0, [r3, #12]
 8001a7a:	4b0d      	ldr	r3, [pc, #52]	; (8001ab0 <rfm95_reset+0x40>)
 8001a7c:	681b      	ldr	r3, [r3, #0]
 8001a7e:	8a1b      	ldrh	r3, [r3, #16]
 8001a80:	2200      	movs	r2, #0
 8001a82:	0019      	movs	r1, r3
 8001a84:	f002 f9bb 	bl	8003dfe <HAL_GPIO_WritePin>
	HAL_Delay(1);
 8001a88:	2001      	movs	r0, #1
 8001a8a:	f000 fb1f 	bl	80020cc <HAL_Delay>
	HAL_GPIO_WritePin(handle->nrst_port, handle->nrst_pin, GPIO_PIN_SET);
 8001a8e:	4b08      	ldr	r3, [pc, #32]	; (8001ab0 <rfm95_reset+0x40>)
 8001a90:	681b      	ldr	r3, [r3, #0]
 8001a92:	68d8      	ldr	r0, [r3, #12]
 8001a94:	4b06      	ldr	r3, [pc, #24]	; (8001ab0 <rfm95_reset+0x40>)
 8001a96:	681b      	ldr	r3, [r3, #0]
 8001a98:	8a1b      	ldrh	r3, [r3, #16]
 8001a9a:	2201      	movs	r2, #1
 8001a9c:	0019      	movs	r1, r3
 8001a9e:	f002 f9ae 	bl	8003dfe <HAL_GPIO_WritePin>
	HAL_Delay(5);
 8001aa2:	2005      	movs	r0, #5
 8001aa4:	f000 fb12 	bl	80020cc <HAL_Delay>
}
 8001aa8:	46c0      	nop			; (mov r8, r8)
 8001aaa:	46bd      	mov	sp, r7
 8001aac:	bd80      	pop	{r7, pc}
 8001aae:	46c0      	nop			; (mov r8, r8)
 8001ab0:	200005c0 	.word	0x200005c0

08001ab4 <HAL_MspInit>:
void HAL_TIM_MspPostInit(TIM_HandleTypeDef *htim);
                    /**
  * Initializes the Global MSP.
  */
void HAL_MspInit(void)
{
 8001ab4:	b580      	push	{r7, lr}
 8001ab6:	b082      	sub	sp, #8
 8001ab8:	af00      	add	r7, sp, #0
  /* USER CODE BEGIN MspInit 0 */

  /* USER CODE END MspInit 0 */

  __HAL_RCC_SYSCFG_CLK_ENABLE();
 8001aba:	4b11      	ldr	r3, [pc, #68]	; (8001b00 <HAL_MspInit+0x4c>)
 8001abc:	6c1a      	ldr	r2, [r3, #64]	; 0x40
 8001abe:	4b10      	ldr	r3, [pc, #64]	; (8001b00 <HAL_MspInit+0x4c>)
 8001ac0:	2101      	movs	r1, #1
 8001ac2:	430a      	orrs	r2, r1
 8001ac4:	641a      	str	r2, [r3, #64]	; 0x40
 8001ac6:	4b0e      	ldr	r3, [pc, #56]	; (8001b00 <HAL_MspInit+0x4c>)
 8001ac8:	6c1b      	ldr	r3, [r3, #64]	; 0x40
 8001aca:	2201      	movs	r2, #1
 8001acc:	4013      	ands	r3, r2
 8001ace:	607b      	str	r3, [r7, #4]
 8001ad0:	687b      	ldr	r3, [r7, #4]
  __HAL_RCC_PWR_CLK_ENABLE();
 8001ad2:	4b0b      	ldr	r3, [pc, #44]	; (8001b00 <HAL_MspInit+0x4c>)
 8001ad4:	6bda      	ldr	r2, [r3, #60]	; 0x3c
 8001ad6:	4b0a      	ldr	r3, [pc, #40]	; (8001b00 <HAL_MspInit+0x4c>)
 8001ad8:	2180      	movs	r1, #128	; 0x80
 8001ada:	0549      	lsls	r1, r1, #21
 8001adc:	430a      	orrs	r2, r1
 8001ade:	63da      	str	r2, [r3, #60]	; 0x3c
 8001ae0:	4b07      	ldr	r3, [pc, #28]	; (8001b00 <HAL_MspInit+0x4c>)
 8001ae2:	6bda      	ldr	r2, [r3, #60]	; 0x3c
 8001ae4:	2380      	movs	r3, #128	; 0x80
 8001ae6:	055b      	lsls	r3, r3, #21
 8001ae8:	4013      	ands	r3, r2
 8001aea:	603b      	str	r3, [r7, #0]
 8001aec:	683b      	ldr	r3, [r7, #0]

  /* System interrupt init*/

  /** Disable the internal Pull-Up in Dead Battery pins of UCPD peripheral
  */
  HAL_SYSCFG_StrobeDBattpinsConfig(SYSCFG_CFGR1_UCPD1_STROBE | SYSCFG_CFGR1_UCPD2_STROBE);
 8001aee:	23c0      	movs	r3, #192	; 0xc0
 8001af0:	00db      	lsls	r3, r3, #3
 8001af2:	0018      	movs	r0, r3
 8001af4:	f000 fb0c 	bl	8002110 <HAL_SYSCFG_StrobeDBattpinsConfig>

  /* USER CODE BEGIN MspInit 1 */

  /* USER CODE END MspInit 1 */
}
 8001af8:	46c0      	nop			; (mov r8, r8)
 8001afa:	46bd      	mov	sp, r7
 8001afc:	b002      	add	sp, #8
 8001afe:	bd80      	pop	{r7, pc}
 8001b00:	40021000 	.word	0x40021000

08001b04 <HAL_CRYP_MspInit>:
* This function configures the hardware resources used in this example
* @param hcryp: CRYP handle pointer
* @retval None
*/
void HAL_CRYP_MspInit(CRYP_HandleTypeDef* hcryp)
{
 8001b04:	b580      	push	{r7, lr}
 8001b06:	b084      	sub	sp, #16
 8001b08:	af00      	add	r7, sp, #0
 8001b0a:	6078      	str	r0, [r7, #4]
  if(hcryp->Instance==AES)
 8001b0c:	687b      	ldr	r3, [r7, #4]
 8001b0e:	681b      	ldr	r3, [r3, #0]
 8001b10:	4a0a      	ldr	r2, [pc, #40]	; (8001b3c <HAL_CRYP_MspInit+0x38>)
 8001b12:	4293      	cmp	r3, r2
 8001b14:	d10d      	bne.n	8001b32 <HAL_CRYP_MspInit+0x2e>
  {
  /* USER CODE BEGIN AES_MspInit 0 */

  /* USER CODE END AES_MspInit 0 */
    /* Peripheral clock enable */
    __HAL_RCC_AES_CLK_ENABLE();
 8001b16:	4b0a      	ldr	r3, [pc, #40]	; (8001b40 <HAL_CRYP_MspInit+0x3c>)
 8001b18:	6b9a      	ldr	r2, [r3, #56]	; 0x38
 8001b1a:	4b09      	ldr	r3, [pc, #36]	; (8001b40 <HAL_CRYP_MspInit+0x3c>)
 8001b1c:	2180      	movs	r1, #128	; 0x80
 8001b1e:	0249      	lsls	r1, r1, #9
 8001b20:	430a      	orrs	r2, r1
 8001b22:	639a      	str	r2, [r3, #56]	; 0x38
 8001b24:	4b06      	ldr	r3, [pc, #24]	; (8001b40 <HAL_CRYP_MspInit+0x3c>)
 8001b26:	6b9a      	ldr	r2, [r3, #56]	; 0x38
 8001b28:	2380      	movs	r3, #128	; 0x80
 8001b2a:	025b      	lsls	r3, r3, #9
 8001b2c:	4013      	ands	r3, r2
 8001b2e:	60fb      	str	r3, [r7, #12]
 8001b30:	68fb      	ldr	r3, [r7, #12]
  /* USER CODE BEGIN AES_MspInit 1 */

  /* USER CODE END AES_MspInit 1 */
  }

}
 8001b32:	46c0      	nop			; (mov r8, r8)
 8001b34:	46bd      	mov	sp, r7
 8001b36:	b004      	add	sp, #16
 8001b38:	bd80      	pop	{r7, pc}
 8001b3a:	46c0      	nop			; (mov r8, r8)
 8001b3c:	40026000 	.word	0x40026000
 8001b40:	40021000 	.word	0x40021000

08001b44 <HAL_CRC_MspInit>:
* This function configures the hardware resources used in this example
* @param hcrc: CRC handle pointer
* @retval None
*/
void HAL_CRC_MspInit(CRC_HandleTypeDef* hcrc)
{
 8001b44:	b580      	push	{r7, lr}
 8001b46:	b084      	sub	sp, #16
 8001b48:	af00      	add	r7, sp, #0
 8001b4a:	6078      	str	r0, [r7, #4]
  if(hcrc->Instance==CRC)
 8001b4c:	687b      	ldr	r3, [r7, #4]
 8001b4e:	681b      	ldr	r3, [r3, #0]
 8001b50:	4a0a      	ldr	r2, [pc, #40]	; (8001b7c <HAL_CRC_MspInit+0x38>)
 8001b52:	4293      	cmp	r3, r2
 8001b54:	d10d      	bne.n	8001b72 <HAL_CRC_MspInit+0x2e>
  {
  /* USER CODE BEGIN CRC_MspInit 0 */

  /* USER CODE END CRC_MspInit 0 */
    /* Peripheral clock enable */
    __HAL_RCC_CRC_CLK_ENABLE();
 8001b56:	4b0a      	ldr	r3, [pc, #40]	; (8001b80 <HAL_CRC_MspInit+0x3c>)
 8001b58:	6b9a      	ldr	r2, [r3, #56]	; 0x38
 8001b5a:	4b09      	ldr	r3, [pc, #36]	; (8001b80 <HAL_CRC_MspInit+0x3c>)
 8001b5c:	2180      	movs	r1, #128	; 0x80
 8001b5e:	0149      	lsls	r1, r1, #5
 8001b60:	430a      	orrs	r2, r1
 8001b62:	639a      	str	r2, [r3, #56]	; 0x38
 8001b64:	4b06      	ldr	r3, [pc, #24]	; (8001b80 <HAL_CRC_MspInit+0x3c>)
 8001b66:	6b9a      	ldr	r2, [r3, #56]	; 0x38
 8001b68:	2380      	movs	r3, #128	; 0x80
 8001b6a:	015b      	lsls	r3, r3, #5
 8001b6c:	4013      	ands	r3, r2
 8001b6e:	60fb      	str	r3, [r7, #12]
 8001b70:	68fb      	ldr	r3, [r7, #12]
  /* USER CODE BEGIN CRC_MspInit 1 */

  /* USER CODE END CRC_MspInit 1 */
  }

}
 8001b72:	46c0      	nop			; (mov r8, r8)
 8001b74:	46bd      	mov	sp, r7
 8001b76:	b004      	add	sp, #16
 8001b78:	bd80      	pop	{r7, pc}
 8001b7a:	46c0      	nop			; (mov r8, r8)
 8001b7c:	40023000 	.word	0x40023000
 8001b80:	40021000 	.word	0x40021000

08001b84 <HAL_RNG_MspInit>:
* This function configures the hardware resources used in this example
* @param hrng: RNG handle pointer
* @retval None
*/
void HAL_RNG_MspInit(RNG_HandleTypeDef* hrng)
{
 8001b84:	b580      	push	{r7, lr}
 8001b86:	b084      	sub	sp, #16
 8001b88:	af00      	add	r7, sp, #0
 8001b8a:	6078      	str	r0, [r7, #4]
  if(hrng->Instance==RNG)
 8001b8c:	687b      	ldr	r3, [r7, #4]
 8001b8e:	681b      	ldr	r3, [r3, #0]
 8001b90:	4a0a      	ldr	r2, [pc, #40]	; (8001bbc <HAL_RNG_MspInit+0x38>)
 8001b92:	4293      	cmp	r3, r2
 8001b94:	d10d      	bne.n	8001bb2 <HAL_RNG_MspInit+0x2e>
  {
  /* USER CODE BEGIN RNG_MspInit 0 */

  /* USER CODE END RNG_MspInit 0 */
    /* Peripheral clock enable */
    __HAL_RCC_RNG_CLK_ENABLE();
 8001b96:	4b0a      	ldr	r3, [pc, #40]	; (8001bc0 <HAL_RNG_MspInit+0x3c>)
 8001b98:	6b9a      	ldr	r2, [r3, #56]	; 0x38
 8001b9a:	4b09      	ldr	r3, [pc, #36]	; (8001bc0 <HAL_RNG_MspInit+0x3c>)
 8001b9c:	2180      	movs	r1, #128	; 0x80
 8001b9e:	02c9      	lsls	r1, r1, #11
 8001ba0:	430a      	orrs	r2, r1
 8001ba2:	639a      	str	r2, [r3, #56]	; 0x38
 8001ba4:	4b06      	ldr	r3, [pc, #24]	; (8001bc0 <HAL_RNG_MspInit+0x3c>)
 8001ba6:	6b9a      	ldr	r2, [r3, #56]	; 0x38
 8001ba8:	2380      	movs	r3, #128	; 0x80
 8001baa:	02db      	lsls	r3, r3, #11
 8001bac:	4013      	ands	r3, r2
 8001bae:	60fb      	str	r3, [r7, #12]
 8001bb0:	68fb      	ldr	r3, [r7, #12]
  /* USER CODE BEGIN RNG_MspInit 1 */

  /* USER CODE END RNG_MspInit 1 */
  }

}
 8001bb2:	46c0      	nop			; (mov r8, r8)
 8001bb4:	46bd      	mov	sp, r7
 8001bb6:	b004      	add	sp, #16
 8001bb8:	bd80      	pop	{r7, pc}
 8001bba:	46c0      	nop			; (mov r8, r8)
 8001bbc:	40025000 	.word	0x40025000
 8001bc0:	40021000 	.word	0x40021000

08001bc4 <HAL_SPI_MspInit>:
* This function configures the hardware resources used in this example
* @param hspi: SPI handle pointer
* @retval None
*/
void HAL_SPI_MspInit(SPI_HandleTypeDef* hspi)
{
 8001bc4:	b580      	push	{r7, lr}
 8001bc6:	b08a      	sub	sp, #40	; 0x28
 8001bc8:	af00      	add	r7, sp, #0
 8001bca:	6078      	str	r0, [r7, #4]
  GPIO_InitTypeDef GPIO_InitStruct = {0};
 8001bcc:	2314      	movs	r3, #20
 8001bce:	18fb      	adds	r3, r7, r3
 8001bd0:	0018      	movs	r0, r3
 8001bd2:	2314      	movs	r3, #20
 8001bd4:	001a      	movs	r2, r3
 8001bd6:	2100      	movs	r1, #0
 8001bd8:	f006 fc3b 	bl	8008452 <memset>
  if(hspi->Instance==SPI1)
 8001bdc:	687b      	ldr	r3, [r7, #4]
 8001bde:	681b      	ldr	r3, [r3, #0]
 8001be0:	4a1b      	ldr	r2, [pc, #108]	; (8001c50 <HAL_SPI_MspInit+0x8c>)
 8001be2:	4293      	cmp	r3, r2
 8001be4:	d130      	bne.n	8001c48 <HAL_SPI_MspInit+0x84>
  {
  /* USER CODE BEGIN SPI1_MspInit 0 */

  /* USER CODE END SPI1_MspInit 0 */
    /* Peripheral clock enable */
    __HAL_RCC_SPI1_CLK_ENABLE();
 8001be6:	4b1b      	ldr	r3, [pc, #108]	; (8001c54 <HAL_SPI_MspInit+0x90>)
 8001be8:	6c1a      	ldr	r2, [r3, #64]	; 0x40
 8001bea:	4b1a      	ldr	r3, [pc, #104]	; (8001c54 <HAL_SPI_MspInit+0x90>)
 8001bec:	2180      	movs	r1, #128	; 0x80
 8001bee:	0149      	lsls	r1, r1, #5
 8001bf0:	430a      	orrs	r2, r1
 8001bf2:	641a      	str	r2, [r3, #64]	; 0x40
 8001bf4:	4b17      	ldr	r3, [pc, #92]	; (8001c54 <HAL_SPI_MspInit+0x90>)
 8001bf6:	6c1a      	ldr	r2, [r3, #64]	; 0x40
 8001bf8:	2380      	movs	r3, #128	; 0x80
 8001bfa:	015b      	lsls	r3, r3, #5
 8001bfc:	4013      	ands	r3, r2
 8001bfe:	613b      	str	r3, [r7, #16]
 8001c00:	693b      	ldr	r3, [r7, #16]

    __HAL_RCC_GPIOA_CLK_ENABLE();
 8001c02:	4b14      	ldr	r3, [pc, #80]	; (8001c54 <HAL_SPI_MspInit+0x90>)
 8001c04:	6b5a      	ldr	r2, [r3, #52]	; 0x34
 8001c06:	4b13      	ldr	r3, [pc, #76]	; (8001c54 <HAL_SPI_MspInit+0x90>)
 8001c08:	2101      	movs	r1, #1
 8001c0a:	430a      	orrs	r2, r1
 8001c0c:	635a      	str	r2, [r3, #52]	; 0x34
 8001c0e:	4b11      	ldr	r3, [pc, #68]	; (8001c54 <HAL_SPI_MspInit+0x90>)
 8001c10:	6b5b      	ldr	r3, [r3, #52]	; 0x34
 8001c12:	2201      	movs	r2, #1
 8001c14:	4013      	ands	r3, r2
 8001c16:	60fb      	str	r3, [r7, #12]
 8001c18:	68fb      	ldr	r3, [r7, #12]
    /**SPI1 GPIO Configuration
    PA1     ------> SPI1_SCK
    PA2     ------> SPI1_MOSI
    PA6     ------> SPI1_MISO
    */
    GPIO_InitStruct.Pin = GPIO_PIN_1|GPIO_PIN_2|GPIO_PIN_6;
 8001c1a:	2114      	movs	r1, #20
 8001c1c:	187b      	adds	r3, r7, r1
 8001c1e:	2246      	movs	r2, #70	; 0x46
 8001c20:	601a      	str	r2, [r3, #0]
    GPIO_InitStruct.Mode = GPIO_MODE_AF_PP;
 8001c22:	187b      	adds	r3, r7, r1
 8001c24:	2202      	movs	r2, #2
 8001c26:	605a      	str	r2, [r3, #4]
    GPIO_InitStruct.Pull = GPIO_NOPULL;
 8001c28:	187b      	adds	r3, r7, r1
 8001c2a:	2200      	movs	r2, #0
 8001c2c:	609a      	str	r2, [r3, #8]
    GPIO_InitStruct.Speed = GPIO_SPEED_FREQ_LOW;
 8001c2e:	187b      	adds	r3, r7, r1
 8001c30:	2200      	movs	r2, #0
 8001c32:	60da      	str	r2, [r3, #12]
    GPIO_InitStruct.Alternate = GPIO_AF0_SPI1;
 8001c34:	187b      	adds	r3, r7, r1
 8001c36:	2200      	movs	r2, #0
 8001c38:	611a      	str	r2, [r3, #16]
    HAL_GPIO_Init(GPIOA, &GPIO_InitStruct);
 8001c3a:	187a      	adds	r2, r7, r1
 8001c3c:	23a0      	movs	r3, #160	; 0xa0
 8001c3e:	05db      	lsls	r3, r3, #23
 8001c40:	0011      	movs	r1, r2
 8001c42:	0018      	movs	r0, r3
 8001c44:	f001 ff5a 	bl	8003afc <HAL_GPIO_Init>
  /* USER CODE BEGIN SPI1_MspInit 1 */

  /* USER CODE END SPI1_MspInit 1 */
  }

}
 8001c48:	46c0      	nop			; (mov r8, r8)
 8001c4a:	46bd      	mov	sp, r7
 8001c4c:	b00a      	add	sp, #40	; 0x28
 8001c4e:	bd80      	pop	{r7, pc}
 8001c50:	40013000 	.word	0x40013000
 8001c54:	40021000 	.word	0x40021000

08001c58 <HAL_TIM_PWM_MspInit>:
* This function configures the hardware resources used in this example
* @param htim_pwm: TIM_PWM handle pointer
* @retval None
*/
void HAL_TIM_PWM_MspInit(TIM_HandleTypeDef* htim_pwm)
{
 8001c58:	b580      	push	{r7, lr}
 8001c5a:	b084      	sub	sp, #16
 8001c5c:	af00      	add	r7, sp, #0
 8001c5e:	6078      	str	r0, [r7, #4]
  if(htim_pwm->Instance==TIM1)
 8001c60:	687b      	ldr	r3, [r7, #4]
 8001c62:	681b      	ldr	r3, [r3, #0]
 8001c64:	4a0a      	ldr	r2, [pc, #40]	; (8001c90 <HAL_TIM_PWM_MspInit+0x38>)
 8001c66:	4293      	cmp	r3, r2
 8001c68:	d10d      	bne.n	8001c86 <HAL_TIM_PWM_MspInit+0x2e>
  {
  /* USER CODE BEGIN TIM1_MspInit 0 */

  /* USER CODE END TIM1_MspInit 0 */
    /* Peripheral clock enable */
    __HAL_RCC_TIM1_CLK_ENABLE();
 8001c6a:	4b0a      	ldr	r3, [pc, #40]	; (8001c94 <HAL_TIM_PWM_MspInit+0x3c>)
 8001c6c:	6c1a      	ldr	r2, [r3, #64]	; 0x40
 8001c6e:	4b09      	ldr	r3, [pc, #36]	; (8001c94 <HAL_TIM_PWM_MspInit+0x3c>)
 8001c70:	2180      	movs	r1, #128	; 0x80
 8001c72:	0109      	lsls	r1, r1, #4
 8001c74:	430a      	orrs	r2, r1
 8001c76:	641a      	str	r2, [r3, #64]	; 0x40
 8001c78:	4b06      	ldr	r3, [pc, #24]	; (8001c94 <HAL_TIM_PWM_MspInit+0x3c>)
 8001c7a:	6c1a      	ldr	r2, [r3, #64]	; 0x40
 8001c7c:	2380      	movs	r3, #128	; 0x80
 8001c7e:	011b      	lsls	r3, r3, #4
 8001c80:	4013      	ands	r3, r2
 8001c82:	60fb      	str	r3, [r7, #12]
 8001c84:	68fb      	ldr	r3, [r7, #12]
  /* USER CODE BEGIN TIM1_MspInit 1 */

  /* USER CODE END TIM1_MspInit 1 */
  }

}
 8001c86:	46c0      	nop			; (mov r8, r8)
 8001c88:	46bd      	mov	sp, r7
 8001c8a:	b004      	add	sp, #16
 8001c8c:	bd80      	pop	{r7, pc}
 8001c8e:	46c0      	nop			; (mov r8, r8)
 8001c90:	40012c00 	.word	0x40012c00
 8001c94:	40021000 	.word	0x40021000

08001c98 <HAL_TIM_Base_MspInit>:
* This function configures the hardware resources used in this example
* @param htim_base: TIM_Base handle pointer
* @retval None
*/
void HAL_TIM_Base_MspInit(TIM_HandleTypeDef* htim_base)
{
 8001c98:	b580      	push	{r7, lr}
 8001c9a:	b084      	sub	sp, #16
 8001c9c:	af00      	add	r7, sp, #0
 8001c9e:	6078      	str	r0, [r7, #4]
  if(htim_base->Instance==TIM16)
 8001ca0:	687b      	ldr	r3, [r7, #4]
 8001ca2:	681b      	ldr	r3, [r3, #0]
 8001ca4:	4a0e      	ldr	r2, [pc, #56]	; (8001ce0 <HAL_TIM_Base_MspInit+0x48>)
 8001ca6:	4293      	cmp	r3, r2
 8001ca8:	d115      	bne.n	8001cd6 <HAL_TIM_Base_MspInit+0x3e>
  {
  /* USER CODE BEGIN TIM16_MspInit 0 */

  /* USER CODE END TIM16_MspInit 0 */
    /* Peripheral clock enable */
    __HAL_RCC_TIM16_CLK_ENABLE();
 8001caa:	4b0e      	ldr	r3, [pc, #56]	; (8001ce4 <HAL_TIM_Base_MspInit+0x4c>)
 8001cac:	6c1a      	ldr	r2, [r3, #64]	; 0x40
 8001cae:	4b0d      	ldr	r3, [pc, #52]	; (8001ce4 <HAL_TIM_Base_MspInit+0x4c>)
 8001cb0:	2180      	movs	r1, #128	; 0x80
 8001cb2:	0289      	lsls	r1, r1, #10
 8001cb4:	430a      	orrs	r2, r1
 8001cb6:	641a      	str	r2, [r3, #64]	; 0x40
 8001cb8:	4b0a      	ldr	r3, [pc, #40]	; (8001ce4 <HAL_TIM_Base_MspInit+0x4c>)
 8001cba:	6c1a      	ldr	r2, [r3, #64]	; 0x40
 8001cbc:	2380      	movs	r3, #128	; 0x80
 8001cbe:	029b      	lsls	r3, r3, #10
 8001cc0:	4013      	ands	r3, r2
 8001cc2:	60fb      	str	r3, [r7, #12]
 8001cc4:	68fb      	ldr	r3, [r7, #12]
    /* TIM16 interrupt Init */
    HAL_NVIC_SetPriority(TIM16_IRQn, 2, 0);
 8001cc6:	2200      	movs	r2, #0
 8001cc8:	2102      	movs	r1, #2
 8001cca:	2015      	movs	r0, #21
 8001ccc:	f000 fae2 	bl	8002294 <HAL_NVIC_SetPriority>
    HAL_NVIC_EnableIRQ(TIM16_IRQn);
 8001cd0:	2015      	movs	r0, #21
 8001cd2:	f000 faf4 	bl	80022be <HAL_NVIC_EnableIRQ>
  /* USER CODE BEGIN TIM16_MspInit 1 */

  /* USER CODE END TIM16_MspInit 1 */
  }

}
 8001cd6:	46c0      	nop			; (mov r8, r8)
 8001cd8:	46bd      	mov	sp, r7
 8001cda:	b004      	add	sp, #16
 8001cdc:	bd80      	pop	{r7, pc}
 8001cde:	46c0      	nop			; (mov r8, r8)
 8001ce0:	40014400 	.word	0x40014400
 8001ce4:	40021000 	.word	0x40021000

08001ce8 <HAL_TIM_MspPostInit>:

void HAL_TIM_MspPostInit(TIM_HandleTypeDef* htim)
{
 8001ce8:	b580      	push	{r7, lr}
 8001cea:	b088      	sub	sp, #32
 8001cec:	af00      	add	r7, sp, #0
 8001cee:	6078      	str	r0, [r7, #4]
  GPIO_InitTypeDef GPIO_InitStruct = {0};
 8001cf0:	230c      	movs	r3, #12
 8001cf2:	18fb      	adds	r3, r7, r3
 8001cf4:	0018      	movs	r0, r3
 8001cf6:	2314      	movs	r3, #20
 8001cf8:	001a      	movs	r2, r3
 8001cfa:	2100      	movs	r1, #0
 8001cfc:	f006 fba9 	bl	8008452 <memset>
  if(htim->Instance==TIM1)
 8001d00:	687b      	ldr	r3, [r7, #4]
 8001d02:	681b      	ldr	r3, [r3, #0]
 8001d04:	4a15      	ldr	r2, [pc, #84]	; (8001d5c <HAL_TIM_MspPostInit+0x74>)
 8001d06:	4293      	cmp	r3, r2
 8001d08:	d123      	bne.n	8001d52 <HAL_TIM_MspPostInit+0x6a>
  {
  /* USER CODE BEGIN TIM1_MspPostInit 0 */

  /* USER CODE END TIM1_MspPostInit 0 */

    __HAL_RCC_GPIOA_CLK_ENABLE();
 8001d0a:	4b15      	ldr	r3, [pc, #84]	; (8001d60 <HAL_TIM_MspPostInit+0x78>)
 8001d0c:	6b5a      	ldr	r2, [r3, #52]	; 0x34
 8001d0e:	4b14      	ldr	r3, [pc, #80]	; (8001d60 <HAL_TIM_MspPostInit+0x78>)
 8001d10:	2101      	movs	r1, #1
 8001d12:	430a      	orrs	r2, r1
 8001d14:	635a      	str	r2, [r3, #52]	; 0x34
 8001d16:	4b12      	ldr	r3, [pc, #72]	; (8001d60 <HAL_TIM_MspPostInit+0x78>)
 8001d18:	6b5b      	ldr	r3, [r3, #52]	; 0x34
 8001d1a:	2201      	movs	r2, #1
 8001d1c:	4013      	ands	r3, r2
 8001d1e:	60bb      	str	r3, [r7, #8]
 8001d20:	68bb      	ldr	r3, [r7, #8]
    /**TIM1 GPIO Configuration
    PA8     ------> TIM1_CH1
    */
    GPIO_InitStruct.Pin = VIBE_PWM_Pin;
 8001d22:	210c      	movs	r1, #12
 8001d24:	187b      	adds	r3, r7, r1
 8001d26:	2280      	movs	r2, #128	; 0x80
 8001d28:	0052      	lsls	r2, r2, #1
 8001d2a:	601a      	str	r2, [r3, #0]
    GPIO_InitStruct.Mode = GPIO_MODE_AF_PP;
 8001d2c:	187b      	adds	r3, r7, r1
 8001d2e:	2202      	movs	r2, #2
 8001d30:	605a      	str	r2, [r3, #4]
    GPIO_InitStruct.Pull = GPIO_NOPULL;
 8001d32:	187b      	adds	r3, r7, r1
 8001d34:	2200      	movs	r2, #0
 8001d36:	609a      	str	r2, [r3, #8]
    GPIO_InitStruct.Speed = GPIO_SPEED_FREQ_LOW;
 8001d38:	187b      	adds	r3, r7, r1
 8001d3a:	2200      	movs	r2, #0
 8001d3c:	60da      	str	r2, [r3, #12]
    GPIO_InitStruct.Alternate = GPIO_AF2_TIM1;
 8001d3e:	187b      	adds	r3, r7, r1
 8001d40:	2202      	movs	r2, #2
 8001d42:	611a      	str	r2, [r3, #16]
    HAL_GPIO_Init(VIBE_PWM_GPIO_Port, &GPIO_InitStruct);
 8001d44:	187a      	adds	r2, r7, r1
 8001d46:	23a0      	movs	r3, #160	; 0xa0
 8001d48:	05db      	lsls	r3, r3, #23
 8001d4a:	0011      	movs	r1, r2
 8001d4c:	0018      	movs	r0, r3
 8001d4e:	f001 fed5 	bl	8003afc <HAL_GPIO_Init>
  /* USER CODE BEGIN TIM1_MspPostInit 1 */

  /* USER CODE END TIM1_MspPostInit 1 */
  }

}
 8001d52:	46c0      	nop			; (mov r8, r8)
 8001d54:	46bd      	mov	sp, r7
 8001d56:	b008      	add	sp, #32
 8001d58:	bd80      	pop	{r7, pc}
 8001d5a:	46c0      	nop			; (mov r8, r8)
 8001d5c:	40012c00 	.word	0x40012c00
 8001d60:	40021000 	.word	0x40021000

08001d64 <NMI_Handler>:
/******************************************************************************/
/**
  * @brief This function handles Non maskable interrupt.
  */
void NMI_Handler(void)
{
 8001d64:	b580      	push	{r7, lr}
 8001d66:	af00      	add	r7, sp, #0
  /* USER CODE BEGIN NonMaskableInt_IRQn 0 */

  /* USER CODE END NonMaskableInt_IRQn 0 */
  /* USER CODE BEGIN NonMaskableInt_IRQn 1 */
  while (1)
 8001d68:	e7fe      	b.n	8001d68 <NMI_Handler+0x4>

08001d6a <HardFault_Handler>:

/**
  * @brief This function handles Hard fault interrupt.
  */
void HardFault_Handler(void)
{
 8001d6a:	b580      	push	{r7, lr}
 8001d6c:	af00      	add	r7, sp, #0
  /* USER CODE BEGIN HardFault_IRQn 0 */

  /* USER CODE END HardFault_IRQn 0 */
  while (1)
 8001d6e:	e7fe      	b.n	8001d6e <HardFault_Handler+0x4>

08001d70 <SVC_Handler>:

/**
  * @brief This function handles System service call via SWI instruction.
  */
void SVC_Handler(void)
{
 8001d70:	b580      	push	{r7, lr}
 8001d72:	af00      	add	r7, sp, #0

  /* USER CODE END SVC_IRQn 0 */
  /* USER CODE BEGIN SVC_IRQn 1 */

  /* USER CODE END SVC_IRQn 1 */
}
 8001d74:	46c0      	nop			; (mov r8, r8)
 8001d76:	46bd      	mov	sp, r7
 8001d78:	bd80      	pop	{r7, pc}

08001d7a <PendSV_Handler>:

/**
  * @brief This function handles Pendable request for system service.
  */
void PendSV_Handler(void)
{
 8001d7a:	b580      	push	{r7, lr}
 8001d7c:	af00      	add	r7, sp, #0

  /* USER CODE END PendSV_IRQn 0 */
  /* USER CODE BEGIN PendSV_IRQn 1 */

  /* USER CODE END PendSV_IRQn 1 */
}
 8001d7e:	46c0      	nop			; (mov r8, r8)
 8001d80:	46bd      	mov	sp, r7
 8001d82:	bd80      	pop	{r7, pc}

08001d84 <SysTick_Handler>:

/**
  * @brief This function handles System tick timer.
  */
void SysTick_Handler(void)
{
 8001d84:	b580      	push	{r7, lr}
 8001d86:	af00      	add	r7, sp, #0
  /* USER CODE BEGIN SysTick_IRQn 0 */

  /* USER CODE END SysTick_IRQn 0 */
  HAL_IncTick();
 8001d88:	f000 f984 	bl	8002094 <HAL_IncTick>
  /* USER CODE BEGIN SysTick_IRQn 1 */

  /* USER CODE END SysTick_IRQn 1 */
}
 8001d8c:	46c0      	nop			; (mov r8, r8)
 8001d8e:	46bd      	mov	sp, r7
 8001d90:	bd80      	pop	{r7, pc}

08001d92 <EXTI0_1_IRQHandler>:

/**
  * @brief This function handles EXTI line 0 and line 1 interrupts.
  */
void EXTI0_1_IRQHandler(void)
{
 8001d92:	b580      	push	{r7, lr}
 8001d94:	af00      	add	r7, sp, #0
  /* USER CODE BEGIN EXTI0_1_IRQn 0 */

  /* USER CODE END EXTI0_1_IRQn 0 */
  HAL_GPIO_EXTI_IRQHandler(GPIO_PIN_0);
 8001d96:	2001      	movs	r0, #1
 8001d98:	f002 f86a 	bl	8003e70 <HAL_GPIO_EXTI_IRQHandler>
  /* USER CODE BEGIN EXTI0_1_IRQn 1 */

  /* USER CODE END EXTI0_1_IRQn 1 */
}
 8001d9c:	46c0      	nop			; (mov r8, r8)
 8001d9e:	46bd      	mov	sp, r7
 8001da0:	bd80      	pop	{r7, pc}

08001da2 <EXTI4_15_IRQHandler>:

/**
  * @brief This function handles EXTI line 4 to 15 interrupts.
  */
void EXTI4_15_IRQHandler(void)
{
 8001da2:	b580      	push	{r7, lr}
 8001da4:	af00      	add	r7, sp, #0
  /* USER CODE BEGIN EXTI4_15_IRQn 0 */

  /* USER CODE END EXTI4_15_IRQn 0 */
  HAL_GPIO_EXTI_IRQHandler(GPIO_PIN_8);
 8001da6:	2380      	movs	r3, #128	; 0x80
 8001da8:	005b      	lsls	r3, r3, #1
 8001daa:	0018      	movs	r0, r3
 8001dac:	f002 f860 	bl	8003e70 <HAL_GPIO_EXTI_IRQHandler>
  HAL_GPIO_EXTI_IRQHandler(GPIO_PIN_13);
 8001db0:	2380      	movs	r3, #128	; 0x80
 8001db2:	019b      	lsls	r3, r3, #6
 8001db4:	0018      	movs	r0, r3
 8001db6:	f002 f85b 	bl	8003e70 <HAL_GPIO_EXTI_IRQHandler>
  /* USER CODE BEGIN EXTI4_15_IRQn 1 */

  /* USER CODE END EXTI4_15_IRQn 1 */
}
 8001dba:	46c0      	nop			; (mov r8, r8)
 8001dbc:	46bd      	mov	sp, r7
 8001dbe:	bd80      	pop	{r7, pc}

08001dc0 <TIM16_IRQHandler>:

/**
  * @brief This function handles TIM16 global interrupt.
  */
void TIM16_IRQHandler(void)
{
 8001dc0:	b580      	push	{r7, lr}
 8001dc2:	af00      	add	r7, sp, #0
  /* USER CODE BEGIN TIM16_IRQn 0 */

  /* USER CODE END TIM16_IRQn 0 */
  HAL_TIM_IRQHandler(&htim16);
 8001dc4:	4b03      	ldr	r3, [pc, #12]	; (8001dd4 <TIM16_IRQHandler+0x14>)
 8001dc6:	0018      	movs	r0, r3
 8001dc8:	f004 f8bc 	bl	8005f44 <HAL_TIM_IRQHandler>
  /* USER CODE BEGIN TIM16_IRQn 1 */

  /* USER CODE END TIM16_IRQn 1 */
}
 8001dcc:	46c0      	nop			; (mov r8, r8)
 8001dce:	46bd      	mov	sp, r7
 8001dd0:	bd80      	pop	{r7, pc}
 8001dd2:	46c0      	nop			; (mov r8, r8)
 8001dd4:	2000072c 	.word	0x2000072c

08001dd8 <_getpid>:
void initialise_monitor_handles()
{
}

int _getpid(void)
{
 8001dd8:	b580      	push	{r7, lr}
 8001dda:	af00      	add	r7, sp, #0
	return 1;
 8001ddc:	2301      	movs	r3, #1
}
 8001dde:	0018      	movs	r0, r3
 8001de0:	46bd      	mov	sp, r7
 8001de2:	bd80      	pop	{r7, pc}

08001de4 <_kill>:

int _kill(int pid, int sig)
{
 8001de4:	b580      	push	{r7, lr}
 8001de6:	b082      	sub	sp, #8
 8001de8:	af00      	add	r7, sp, #0
 8001dea:	6078      	str	r0, [r7, #4]
 8001dec:	6039      	str	r1, [r7, #0]
	errno = EINVAL;
 8001dee:	f006 fae3 	bl	80083b8 <__errno>
 8001df2:	0003      	movs	r3, r0
 8001df4:	2216      	movs	r2, #22
 8001df6:	601a      	str	r2, [r3, #0]
	return -1;
 8001df8:	2301      	movs	r3, #1
 8001dfa:	425b      	negs	r3, r3
}
 8001dfc:	0018      	movs	r0, r3
 8001dfe:	46bd      	mov	sp, r7
 8001e00:	b002      	add	sp, #8
 8001e02:	bd80      	pop	{r7, pc}

08001e04 <_exit>:

void _exit (int status)
{
 8001e04:	b580      	push	{r7, lr}
 8001e06:	b082      	sub	sp, #8
 8001e08:	af00      	add	r7, sp, #0
 8001e0a:	6078      	str	r0, [r7, #4]
	_kill(status, -1);
 8001e0c:	2301      	movs	r3, #1
 8001e0e:	425a      	negs	r2, r3
 8001e10:	687b      	ldr	r3, [r7, #4]
 8001e12:	0011      	movs	r1, r2
 8001e14:	0018      	movs	r0, r3
 8001e16:	f7ff ffe5 	bl	8001de4 <_kill>
	while (1) {}		/* Make sure we hang here */
 8001e1a:	e7fe      	b.n	8001e1a <_exit+0x16>

08001e1c <_read>:
}

__attribute__((weak)) int _read(int file, char *ptr, int len)
{
 8001e1c:	b580      	push	{r7, lr}
 8001e1e:	b086      	sub	sp, #24
 8001e20:	af00      	add	r7, sp, #0
 8001e22:	60f8      	str	r0, [r7, #12]
 8001e24:	60b9      	str	r1, [r7, #8]
 8001e26:	607a      	str	r2, [r7, #4]
	int DataIdx;

	for (DataIdx = 0; DataIdx < len; DataIdx++)
 8001e28:	2300      	movs	r3, #0
 8001e2a:	617b      	str	r3, [r7, #20]
 8001e2c:	e00a      	b.n	8001e44 <_read+0x28>
	{
		*ptr++ = __io_getchar();
 8001e2e:	e000      	b.n	8001e32 <_read+0x16>
 8001e30:	bf00      	nop
 8001e32:	0001      	movs	r1, r0
 8001e34:	68bb      	ldr	r3, [r7, #8]
 8001e36:	1c5a      	adds	r2, r3, #1
 8001e38:	60ba      	str	r2, [r7, #8]
 8001e3a:	b2ca      	uxtb	r2, r1
 8001e3c:	701a      	strb	r2, [r3, #0]
	for (DataIdx = 0; DataIdx < len; DataIdx++)
 8001e3e:	697b      	ldr	r3, [r7, #20]
 8001e40:	3301      	adds	r3, #1
 8001e42:	617b      	str	r3, [r7, #20]
 8001e44:	697a      	ldr	r2, [r7, #20]
 8001e46:	687b      	ldr	r3, [r7, #4]
 8001e48:	429a      	cmp	r2, r3
 8001e4a:	dbf0      	blt.n	8001e2e <_read+0x12>
	}

return len;
 8001e4c:	687b      	ldr	r3, [r7, #4]
}
 8001e4e:	0018      	movs	r0, r3
 8001e50:	46bd      	mov	sp, r7
 8001e52:	b006      	add	sp, #24
 8001e54:	bd80      	pop	{r7, pc}

08001e56 <_write>:

__attribute__((weak)) int _write(int file, char *ptr, int len)
{
 8001e56:	b580      	push	{r7, lr}
 8001e58:	b086      	sub	sp, #24
 8001e5a:	af00      	add	r7, sp, #0
 8001e5c:	60f8      	str	r0, [r7, #12]
 8001e5e:	60b9      	str	r1, [r7, #8]
 8001e60:	607a      	str	r2, [r7, #4]
	int DataIdx;

	for (DataIdx = 0; DataIdx < len; DataIdx++)
 8001e62:	2300      	movs	r3, #0
 8001e64:	617b      	str	r3, [r7, #20]
 8001e66:	e009      	b.n	8001e7c <_write+0x26>
	{
		__io_putchar(*ptr++);
 8001e68:	68bb      	ldr	r3, [r7, #8]
 8001e6a:	1c5a      	adds	r2, r3, #1
 8001e6c:	60ba      	str	r2, [r7, #8]
 8001e6e:	781b      	ldrb	r3, [r3, #0]
 8001e70:	0018      	movs	r0, r3
 8001e72:	e000      	b.n	8001e76 <_write+0x20>
 8001e74:	bf00      	nop
	for (DataIdx = 0; DataIdx < len; DataIdx++)
 8001e76:	697b      	ldr	r3, [r7, #20]
 8001e78:	3301      	adds	r3, #1
 8001e7a:	617b      	str	r3, [r7, #20]
 8001e7c:	697a      	ldr	r2, [r7, #20]
 8001e7e:	687b      	ldr	r3, [r7, #4]
 8001e80:	429a      	cmp	r2, r3
 8001e82:	dbf1      	blt.n	8001e68 <_write+0x12>
	}
	return len;
 8001e84:	687b      	ldr	r3, [r7, #4]
}
 8001e86:	0018      	movs	r0, r3
 8001e88:	46bd      	mov	sp, r7
 8001e8a:	b006      	add	sp, #24
 8001e8c:	bd80      	pop	{r7, pc}

08001e8e <_close>:

int _close(int file)
{
 8001e8e:	b580      	push	{r7, lr}
 8001e90:	b082      	sub	sp, #8
 8001e92:	af00      	add	r7, sp, #0
 8001e94:	6078      	str	r0, [r7, #4]
	return -1;
 8001e96:	2301      	movs	r3, #1
 8001e98:	425b      	negs	r3, r3
}
 8001e9a:	0018      	movs	r0, r3
 8001e9c:	46bd      	mov	sp, r7
 8001e9e:	b002      	add	sp, #8
 8001ea0:	bd80      	pop	{r7, pc}

08001ea2 <_fstat>:


int _fstat(int file, struct stat *st)
{
 8001ea2:	b580      	push	{r7, lr}
 8001ea4:	b082      	sub	sp, #8
 8001ea6:	af00      	add	r7, sp, #0
 8001ea8:	6078      	str	r0, [r7, #4]
 8001eaa:	6039      	str	r1, [r7, #0]
	st->st_mode = S_IFCHR;
 8001eac:	683b      	ldr	r3, [r7, #0]
 8001eae:	2280      	movs	r2, #128	; 0x80
 8001eb0:	0192      	lsls	r2, r2, #6
 8001eb2:	605a      	str	r2, [r3, #4]
	return 0;
 8001eb4:	2300      	movs	r3, #0
}
 8001eb6:	0018      	movs	r0, r3
 8001eb8:	46bd      	mov	sp, r7
 8001eba:	b002      	add	sp, #8
 8001ebc:	bd80      	pop	{r7, pc}

08001ebe <_isatty>:

int _isatty(int file)
{
 8001ebe:	b580      	push	{r7, lr}
 8001ec0:	b082      	sub	sp, #8
 8001ec2:	af00      	add	r7, sp, #0
 8001ec4:	6078      	str	r0, [r7, #4]
	return 1;
 8001ec6:	2301      	movs	r3, #1
}
 8001ec8:	0018      	movs	r0, r3
 8001eca:	46bd      	mov	sp, r7
 8001ecc:	b002      	add	sp, #8
 8001ece:	bd80      	pop	{r7, pc}

08001ed0 <_lseek>:

int _lseek(int file, int ptr, int dir)
{
 8001ed0:	b580      	push	{r7, lr}
 8001ed2:	b084      	sub	sp, #16
 8001ed4:	af00      	add	r7, sp, #0
 8001ed6:	60f8      	str	r0, [r7, #12]
 8001ed8:	60b9      	str	r1, [r7, #8]
 8001eda:	607a      	str	r2, [r7, #4]
	return 0;
 8001edc:	2300      	movs	r3, #0
}
 8001ede:	0018      	movs	r0, r3
 8001ee0:	46bd      	mov	sp, r7
 8001ee2:	b004      	add	sp, #16
 8001ee4:	bd80      	pop	{r7, pc}
	...

08001ee8 <_sbrk>:
 *
 * @param incr Memory size
 * @return Pointer to allocated memory
 */
void *_sbrk(ptrdiff_t incr)
{
 8001ee8:	b580      	push	{r7, lr}
 8001eea:	b086      	sub	sp, #24
 8001eec:	af00      	add	r7, sp, #0
 8001eee:	6078      	str	r0, [r7, #4]
  extern uint8_t _end; /* Symbol defined in the linker script */
  extern uint8_t _estack; /* Symbol defined in the linker script */
  extern uint32_t _Min_Stack_Size; /* Symbol defined in the linker script */
  const uint32_t stack_limit = (uint32_t)&_estack - (uint32_t)&_Min_Stack_Size;
 8001ef0:	4a14      	ldr	r2, [pc, #80]	; (8001f44 <_sbrk+0x5c>)
 8001ef2:	4b15      	ldr	r3, [pc, #84]	; (8001f48 <_sbrk+0x60>)
 8001ef4:	1ad3      	subs	r3, r2, r3
 8001ef6:	617b      	str	r3, [r7, #20]
  const uint8_t *max_heap = (uint8_t *)stack_limit;
 8001ef8:	697b      	ldr	r3, [r7, #20]
 8001efa:	613b      	str	r3, [r7, #16]
  uint8_t *prev_heap_end;

  /* Initialize heap end at first call */
  if (NULL == __sbrk_heap_end)
 8001efc:	4b13      	ldr	r3, [pc, #76]	; (8001f4c <_sbrk+0x64>)
 8001efe:	681b      	ldr	r3, [r3, #0]
 8001f00:	2b00      	cmp	r3, #0
 8001f02:	d102      	bne.n	8001f0a <_sbrk+0x22>
  {
    __sbrk_heap_end = &_end;
 8001f04:	4b11      	ldr	r3, [pc, #68]	; (8001f4c <_sbrk+0x64>)
 8001f06:	4a12      	ldr	r2, [pc, #72]	; (8001f50 <_sbrk+0x68>)
 8001f08:	601a      	str	r2, [r3, #0]
  }

  /* Protect heap from growing into the reserved MSP stack */
  if (__sbrk_heap_end + incr > max_heap)
 8001f0a:	4b10      	ldr	r3, [pc, #64]	; (8001f4c <_sbrk+0x64>)
 8001f0c:	681a      	ldr	r2, [r3, #0]
 8001f0e:	687b      	ldr	r3, [r7, #4]
 8001f10:	18d3      	adds	r3, r2, r3
 8001f12:	693a      	ldr	r2, [r7, #16]
 8001f14:	429a      	cmp	r2, r3
 8001f16:	d207      	bcs.n	8001f28 <_sbrk+0x40>
  {
    errno = ENOMEM;
 8001f18:	f006 fa4e 	bl	80083b8 <__errno>
 8001f1c:	0003      	movs	r3, r0
 8001f1e:	220c      	movs	r2, #12
 8001f20:	601a      	str	r2, [r3, #0]
    return (void *)-1;
 8001f22:	2301      	movs	r3, #1
 8001f24:	425b      	negs	r3, r3
 8001f26:	e009      	b.n	8001f3c <_sbrk+0x54>
  }

  prev_heap_end = __sbrk_heap_end;
 8001f28:	4b08      	ldr	r3, [pc, #32]	; (8001f4c <_sbrk+0x64>)
 8001f2a:	681b      	ldr	r3, [r3, #0]
 8001f2c:	60fb      	str	r3, [r7, #12]
  __sbrk_heap_end += incr;
 8001f2e:	4b07      	ldr	r3, [pc, #28]	; (8001f4c <_sbrk+0x64>)
 8001f30:	681a      	ldr	r2, [r3, #0]
 8001f32:	687b      	ldr	r3, [r7, #4]
 8001f34:	18d2      	adds	r2, r2, r3
 8001f36:	4b05      	ldr	r3, [pc, #20]	; (8001f4c <_sbrk+0x64>)
 8001f38:	601a      	str	r2, [r3, #0]

  return (void *)prev_heap_end;
 8001f3a:	68fb      	ldr	r3, [r7, #12]
}
 8001f3c:	0018      	movs	r0, r3
 8001f3e:	46bd      	mov	sp, r7
 8001f40:	b006      	add	sp, #24
 8001f42:	bd80      	pop	{r7, pc}
 8001f44:	20009000 	.word	0x20009000
 8001f48:	00000400 	.word	0x00000400
 8001f4c:	20000524 	.word	0x20000524
 8001f50:	200008a0 	.word	0x200008a0

08001f54 <SystemInit>:
  * @brief  Setup the microcontroller system.
  * @param  None
  * @retval None
  */
void SystemInit(void)
{
 8001f54:	b580      	push	{r7, lr}
 8001f56:	af00      	add	r7, sp, #0
  /* Configure the Vector Table location add offset address ------------------*/
#ifdef VECT_TAB_SRAM
  SCB->VTOR = SRAM_BASE | VECT_TAB_OFFSET; /* Vector Table Relocation in Internal SRAM */
#else
  SCB->VTOR = FLASH_BASE | VECT_TAB_OFFSET; /* Vector Table Relocation in Internal FLASH */
 8001f58:	4b03      	ldr	r3, [pc, #12]	; (8001f68 <SystemInit+0x14>)
 8001f5a:	2280      	movs	r2, #128	; 0x80
 8001f5c:	0512      	lsls	r2, r2, #20
 8001f5e:	609a      	str	r2, [r3, #8]
#endif
}
 8001f60:	46c0      	nop			; (mov r8, r8)
 8001f62:	46bd      	mov	sp, r7
 8001f64:	bd80      	pop	{r7, pc}
 8001f66:	46c0      	nop			; (mov r8, r8)
 8001f68:	e000ed00 	.word	0xe000ed00

08001f6c <Reset_Handler>:

  .section .text.Reset_Handler
  .weak Reset_Handler
  .type Reset_Handler, %function
Reset_Handler:
  ldr   r0, =_estack
 8001f6c:	480d      	ldr	r0, [pc, #52]	; (8001fa4 <LoopForever+0x2>)
  mov   sp, r0          /* set stack pointer */
 8001f6e:	4685      	mov	sp, r0

/* Call the clock system initialization function.*/
  bl  SystemInit
 8001f70:	f7ff fff0 	bl	8001f54 <SystemInit>

/* Copy the data segment initializers from flash to SRAM */
  ldr r0, =_sdata
 8001f74:	480c      	ldr	r0, [pc, #48]	; (8001fa8 <LoopForever+0x6>)
  ldr r1, =_edata
 8001f76:	490d      	ldr	r1, [pc, #52]	; (8001fac <LoopForever+0xa>)
  ldr r2, =_sidata
 8001f78:	4a0d      	ldr	r2, [pc, #52]	; (8001fb0 <LoopForever+0xe>)
  movs r3, #0
 8001f7a:	2300      	movs	r3, #0
  b LoopCopyDataInit
 8001f7c:	e002      	b.n	8001f84 <LoopCopyDataInit>

08001f7e <CopyDataInit>:

CopyDataInit:
  ldr r4, [r2, r3]
 8001f7e:	58d4      	ldr	r4, [r2, r3]
  str r4, [r0, r3]
 8001f80:	50c4      	str	r4, [r0, r3]
  adds r3, r3, #4
 8001f82:	3304      	adds	r3, #4

08001f84 <LoopCopyDataInit>:

LoopCopyDataInit:
  adds r4, r0, r3
 8001f84:	18c4      	adds	r4, r0, r3
  cmp r4, r1
 8001f86:	428c      	cmp	r4, r1
  bcc CopyDataInit
 8001f88:	d3f9      	bcc.n	8001f7e <CopyDataInit>

/* Zero fill the bss segment. */
  ldr r2, =_sbss
 8001f8a:	4a0a      	ldr	r2, [pc, #40]	; (8001fb4 <LoopForever+0x12>)
  ldr r4, =_ebss
 8001f8c:	4c0a      	ldr	r4, [pc, #40]	; (8001fb8 <LoopForever+0x16>)
  movs r3, #0
 8001f8e:	2300      	movs	r3, #0
  b LoopFillZerobss
 8001f90:	e001      	b.n	8001f96 <LoopFillZerobss>

08001f92 <FillZerobss>:

FillZerobss:
  str  r3, [r2]
 8001f92:	6013      	str	r3, [r2, #0]
  adds r2, r2, #4
 8001f94:	3204      	adds	r2, #4

08001f96 <LoopFillZerobss>:

LoopFillZerobss:
  cmp r2, r4
 8001f96:	42a2      	cmp	r2, r4
  bcc FillZerobss
 8001f98:	d3fb      	bcc.n	8001f92 <FillZerobss>

/* Call static constructors */
  bl __libc_init_array
 8001f9a:	f006 fa23 	bl	80083e4 <__libc_init_array>
/* Call the application s entry point.*/
  bl main
 8001f9e:	f7fe f969 	bl	8000274 <main>

08001fa2 <LoopForever>:

LoopForever:
  b LoopForever
 8001fa2:	e7fe      	b.n	8001fa2 <LoopForever>
  ldr   r0, =_estack
 8001fa4:	20009000 	.word	0x20009000
  ldr r0, =_sdata
 8001fa8:	20000000 	.word	0x20000000
  ldr r1, =_edata
 8001fac:	200000f4 	.word	0x200000f4
  ldr r2, =_sidata
 8001fb0:	08009634 	.word	0x08009634
  ldr r2, =_sbss
 8001fb4:	200000f8 	.word	0x200000f8
  ldr r4, =_ebss
 8001fb8:	2000089c 	.word	0x2000089c

08001fbc <ADC1_COMP_IRQHandler>:
 * @retval None
*/
  .section .text.Default_Handler,"ax",%progbits
Default_Handler:
Infinite_Loop:
  b Infinite_Loop
 8001fbc:	e7fe      	b.n	8001fbc <ADC1_COMP_IRQHandler>
	...

08001fc0 <HAL_Init>:
  *         each 1ms in the SysTick_Handler() interrupt handler.
  *
  * @retval HAL status
  */
HAL_StatusTypeDef HAL_Init(void)
{
 8001fc0:	b580      	push	{r7, lr}
 8001fc2:	b082      	sub	sp, #8
 8001fc4:	af00      	add	r7, sp, #0
  HAL_StatusTypeDef  status = HAL_OK;
 8001fc6:	1dfb      	adds	r3, r7, #7
 8001fc8:	2200      	movs	r2, #0
 8001fca:	701a      	strb	r2, [r3, #0]
#if (INSTRUCTION_CACHE_ENABLE == 0U)
  __HAL_FLASH_INSTRUCTION_CACHE_DISABLE();
#endif /* INSTRUCTION_CACHE_ENABLE */

#if (PREFETCH_ENABLE != 0U)
  __HAL_FLASH_PREFETCH_BUFFER_ENABLE();
 8001fcc:	4b0b      	ldr	r3, [pc, #44]	; (8001ffc <HAL_Init+0x3c>)
 8001fce:	681a      	ldr	r2, [r3, #0]
 8001fd0:	4b0a      	ldr	r3, [pc, #40]	; (8001ffc <HAL_Init+0x3c>)
 8001fd2:	2180      	movs	r1, #128	; 0x80
 8001fd4:	0049      	lsls	r1, r1, #1
 8001fd6:	430a      	orrs	r2, r1
 8001fd8:	601a      	str	r2, [r3, #0]
#endif /* PREFETCH_ENABLE */

  /* Use SysTick as time base source and configure 1ms tick (default clock after Reset is HSI) */
  if (HAL_InitTick(TICK_INT_PRIORITY) != HAL_OK)
 8001fda:	2000      	movs	r0, #0
 8001fdc:	f000 f810 	bl	8002000 <HAL_InitTick>
 8001fe0:	1e03      	subs	r3, r0, #0
 8001fe2:	d003      	beq.n	8001fec <HAL_Init+0x2c>
  {
    status = HAL_ERROR;
 8001fe4:	1dfb      	adds	r3, r7, #7
 8001fe6:	2201      	movs	r2, #1
 8001fe8:	701a      	strb	r2, [r3, #0]
 8001fea:	e001      	b.n	8001ff0 <HAL_Init+0x30>
  }
  else
  {
  /* Init the low level hardware */
  HAL_MspInit();
 8001fec:	f7ff fd62 	bl	8001ab4 <HAL_MspInit>
  }

  /* Return function status */
  return status;
 8001ff0:	1dfb      	adds	r3, r7, #7
 8001ff2:	781b      	ldrb	r3, [r3, #0]
}
 8001ff4:	0018      	movs	r0, r3
 8001ff6:	46bd      	mov	sp, r7
 8001ff8:	b002      	add	sp, #8
 8001ffa:	bd80      	pop	{r7, pc}
 8001ffc:	40022000 	.word	0x40022000

08002000 <HAL_InitTick>:
  *       implementation  in user file.
  * @param TickPriority Tick interrupt priority.
  * @retval HAL status
  */
__weak HAL_StatusTypeDef HAL_InitTick(uint32_t TickPriority)
{
 8002000:	b590      	push	{r4, r7, lr}
 8002002:	b085      	sub	sp, #20
 8002004:	af00      	add	r7, sp, #0
 8002006:	6078      	str	r0, [r7, #4]
  HAL_StatusTypeDef  status = HAL_OK;
 8002008:	230f      	movs	r3, #15
 800200a:	18fb      	adds	r3, r7, r3
 800200c:	2200      	movs	r2, #0
 800200e:	701a      	strb	r2, [r3, #0]

  /* Check uwTickFreq for MisraC 2012 (even if uwTickFreq is a enum type that doesn't take the value zero)*/ 
  if ((uint32_t)uwTickFreq != 0U)
 8002010:	4b1d      	ldr	r3, [pc, #116]	; (8002088 <HAL_InitTick+0x88>)
 8002012:	781b      	ldrb	r3, [r3, #0]
 8002014:	2b00      	cmp	r3, #0
 8002016:	d02b      	beq.n	8002070 <HAL_InitTick+0x70>
  {
    /*Configure the SysTick to have interrupt in 1ms time basis*/
    if (HAL_SYSTICK_Config(SystemCoreClock / (1000U /(uint32_t)uwTickFreq)) == 0U)
 8002018:	4b1c      	ldr	r3, [pc, #112]	; (800208c <HAL_InitTick+0x8c>)
 800201a:	681c      	ldr	r4, [r3, #0]
 800201c:	4b1a      	ldr	r3, [pc, #104]	; (8002088 <HAL_InitTick+0x88>)
 800201e:	781b      	ldrb	r3, [r3, #0]
 8002020:	0019      	movs	r1, r3
 8002022:	23fa      	movs	r3, #250	; 0xfa
 8002024:	0098      	lsls	r0, r3, #2
 8002026:	f7fe f86f 	bl	8000108 <__udivsi3>
 800202a:	0003      	movs	r3, r0
 800202c:	0019      	movs	r1, r3
 800202e:	0020      	movs	r0, r4
 8002030:	f7fe f86a 	bl	8000108 <__udivsi3>
 8002034:	0003      	movs	r3, r0
 8002036:	0018      	movs	r0, r3
 8002038:	f000 f951 	bl	80022de <HAL_SYSTICK_Config>
 800203c:	1e03      	subs	r3, r0, #0
 800203e:	d112      	bne.n	8002066 <HAL_InitTick+0x66>
    {
      /* Configure the SysTick IRQ priority */
      if (TickPriority < (1UL << __NVIC_PRIO_BITS))
 8002040:	687b      	ldr	r3, [r7, #4]
 8002042:	2b03      	cmp	r3, #3
 8002044:	d80a      	bhi.n	800205c <HAL_InitTick+0x5c>
      {
        HAL_NVIC_SetPriority(SysTick_IRQn, TickPriority, 0U);
 8002046:	6879      	ldr	r1, [r7, #4]
 8002048:	2301      	movs	r3, #1
 800204a:	425b      	negs	r3, r3
 800204c:	2200      	movs	r2, #0
 800204e:	0018      	movs	r0, r3
 8002050:	f000 f920 	bl	8002294 <HAL_NVIC_SetPriority>
        uwTickPrio = TickPriority;
 8002054:	4b0e      	ldr	r3, [pc, #56]	; (8002090 <HAL_InitTick+0x90>)
 8002056:	687a      	ldr	r2, [r7, #4]
 8002058:	601a      	str	r2, [r3, #0]
 800205a:	e00d      	b.n	8002078 <HAL_InitTick+0x78>
      }
      else
      {
        status = HAL_ERROR;
 800205c:	230f      	movs	r3, #15
 800205e:	18fb      	adds	r3, r7, r3
 8002060:	2201      	movs	r2, #1
 8002062:	701a      	strb	r2, [r3, #0]
 8002064:	e008      	b.n	8002078 <HAL_InitTick+0x78>
      }
    }
    else
    {
      status = HAL_ERROR;
 8002066:	230f      	movs	r3, #15
 8002068:	18fb      	adds	r3, r7, r3
 800206a:	2201      	movs	r2, #1
 800206c:	701a      	strb	r2, [r3, #0]
 800206e:	e003      	b.n	8002078 <HAL_InitTick+0x78>
    }
  }
  else
  {
    status = HAL_ERROR;
 8002070:	230f      	movs	r3, #15
 8002072:	18fb      	adds	r3, r7, r3
 8002074:	2201      	movs	r2, #1
 8002076:	701a      	strb	r2, [r3, #0]
  }

  /* Return function status */
  return status;
 8002078:	230f      	movs	r3, #15
 800207a:	18fb      	adds	r3, r7, r3
 800207c:	781b      	ldrb	r3, [r3, #0]
}
 800207e:	0018      	movs	r0, r3
 8002080:	46bd      	mov	sp, r7
 8002082:	b005      	add	sp, #20
 8002084:	bd90      	pop	{r4, r7, pc}
 8002086:	46c0      	nop			; (mov r8, r8)
 8002088:	20000008 	.word	0x20000008
 800208c:	20000000 	.word	0x20000000
 8002090:	20000004 	.word	0x20000004

08002094 <HAL_IncTick>:
  * @note This function is declared as __weak to be overwritten in case of other
  *      implementations in user file.
  * @retval None
  */
__weak void HAL_IncTick(void)
{
 8002094:	b580      	push	{r7, lr}
 8002096:	af00      	add	r7, sp, #0
  uwTick += (uint32_t)uwTickFreq;
 8002098:	4b05      	ldr	r3, [pc, #20]	; (80020b0 <HAL_IncTick+0x1c>)
 800209a:	781b      	ldrb	r3, [r3, #0]
 800209c:	001a      	movs	r2, r3
 800209e:	4b05      	ldr	r3, [pc, #20]	; (80020b4 <HAL_IncTick+0x20>)
 80020a0:	681b      	ldr	r3, [r3, #0]
 80020a2:	18d2      	adds	r2, r2, r3
 80020a4:	4b03      	ldr	r3, [pc, #12]	; (80020b4 <HAL_IncTick+0x20>)
 80020a6:	601a      	str	r2, [r3, #0]
}
 80020a8:	46c0      	nop			; (mov r8, r8)
 80020aa:	46bd      	mov	sp, r7
 80020ac:	bd80      	pop	{r7, pc}
 80020ae:	46c0      	nop			; (mov r8, r8)
 80020b0:	20000008 	.word	0x20000008
 80020b4:	20000894 	.word	0x20000894

080020b8 <HAL_GetTick>:
  * @note This function is declared as __weak to be overwritten in case of other
  *       implementations in user file.
  * @retval tick value
  */
__weak uint32_t HAL_GetTick(void)
{
 80020b8:	b580      	push	{r7, lr}
 80020ba:	af00      	add	r7, sp, #0
  return uwTick;
 80020bc:	4b02      	ldr	r3, [pc, #8]	; (80020c8 <HAL_GetTick+0x10>)
 80020be:	681b      	ldr	r3, [r3, #0]
}
 80020c0:	0018      	movs	r0, r3
 80020c2:	46bd      	mov	sp, r7
 80020c4:	bd80      	pop	{r7, pc}
 80020c6:	46c0      	nop			; (mov r8, r8)
 80020c8:	20000894 	.word	0x20000894

080020cc <HAL_Delay>:
  *       implementations in user file.
  * @param Delay  specifies the delay time length, in milliseconds.
  * @retval None
  */
__weak void HAL_Delay(uint32_t Delay)
{
 80020cc:	b580      	push	{r7, lr}
 80020ce:	b084      	sub	sp, #16
 80020d0:	af00      	add	r7, sp, #0
 80020d2:	6078      	str	r0, [r7, #4]
  uint32_t tickstart = HAL_GetTick();
 80020d4:	f7ff fff0 	bl	80020b8 <HAL_GetTick>
 80020d8:	0003      	movs	r3, r0
 80020da:	60bb      	str	r3, [r7, #8]
  uint32_t wait = Delay;
 80020dc:	687b      	ldr	r3, [r7, #4]
 80020de:	60fb      	str	r3, [r7, #12]

  /* Add a freq to guarantee minimum wait */
  if (wait < HAL_MAX_DELAY)
 80020e0:	68fb      	ldr	r3, [r7, #12]
 80020e2:	3301      	adds	r3, #1
 80020e4:	d005      	beq.n	80020f2 <HAL_Delay+0x26>
  {
    wait += (uint32_t)(uwTickFreq);
 80020e6:	4b09      	ldr	r3, [pc, #36]	; (800210c <HAL_Delay+0x40>)
 80020e8:	781b      	ldrb	r3, [r3, #0]
 80020ea:	001a      	movs	r2, r3
 80020ec:	68fb      	ldr	r3, [r7, #12]
 80020ee:	189b      	adds	r3, r3, r2
 80020f0:	60fb      	str	r3, [r7, #12]
  }

  while ((HAL_GetTick() - tickstart) < wait)
 80020f2:	46c0      	nop			; (mov r8, r8)
 80020f4:	f7ff ffe0 	bl	80020b8 <HAL_GetTick>
 80020f8:	0002      	movs	r2, r0
 80020fa:	68bb      	ldr	r3, [r7, #8]
 80020fc:	1ad3      	subs	r3, r2, r3
 80020fe:	68fa      	ldr	r2, [r7, #12]
 8002100:	429a      	cmp	r2, r3
 8002102:	d8f7      	bhi.n	80020f4 <HAL_Delay+0x28>
  {
  }
}
 8002104:	46c0      	nop			; (mov r8, r8)
 8002106:	46bd      	mov	sp, r7
 8002108:	b004      	add	sp, #16
 800210a:	bd80      	pop	{r7, pc}
 800210c:	20000008 	.word	0x20000008

08002110 <HAL_SYSCFG_StrobeDBattpinsConfig>:
  *         @arg @ref SYSCFG_UCPD1_STROBE
  *         @arg @ref SYSCFG_UCPD2_STROBE
  * @retval None
  */
void HAL_SYSCFG_StrobeDBattpinsConfig(uint32_t ConfigDeadBattery)
{
 8002110:	b580      	push	{r7, lr}
 8002112:	b082      	sub	sp, #8
 8002114:	af00      	add	r7, sp, #0
 8002116:	6078      	str	r0, [r7, #4]
  assert_param(IS_SYSCFG_DBATT_CONFIG(ConfigDeadBattery));

  /* Change strobe configuration of GPIO depending on UCPDx dead battery settings */
  MODIFY_REG(SYSCFG->CFGR1, (SYSCFG_CFGR1_UCPD1_STROBE | SYSCFG_CFGR1_UCPD2_STROBE), ConfigDeadBattery);
 8002118:	4b06      	ldr	r3, [pc, #24]	; (8002134 <HAL_SYSCFG_StrobeDBattpinsConfig+0x24>)
 800211a:	681b      	ldr	r3, [r3, #0]
 800211c:	4a06      	ldr	r2, [pc, #24]	; (8002138 <HAL_SYSCFG_StrobeDBattpinsConfig+0x28>)
 800211e:	4013      	ands	r3, r2
 8002120:	0019      	movs	r1, r3
 8002122:	4b04      	ldr	r3, [pc, #16]	; (8002134 <HAL_SYSCFG_StrobeDBattpinsConfig+0x24>)
 8002124:	687a      	ldr	r2, [r7, #4]
 8002126:	430a      	orrs	r2, r1
 8002128:	601a      	str	r2, [r3, #0]
}
 800212a:	46c0      	nop			; (mov r8, r8)
 800212c:	46bd      	mov	sp, r7
 800212e:	b002      	add	sp, #8
 8002130:	bd80      	pop	{r7, pc}
 8002132:	46c0      	nop			; (mov r8, r8)
 8002134:	40010000 	.word	0x40010000
 8002138:	fffff9ff 	.word	0xfffff9ff

0800213c <__NVIC_EnableIRQ>:
  \details Enables a device specific interrupt in the NVIC interrupt controller.
  \param [in]      IRQn  Device specific interrupt number.
  \note    IRQn must not be negative.
 */
__STATIC_INLINE void __NVIC_EnableIRQ(IRQn_Type IRQn)
{
 800213c:	b580      	push	{r7, lr}
 800213e:	b082      	sub	sp, #8
 8002140:	af00      	add	r7, sp, #0
 8002142:	0002      	movs	r2, r0
 8002144:	1dfb      	adds	r3, r7, #7
 8002146:	701a      	strb	r2, [r3, #0]
  if ((int32_t)(IRQn) >= 0)
 8002148:	1dfb      	adds	r3, r7, #7
 800214a:	781b      	ldrb	r3, [r3, #0]
 800214c:	2b7f      	cmp	r3, #127	; 0x7f
 800214e:	d809      	bhi.n	8002164 <__NVIC_EnableIRQ+0x28>
  {
    __COMPILER_BARRIER();
    NVIC->ISER[0U] = (uint32_t)(1UL << (((uint32_t)IRQn) & 0x1FUL));
 8002150:	1dfb      	adds	r3, r7, #7
 8002152:	781b      	ldrb	r3, [r3, #0]
 8002154:	001a      	movs	r2, r3
 8002156:	231f      	movs	r3, #31
 8002158:	401a      	ands	r2, r3
 800215a:	4b04      	ldr	r3, [pc, #16]	; (800216c <__NVIC_EnableIRQ+0x30>)
 800215c:	2101      	movs	r1, #1
 800215e:	4091      	lsls	r1, r2
 8002160:	000a      	movs	r2, r1
 8002162:	601a      	str	r2, [r3, #0]
    __COMPILER_BARRIER();
  }
}
 8002164:	46c0      	nop			; (mov r8, r8)
 8002166:	46bd      	mov	sp, r7
 8002168:	b002      	add	sp, #8
 800216a:	bd80      	pop	{r7, pc}
 800216c:	e000e100 	.word	0xe000e100

08002170 <__NVIC_SetPriority>:
  \param [in]      IRQn  Interrupt number.
  \param [in]  priority  Priority to set.
  \note    The priority cannot be set for every processor exception.
 */
__STATIC_INLINE void __NVIC_SetPriority(IRQn_Type IRQn, uint32_t priority)
{
 8002170:	b590      	push	{r4, r7, lr}
 8002172:	b083      	sub	sp, #12
 8002174:	af00      	add	r7, sp, #0
 8002176:	0002      	movs	r2, r0
 8002178:	6039      	str	r1, [r7, #0]
 800217a:	1dfb      	adds	r3, r7, #7
 800217c:	701a      	strb	r2, [r3, #0]
  if ((int32_t)(IRQn) >= 0)
 800217e:	1dfb      	adds	r3, r7, #7
 8002180:	781b      	ldrb	r3, [r3, #0]
 8002182:	2b7f      	cmp	r3, #127	; 0x7f
 8002184:	d828      	bhi.n	80021d8 <__NVIC_SetPriority+0x68>
  {
    NVIC->IP[_IP_IDX(IRQn)]  = ((uint32_t)(NVIC->IP[_IP_IDX(IRQn)]  & ~(0xFFUL << _BIT_SHIFT(IRQn))) |
 8002186:	4a2f      	ldr	r2, [pc, #188]	; (8002244 <__NVIC_SetPriority+0xd4>)
 8002188:	1dfb      	adds	r3, r7, #7
 800218a:	781b      	ldrb	r3, [r3, #0]
 800218c:	b25b      	sxtb	r3, r3
 800218e:	089b      	lsrs	r3, r3, #2
 8002190:	33c0      	adds	r3, #192	; 0xc0
 8002192:	009b      	lsls	r3, r3, #2
 8002194:	589b      	ldr	r3, [r3, r2]
 8002196:	1dfa      	adds	r2, r7, #7
 8002198:	7812      	ldrb	r2, [r2, #0]
 800219a:	0011      	movs	r1, r2
 800219c:	2203      	movs	r2, #3
 800219e:	400a      	ands	r2, r1
 80021a0:	00d2      	lsls	r2, r2, #3
 80021a2:	21ff      	movs	r1, #255	; 0xff
 80021a4:	4091      	lsls	r1, r2
 80021a6:	000a      	movs	r2, r1
 80021a8:	43d2      	mvns	r2, r2
 80021aa:	401a      	ands	r2, r3
 80021ac:	0011      	movs	r1, r2
       (((priority << (8U - __NVIC_PRIO_BITS)) & (uint32_t)0xFFUL) << _BIT_SHIFT(IRQn)));
 80021ae:	683b      	ldr	r3, [r7, #0]
 80021b0:	019b      	lsls	r3, r3, #6
 80021b2:	22ff      	movs	r2, #255	; 0xff
 80021b4:	401a      	ands	r2, r3
 80021b6:	1dfb      	adds	r3, r7, #7
 80021b8:	781b      	ldrb	r3, [r3, #0]
 80021ba:	0018      	movs	r0, r3
 80021bc:	2303      	movs	r3, #3
 80021be:	4003      	ands	r3, r0
 80021c0:	00db      	lsls	r3, r3, #3
 80021c2:	409a      	lsls	r2, r3
    NVIC->IP[_IP_IDX(IRQn)]  = ((uint32_t)(NVIC->IP[_IP_IDX(IRQn)]  & ~(0xFFUL << _BIT_SHIFT(IRQn))) |
 80021c4:	481f      	ldr	r0, [pc, #124]	; (8002244 <__NVIC_SetPriority+0xd4>)
 80021c6:	1dfb      	adds	r3, r7, #7
 80021c8:	781b      	ldrb	r3, [r3, #0]
 80021ca:	b25b      	sxtb	r3, r3
 80021cc:	089b      	lsrs	r3, r3, #2
 80021ce:	430a      	orrs	r2, r1
 80021d0:	33c0      	adds	r3, #192	; 0xc0
 80021d2:	009b      	lsls	r3, r3, #2
 80021d4:	501a      	str	r2, [r3, r0]
  else
  {
    SCB->SHP[_SHP_IDX(IRQn)] = ((uint32_t)(SCB->SHP[_SHP_IDX(IRQn)] & ~(0xFFUL << _BIT_SHIFT(IRQn))) |
       (((priority << (8U - __NVIC_PRIO_BITS)) & (uint32_t)0xFFUL) << _BIT_SHIFT(IRQn)));
  }
}
 80021d6:	e031      	b.n	800223c <__NVIC_SetPriority+0xcc>
    SCB->SHP[_SHP_IDX(IRQn)] = ((uint32_t)(SCB->SHP[_SHP_IDX(IRQn)] & ~(0xFFUL << _BIT_SHIFT(IRQn))) |
 80021d8:	4a1b      	ldr	r2, [pc, #108]	; (8002248 <__NVIC_SetPriority+0xd8>)
 80021da:	1dfb      	adds	r3, r7, #7
 80021dc:	781b      	ldrb	r3, [r3, #0]
 80021de:	0019      	movs	r1, r3
 80021e0:	230f      	movs	r3, #15
 80021e2:	400b      	ands	r3, r1
 80021e4:	3b08      	subs	r3, #8
 80021e6:	089b      	lsrs	r3, r3, #2
 80021e8:	3306      	adds	r3, #6
 80021ea:	009b      	lsls	r3, r3, #2
 80021ec:	18d3      	adds	r3, r2, r3
 80021ee:	3304      	adds	r3, #4
 80021f0:	681b      	ldr	r3, [r3, #0]
 80021f2:	1dfa      	adds	r2, r7, #7
 80021f4:	7812      	ldrb	r2, [r2, #0]
 80021f6:	0011      	movs	r1, r2
 80021f8:	2203      	movs	r2, #3
 80021fa:	400a      	ands	r2, r1
 80021fc:	00d2      	lsls	r2, r2, #3
 80021fe:	21ff      	movs	r1, #255	; 0xff
 8002200:	4091      	lsls	r1, r2
 8002202:	000a      	movs	r2, r1
 8002204:	43d2      	mvns	r2, r2
 8002206:	401a      	ands	r2, r3
 8002208:	0011      	movs	r1, r2
       (((priority << (8U - __NVIC_PRIO_BITS)) & (uint32_t)0xFFUL) << _BIT_SHIFT(IRQn)));
 800220a:	683b      	ldr	r3, [r7, #0]
 800220c:	019b      	lsls	r3, r3, #6
 800220e:	22ff      	movs	r2, #255	; 0xff
 8002210:	401a      	ands	r2, r3
 8002212:	1dfb      	adds	r3, r7, #7
 8002214:	781b      	ldrb	r3, [r3, #0]
 8002216:	0018      	movs	r0, r3
 8002218:	2303      	movs	r3, #3
 800221a:	4003      	ands	r3, r0
 800221c:	00db      	lsls	r3, r3, #3
 800221e:	409a      	lsls	r2, r3
    SCB->SHP[_SHP_IDX(IRQn)] = ((uint32_t)(SCB->SHP[_SHP_IDX(IRQn)] & ~(0xFFUL << _BIT_SHIFT(IRQn))) |
 8002220:	4809      	ldr	r0, [pc, #36]	; (8002248 <__NVIC_SetPriority+0xd8>)
 8002222:	1dfb      	adds	r3, r7, #7
 8002224:	781b      	ldrb	r3, [r3, #0]
 8002226:	001c      	movs	r4, r3
 8002228:	230f      	movs	r3, #15
 800222a:	4023      	ands	r3, r4
 800222c:	3b08      	subs	r3, #8
 800222e:	089b      	lsrs	r3, r3, #2
 8002230:	430a      	orrs	r2, r1
 8002232:	3306      	adds	r3, #6
 8002234:	009b      	lsls	r3, r3, #2
 8002236:	18c3      	adds	r3, r0, r3
 8002238:	3304      	adds	r3, #4
 800223a:	601a      	str	r2, [r3, #0]
}
 800223c:	46c0      	nop			; (mov r8, r8)
 800223e:	46bd      	mov	sp, r7
 8002240:	b003      	add	sp, #12
 8002242:	bd90      	pop	{r4, r7, pc}
 8002244:	e000e100 	.word	0xe000e100
 8002248:	e000ed00 	.word	0xe000ed00

0800224c <SysTick_Config>:
  \note    When the variable <b>__Vendor_SysTickConfig</b> is set to 1, then the
           function <b>SysTick_Config</b> is not included. In this case, the file <b><i>device</i>.h</b>
           must contain a vendor-specific implementation of this function.
 */
__STATIC_INLINE uint32_t SysTick_Config(uint32_t ticks)
{
 800224c:	b580      	push	{r7, lr}
 800224e:	b082      	sub	sp, #8
 8002250:	af00      	add	r7, sp, #0
 8002252:	6078      	str	r0, [r7, #4]
  if ((ticks - 1UL) > SysTick_LOAD_RELOAD_Msk)
 8002254:	687b      	ldr	r3, [r7, #4]
 8002256:	3b01      	subs	r3, #1
 8002258:	4a0c      	ldr	r2, [pc, #48]	; (800228c <SysTick_Config+0x40>)
 800225a:	4293      	cmp	r3, r2
 800225c:	d901      	bls.n	8002262 <SysTick_Config+0x16>
  {
    return (1UL);                                                   /* Reload value impossible */
 800225e:	2301      	movs	r3, #1
 8002260:	e010      	b.n	8002284 <SysTick_Config+0x38>
  }

  SysTick->LOAD  = (uint32_t)(ticks - 1UL);                         /* set reload register */
 8002262:	4b0b      	ldr	r3, [pc, #44]	; (8002290 <SysTick_Config+0x44>)
 8002264:	687a      	ldr	r2, [r7, #4]
 8002266:	3a01      	subs	r2, #1
 8002268:	605a      	str	r2, [r3, #4]
  NVIC_SetPriority (SysTick_IRQn, (1UL << __NVIC_PRIO_BITS) - 1UL); /* set Priority for Systick Interrupt */
 800226a:	2301      	movs	r3, #1
 800226c:	425b      	negs	r3, r3
 800226e:	2103      	movs	r1, #3
 8002270:	0018      	movs	r0, r3
 8002272:	f7ff ff7d 	bl	8002170 <__NVIC_SetPriority>
  SysTick->VAL   = 0UL;                                             /* Load the SysTick Counter Value */
 8002276:	4b06      	ldr	r3, [pc, #24]	; (8002290 <SysTick_Config+0x44>)
 8002278:	2200      	movs	r2, #0
 800227a:	609a      	str	r2, [r3, #8]
  SysTick->CTRL  = SysTick_CTRL_CLKSOURCE_Msk |
 800227c:	4b04      	ldr	r3, [pc, #16]	; (8002290 <SysTick_Config+0x44>)
 800227e:	2207      	movs	r2, #7
 8002280:	601a      	str	r2, [r3, #0]
                   SysTick_CTRL_TICKINT_Msk   |
                   SysTick_CTRL_ENABLE_Msk;                         /* Enable SysTick IRQ and SysTick Timer */
  return (0UL);                                                     /* Function successful */
 8002282:	2300      	movs	r3, #0
}
 8002284:	0018      	movs	r0, r3
 8002286:	46bd      	mov	sp, r7
 8002288:	b002      	add	sp, #8
 800228a:	bd80      	pop	{r7, pc}
 800228c:	00ffffff 	.word	0x00ffffff
 8002290:	e000e010 	.word	0xe000e010

08002294 <HAL_NVIC_SetPriority>:
  *         with stm32g0xx devices, this parameter is a dummy value and it is ignored, because
  *         no subpriority supported in Cortex M0+ based products.
  * @retval None
  */
void HAL_NVIC_SetPriority(IRQn_Type IRQn, uint32_t PreemptPriority, uint32_t SubPriority)
{
 8002294:	b580      	push	{r7, lr}
 8002296:	b084      	sub	sp, #16
 8002298:	af00      	add	r7, sp, #0
 800229a:	60b9      	str	r1, [r7, #8]
 800229c:	607a      	str	r2, [r7, #4]
 800229e:	210f      	movs	r1, #15
 80022a0:	187b      	adds	r3, r7, r1
 80022a2:	1c02      	adds	r2, r0, #0
 80022a4:	701a      	strb	r2, [r3, #0]
  /* Check the parameters */
  assert_param(IS_NVIC_PREEMPTION_PRIORITY(PreemptPriority));
  NVIC_SetPriority(IRQn,PreemptPriority);
 80022a6:	68ba      	ldr	r2, [r7, #8]
 80022a8:	187b      	adds	r3, r7, r1
 80022aa:	781b      	ldrb	r3, [r3, #0]
 80022ac:	b25b      	sxtb	r3, r3
 80022ae:	0011      	movs	r1, r2
 80022b0:	0018      	movs	r0, r3
 80022b2:	f7ff ff5d 	bl	8002170 <__NVIC_SetPriority>
}
 80022b6:	46c0      	nop			; (mov r8, r8)
 80022b8:	46bd      	mov	sp, r7
 80022ba:	b004      	add	sp, #16
 80022bc:	bd80      	pop	{r7, pc}

080022be <HAL_NVIC_EnableIRQ>:
  *         This parameter can be an enumerator of IRQn_Type enumeration
  *         (For the complete STM32 Devices IRQ Channels list, please refer to the appropriate CMSIS device file (stm32g0xxxx.h))
  * @retval None
  */
void HAL_NVIC_EnableIRQ(IRQn_Type IRQn)
{
 80022be:	b580      	push	{r7, lr}
 80022c0:	b082      	sub	sp, #8
 80022c2:	af00      	add	r7, sp, #0
 80022c4:	0002      	movs	r2, r0
 80022c6:	1dfb      	adds	r3, r7, #7
 80022c8:	701a      	strb	r2, [r3, #0]
  /* Check the parameters */
  assert_param(IS_NVIC_DEVICE_IRQ(IRQn));

  /* Enable interrupt */
  NVIC_EnableIRQ(IRQn);
 80022ca:	1dfb      	adds	r3, r7, #7
 80022cc:	781b      	ldrb	r3, [r3, #0]
 80022ce:	b25b      	sxtb	r3, r3
 80022d0:	0018      	movs	r0, r3
 80022d2:	f7ff ff33 	bl	800213c <__NVIC_EnableIRQ>
}
 80022d6:	46c0      	nop			; (mov r8, r8)
 80022d8:	46bd      	mov	sp, r7
 80022da:	b002      	add	sp, #8
 80022dc:	bd80      	pop	{r7, pc}

080022de <HAL_SYSTICK_Config>:
  * @param  TicksNumb Specifies the ticks Number of ticks between two interrupts.
  * @retval status:  - 0  Function succeeded.
  *                  - 1  Function failed.
  */
uint32_t HAL_SYSTICK_Config(uint32_t TicksNumb)
{
 80022de:	b580      	push	{r7, lr}
 80022e0:	b082      	sub	sp, #8
 80022e2:	af00      	add	r7, sp, #0
 80022e4:	6078      	str	r0, [r7, #4]
  return SysTick_Config(TicksNumb);
 80022e6:	687b      	ldr	r3, [r7, #4]
 80022e8:	0018      	movs	r0, r3
 80022ea:	f7ff ffaf 	bl	800224c <SysTick_Config>
 80022ee:	0003      	movs	r3, r0
}
 80022f0:	0018      	movs	r0, r3
 80022f2:	46bd      	mov	sp, r7
 80022f4:	b002      	add	sp, #8
 80022f6:	bd80      	pop	{r7, pc}

080022f8 <HAL_CRC_Init>:
  *         parameters in the CRC_InitTypeDef and create the associated handle.
  * @param  hcrc CRC handle
  * @retval HAL status
  */
HAL_StatusTypeDef HAL_CRC_Init(CRC_HandleTypeDef *hcrc)
{
 80022f8:	b580      	push	{r7, lr}
 80022fa:	b082      	sub	sp, #8
 80022fc:	af00      	add	r7, sp, #0
 80022fe:	6078      	str	r0, [r7, #4]
  /* Check the CRC handle allocation */
  if (hcrc == NULL)
 8002300:	687b      	ldr	r3, [r7, #4]
 8002302:	2b00      	cmp	r3, #0
 8002304:	d101      	bne.n	800230a <HAL_CRC_Init+0x12>
  {
    return HAL_ERROR;
 8002306:	2301      	movs	r3, #1
 8002308:	e056      	b.n	80023b8 <HAL_CRC_Init+0xc0>
  }

  /* Check the parameters */
  assert_param(IS_CRC_ALL_INSTANCE(hcrc->Instance));

  if (hcrc->State == HAL_CRC_STATE_RESET)
 800230a:	687b      	ldr	r3, [r7, #4]
 800230c:	7f5b      	ldrb	r3, [r3, #29]
 800230e:	b2db      	uxtb	r3, r3
 8002310:	2b00      	cmp	r3, #0
 8002312:	d106      	bne.n	8002322 <HAL_CRC_Init+0x2a>
  {
    /* Allocate lock resource and initialize it */
    hcrc->Lock = HAL_UNLOCKED;
 8002314:	687b      	ldr	r3, [r7, #4]
 8002316:	2200      	movs	r2, #0
 8002318:	771a      	strb	r2, [r3, #28]
    /* Init the low level hardware */
    HAL_CRC_MspInit(hcrc);
 800231a:	687b      	ldr	r3, [r7, #4]
 800231c:	0018      	movs	r0, r3
 800231e:	f7ff fc11 	bl	8001b44 <HAL_CRC_MspInit>
  }

  hcrc->State = HAL_CRC_STATE_BUSY;
 8002322:	687b      	ldr	r3, [r7, #4]
 8002324:	2202      	movs	r2, #2
 8002326:	775a      	strb	r2, [r3, #29]

  /* check whether or not non-default generating polynomial has been
   * picked up by user */
  assert_param(IS_DEFAULT_POLYNOMIAL(hcrc->Init.DefaultPolynomialUse));
  if (hcrc->Init.DefaultPolynomialUse == DEFAULT_POLYNOMIAL_ENABLE)
 8002328:	687b      	ldr	r3, [r7, #4]
 800232a:	791b      	ldrb	r3, [r3, #4]
 800232c:	2b00      	cmp	r3, #0
 800232e:	d10c      	bne.n	800234a <HAL_CRC_Init+0x52>
  {
    /* initialize peripheral with default generating polynomial */
    WRITE_REG(hcrc->Instance->POL, DEFAULT_CRC32_POLY);
 8002330:	687b      	ldr	r3, [r7, #4]
 8002332:	681b      	ldr	r3, [r3, #0]
 8002334:	4a22      	ldr	r2, [pc, #136]	; (80023c0 <HAL_CRC_Init+0xc8>)
 8002336:	615a      	str	r2, [r3, #20]
    MODIFY_REG(hcrc->Instance->CR, CRC_CR_POLYSIZE, CRC_POLYLENGTH_32B);
 8002338:	687b      	ldr	r3, [r7, #4]
 800233a:	681b      	ldr	r3, [r3, #0]
 800233c:	689a      	ldr	r2, [r3, #8]
 800233e:	687b      	ldr	r3, [r7, #4]
 8002340:	681b      	ldr	r3, [r3, #0]
 8002342:	2118      	movs	r1, #24
 8002344:	438a      	bics	r2, r1
 8002346:	609a      	str	r2, [r3, #8]
 8002348:	e00b      	b.n	8002362 <HAL_CRC_Init+0x6a>
  }
  else
  {
    /* initialize CRC peripheral with generating polynomial defined by user */
    if (HAL_CRCEx_Polynomial_Set(hcrc, hcrc->Init.GeneratingPolynomial, hcrc->Init.CRCLength) != HAL_OK)
 800234a:	687b      	ldr	r3, [r7, #4]
 800234c:	6899      	ldr	r1, [r3, #8]
 800234e:	687b      	ldr	r3, [r7, #4]
 8002350:	68da      	ldr	r2, [r3, #12]
 8002352:	687b      	ldr	r3, [r7, #4]
 8002354:	0018      	movs	r0, r3
 8002356:	f000 f835 	bl	80023c4 <HAL_CRCEx_Polynomial_Set>
 800235a:	1e03      	subs	r3, r0, #0
 800235c:	d001      	beq.n	8002362 <HAL_CRC_Init+0x6a>
    {
      return HAL_ERROR;
 800235e:	2301      	movs	r3, #1
 8002360:	e02a      	b.n	80023b8 <HAL_CRC_Init+0xc0>
  }

  /* check whether or not non-default CRC initial value has been
   * picked up by user */
  assert_param(IS_DEFAULT_INIT_VALUE(hcrc->Init.DefaultInitValueUse));
  if (hcrc->Init.DefaultInitValueUse == DEFAULT_INIT_VALUE_ENABLE)
 8002362:	687b      	ldr	r3, [r7, #4]
 8002364:	795b      	ldrb	r3, [r3, #5]
 8002366:	2b00      	cmp	r3, #0
 8002368:	d105      	bne.n	8002376 <HAL_CRC_Init+0x7e>
  {
    WRITE_REG(hcrc->Instance->INIT, DEFAULT_CRC_INITVALUE);
 800236a:	687b      	ldr	r3, [r7, #4]
 800236c:	681b      	ldr	r3, [r3, #0]
 800236e:	2201      	movs	r2, #1
 8002370:	4252      	negs	r2, r2
 8002372:	611a      	str	r2, [r3, #16]
 8002374:	e004      	b.n	8002380 <HAL_CRC_Init+0x88>
  }
  else
  {
    WRITE_REG(hcrc->Instance->INIT, hcrc->Init.InitValue);
 8002376:	687b      	ldr	r3, [r7, #4]
 8002378:	681b      	ldr	r3, [r3, #0]
 800237a:	687a      	ldr	r2, [r7, #4]
 800237c:	6912      	ldr	r2, [r2, #16]
 800237e:	611a      	str	r2, [r3, #16]
  }


  /* set input data inversion mode */
  assert_param(IS_CRC_INPUTDATA_INVERSION_MODE(hcrc->Init.InputDataInversionMode));
  MODIFY_REG(hcrc->Instance->CR, CRC_CR_REV_IN, hcrc->Init.InputDataInversionMode);
 8002380:	687b      	ldr	r3, [r7, #4]
 8002382:	681b      	ldr	r3, [r3, #0]
 8002384:	689b      	ldr	r3, [r3, #8]
 8002386:	2260      	movs	r2, #96	; 0x60
 8002388:	4393      	bics	r3, r2
 800238a:	0019      	movs	r1, r3
 800238c:	687b      	ldr	r3, [r7, #4]
 800238e:	695a      	ldr	r2, [r3, #20]
 8002390:	687b      	ldr	r3, [r7, #4]
 8002392:	681b      	ldr	r3, [r3, #0]
 8002394:	430a      	orrs	r2, r1
 8002396:	609a      	str	r2, [r3, #8]

  /* set output data inversion mode */
  assert_param(IS_CRC_OUTPUTDATA_INVERSION_MODE(hcrc->Init.OutputDataInversionMode));
  MODIFY_REG(hcrc->Instance->CR, CRC_CR_REV_OUT, hcrc->Init.OutputDataInversionMode);
 8002398:	687b      	ldr	r3, [r7, #4]
 800239a:	681b      	ldr	r3, [r3, #0]
 800239c:	689b      	ldr	r3, [r3, #8]
 800239e:	2280      	movs	r2, #128	; 0x80
 80023a0:	4393      	bics	r3, r2
 80023a2:	0019      	movs	r1, r3
 80023a4:	687b      	ldr	r3, [r7, #4]
 80023a6:	699a      	ldr	r2, [r3, #24]
 80023a8:	687b      	ldr	r3, [r7, #4]
 80023aa:	681b      	ldr	r3, [r3, #0]
 80023ac:	430a      	orrs	r2, r1
 80023ae:	609a      	str	r2, [r3, #8]
  /* makes sure the input data format (bytes, halfwords or words stream)
   * is properly specified by user */
  assert_param(IS_CRC_INPUTDATA_FORMAT(hcrc->InputDataFormat));

  /* Change CRC peripheral state */
  hcrc->State = HAL_CRC_STATE_READY;
 80023b0:	687b      	ldr	r3, [r7, #4]
 80023b2:	2201      	movs	r2, #1
 80023b4:	775a      	strb	r2, [r3, #29]

  /* Return function status */
  return HAL_OK;
 80023b6:	2300      	movs	r3, #0
}
 80023b8:	0018      	movs	r0, r3
 80023ba:	46bd      	mov	sp, r7
 80023bc:	b002      	add	sp, #8
 80023be:	bd80      	pop	{r7, pc}
 80023c0:	04c11db7 	.word	0x04c11db7

080023c4 <HAL_CRCEx_Polynomial_Set>:
  *          @arg @ref CRC_POLYLENGTH_16B 16-bit long CRC (generating polynomial of degree 16)
  *          @arg @ref CRC_POLYLENGTH_32B 32-bit long CRC (generating polynomial of degree 32)
  * @retval HAL status
  */
HAL_StatusTypeDef HAL_CRCEx_Polynomial_Set(CRC_HandleTypeDef *hcrc, uint32_t Pol, uint32_t PolyLength)
{
 80023c4:	b580      	push	{r7, lr}
 80023c6:	b086      	sub	sp, #24
 80023c8:	af00      	add	r7, sp, #0
 80023ca:	60f8      	str	r0, [r7, #12]
 80023cc:	60b9      	str	r1, [r7, #8]
 80023ce:	607a      	str	r2, [r7, #4]
  HAL_StatusTypeDef status = HAL_OK;
 80023d0:	2317      	movs	r3, #23
 80023d2:	18fb      	adds	r3, r7, r3
 80023d4:	2200      	movs	r2, #0
 80023d6:	701a      	strb	r2, [r3, #0]
  uint32_t msb = 31U; /* polynomial degree is 32 at most, so msb is initialized to max value */
 80023d8:	231f      	movs	r3, #31
 80023da:	613b      	str	r3, [r7, #16]
   * definition. HAL_ERROR is reported if Pol degree is
   * larger than that indicated by PolyLength.
   * Look for MSB position: msb will contain the degree of
   *  the second to the largest polynomial member. E.g., for
   *  X^7 + X^6 + X^5 + X^2 + 1, msb = 6. */
  while ((msb-- > 0U) && ((Pol & ((uint32_t)(0x1U) << (msb & 0x1FU))) == 0U))
 80023dc:	46c0      	nop			; (mov r8, r8)
 80023de:	693b      	ldr	r3, [r7, #16]
 80023e0:	1e5a      	subs	r2, r3, #1
 80023e2:	613a      	str	r2, [r7, #16]
 80023e4:	2b00      	cmp	r3, #0
 80023e6:	d008      	beq.n	80023fa <HAL_CRCEx_Polynomial_Set+0x36>
 80023e8:	693b      	ldr	r3, [r7, #16]
 80023ea:	221f      	movs	r2, #31
 80023ec:	4013      	ands	r3, r2
 80023ee:	68ba      	ldr	r2, [r7, #8]
 80023f0:	40da      	lsrs	r2, r3
 80023f2:	0013      	movs	r3, r2
 80023f4:	2201      	movs	r2, #1
 80023f6:	4013      	ands	r3, r2
 80023f8:	d0f1      	beq.n	80023de <HAL_CRCEx_Polynomial_Set+0x1a>
  {
  }

  switch (PolyLength)
 80023fa:	687b      	ldr	r3, [r7, #4]
 80023fc:	2b08      	cmp	r3, #8
 80023fe:	d017      	beq.n	8002430 <HAL_CRCEx_Polynomial_Set+0x6c>
 8002400:	d802      	bhi.n	8002408 <HAL_CRCEx_Polynomial_Set+0x44>
 8002402:	2b00      	cmp	r3, #0
 8002404:	d021      	beq.n	800244a <HAL_CRCEx_Polynomial_Set+0x86>
 8002406:	e01b      	b.n	8002440 <HAL_CRCEx_Polynomial_Set+0x7c>
 8002408:	2b10      	cmp	r3, #16
 800240a:	d009      	beq.n	8002420 <HAL_CRCEx_Polynomial_Set+0x5c>
 800240c:	2b18      	cmp	r3, #24
 800240e:	d117      	bne.n	8002440 <HAL_CRCEx_Polynomial_Set+0x7c>
  {
    case CRC_POLYLENGTH_7B:
      if (msb >= HAL_CRC_LENGTH_7B)
 8002410:	693b      	ldr	r3, [r7, #16]
 8002412:	2b06      	cmp	r3, #6
 8002414:	d91b      	bls.n	800244e <HAL_CRCEx_Polynomial_Set+0x8a>
      {
        status =   HAL_ERROR;
 8002416:	2317      	movs	r3, #23
 8002418:	18fb      	adds	r3, r7, r3
 800241a:	2201      	movs	r2, #1
 800241c:	701a      	strb	r2, [r3, #0]
      }
      break;
 800241e:	e016      	b.n	800244e <HAL_CRCEx_Polynomial_Set+0x8a>
    case CRC_POLYLENGTH_8B:
      if (msb >= HAL_CRC_LENGTH_8B)
 8002420:	693b      	ldr	r3, [r7, #16]
 8002422:	2b07      	cmp	r3, #7
 8002424:	d915      	bls.n	8002452 <HAL_CRCEx_Polynomial_Set+0x8e>
      {
        status =   HAL_ERROR;
 8002426:	2317      	movs	r3, #23
 8002428:	18fb      	adds	r3, r7, r3
 800242a:	2201      	movs	r2, #1
 800242c:	701a      	strb	r2, [r3, #0]
      }
      break;
 800242e:	e010      	b.n	8002452 <HAL_CRCEx_Polynomial_Set+0x8e>
    case CRC_POLYLENGTH_16B:
      if (msb >= HAL_CRC_LENGTH_16B)
 8002430:	693b      	ldr	r3, [r7, #16]
 8002432:	2b0f      	cmp	r3, #15
 8002434:	d90f      	bls.n	8002456 <HAL_CRCEx_Polynomial_Set+0x92>
      {
        status =   HAL_ERROR;
 8002436:	2317      	movs	r3, #23
 8002438:	18fb      	adds	r3, r7, r3
 800243a:	2201      	movs	r2, #1
 800243c:	701a      	strb	r2, [r3, #0]
      }
      break;
 800243e:	e00a      	b.n	8002456 <HAL_CRCEx_Polynomial_Set+0x92>

    case CRC_POLYLENGTH_32B:
      /* no polynomial definition vs. polynomial length issue possible */
      break;
    default:
      status =  HAL_ERROR;
 8002440:	2317      	movs	r3, #23
 8002442:	18fb      	adds	r3, r7, r3
 8002444:	2201      	movs	r2, #1
 8002446:	701a      	strb	r2, [r3, #0]
      break;
 8002448:	e006      	b.n	8002458 <HAL_CRCEx_Polynomial_Set+0x94>
      break;
 800244a:	46c0      	nop			; (mov r8, r8)
 800244c:	e004      	b.n	8002458 <HAL_CRCEx_Polynomial_Set+0x94>
      break;
 800244e:	46c0      	nop			; (mov r8, r8)
 8002450:	e002      	b.n	8002458 <HAL_CRCEx_Polynomial_Set+0x94>
      break;
 8002452:	46c0      	nop			; (mov r8, r8)
 8002454:	e000      	b.n	8002458 <HAL_CRCEx_Polynomial_Set+0x94>
      break;
 8002456:	46c0      	nop			; (mov r8, r8)
  }
  if (status == HAL_OK)
 8002458:	2317      	movs	r3, #23
 800245a:	18fb      	adds	r3, r7, r3
 800245c:	781b      	ldrb	r3, [r3, #0]
 800245e:	2b00      	cmp	r3, #0
 8002460:	d10e      	bne.n	8002480 <HAL_CRCEx_Polynomial_Set+0xbc>
  {
    /* set generating polynomial */
    WRITE_REG(hcrc->Instance->POL, Pol);
 8002462:	68fb      	ldr	r3, [r7, #12]
 8002464:	681b      	ldr	r3, [r3, #0]
 8002466:	68ba      	ldr	r2, [r7, #8]
 8002468:	615a      	str	r2, [r3, #20]

    /* set generating polynomial size */
    MODIFY_REG(hcrc->Instance->CR, CRC_CR_POLYSIZE, PolyLength);
 800246a:	68fb      	ldr	r3, [r7, #12]
 800246c:	681b      	ldr	r3, [r3, #0]
 800246e:	689b      	ldr	r3, [r3, #8]
 8002470:	2218      	movs	r2, #24
 8002472:	4393      	bics	r3, r2
 8002474:	0019      	movs	r1, r3
 8002476:	68fb      	ldr	r3, [r7, #12]
 8002478:	681b      	ldr	r3, [r3, #0]
 800247a:	687a      	ldr	r2, [r7, #4]
 800247c:	430a      	orrs	r2, r1
 800247e:	609a      	str	r2, [r3, #8]
  }
  /* Return function status */
  return status;
 8002480:	2317      	movs	r3, #23
 8002482:	18fb      	adds	r3, r7, r3
 8002484:	781b      	ldrb	r3, [r3, #0]
}
 8002486:	0018      	movs	r0, r3
 8002488:	46bd      	mov	sp, r7
 800248a:	b006      	add	sp, #24
 800248c:	bd80      	pop	{r7, pc}
	...

08002490 <HAL_CRYP_Init>:
  * @param  hcryp pointer to a CRYP_HandleTypeDef structure that contains
  *         the configuration information for CRYP module
  * @retval HAL status
  */
HAL_StatusTypeDef HAL_CRYP_Init(CRYP_HandleTypeDef *hcryp)
{
 8002490:	b580      	push	{r7, lr}
 8002492:	b082      	sub	sp, #8
 8002494:	af00      	add	r7, sp, #0
 8002496:	6078      	str	r0, [r7, #4]
  /* Check the CRYP handle allocation */
  if (hcryp == NULL)
 8002498:	687b      	ldr	r3, [r7, #4]
 800249a:	2b00      	cmp	r3, #0
 800249c:	d101      	bne.n	80024a2 <HAL_CRYP_Init+0x12>
  {
    return HAL_ERROR;
 800249e:	2301      	movs	r3, #1
 80024a0:	e02d      	b.n	80024fe <HAL_CRYP_Init+0x6e>

    /* Init the low level hardware */
    hcryp->MspInitCallback(hcryp);
  }
#else
  if (hcryp->State == HAL_CRYP_STATE_RESET)
 80024a2:	687b      	ldr	r3, [r7, #4]
 80024a4:	2251      	movs	r2, #81	; 0x51
 80024a6:	5c9b      	ldrb	r3, [r3, r2]
 80024a8:	b2db      	uxtb	r3, r3
 80024aa:	2b00      	cmp	r3, #0
 80024ac:	d107      	bne.n	80024be <HAL_CRYP_Init+0x2e>
  {
    /* Allocate lock resource and initialize it */
    hcryp->Lock = HAL_UNLOCKED;
 80024ae:	687b      	ldr	r3, [r7, #4]
 80024b0:	2250      	movs	r2, #80	; 0x50
 80024b2:	2100      	movs	r1, #0
 80024b4:	5499      	strb	r1, [r3, r2]

    /* Init the low level hardware */
    HAL_CRYP_MspInit(hcryp);
 80024b6:	687b      	ldr	r3, [r7, #4]
 80024b8:	0018      	movs	r0, r3
 80024ba:	f7ff fb23 	bl	8001b04 <HAL_CRYP_MspInit>
  }
#endif /* (USE_HAL_CRYP_REGISTER_CALLBACKS) */

  /* Set the key size (This bit field is do not care in the DES or TDES modes), data type and Algorithm */
  MODIFY_REG(hcryp->Instance->CR, AES_CR_DATATYPE | AES_CR_KEYSIZE | AES_CR_CHMOD, hcryp->Init.DataType | hcryp->Init.KeySize | hcryp->Init.Algorithm);
 80024be:	687b      	ldr	r3, [r7, #4]
 80024c0:	681b      	ldr	r3, [r3, #0]
 80024c2:	681b      	ldr	r3, [r3, #0]
 80024c4:	4a10      	ldr	r2, [pc, #64]	; (8002508 <HAL_CRYP_Init+0x78>)
 80024c6:	4013      	ands	r3, r2
 80024c8:	0019      	movs	r1, r3
 80024ca:	687b      	ldr	r3, [r7, #4]
 80024cc:	685a      	ldr	r2, [r3, #4]
 80024ce:	687b      	ldr	r3, [r7, #4]
 80024d0:	689b      	ldr	r3, [r3, #8]
 80024d2:	431a      	orrs	r2, r3
 80024d4:	687b      	ldr	r3, [r7, #4]
 80024d6:	695b      	ldr	r3, [r3, #20]
 80024d8:	431a      	orrs	r2, r3
 80024da:	687b      	ldr	r3, [r7, #4]
 80024dc:	681b      	ldr	r3, [r3, #0]
 80024de:	430a      	orrs	r2, r1
 80024e0:	601a      	str	r2, [r3, #0]

  /* Reset Error Code field */
  hcryp->ErrorCode = HAL_CRYP_ERROR_NONE;
 80024e2:	687b      	ldr	r3, [r7, #4]
 80024e4:	2200      	movs	r2, #0
 80024e6:	655a      	str	r2, [r3, #84]	; 0x54

  /* Reset peripheral Key and IV configuration flag */
  hcryp->KeyIVConfig = 0U;
 80024e8:	687b      	ldr	r3, [r7, #4]
 80024ea:	2200      	movs	r2, #0
 80024ec:	659a      	str	r2, [r3, #88]	; 0x58

  /* Change the CRYP state */
  hcryp->State = HAL_CRYP_STATE_READY;
 80024ee:	687b      	ldr	r3, [r7, #4]
 80024f0:	2251      	movs	r2, #81	; 0x51
 80024f2:	2101      	movs	r1, #1
 80024f4:	5499      	strb	r1, [r3, r2]

  /* Set the default CRYP phase */
  hcryp->Phase = CRYP_PHASE_READY;
 80024f6:	687b      	ldr	r3, [r7, #4]
 80024f8:	2201      	movs	r2, #1
 80024fa:	645a      	str	r2, [r3, #68]	; 0x44

  /* Return function status */
  return HAL_OK;
 80024fc:	2300      	movs	r3, #0
}
 80024fe:	0018      	movs	r0, r3
 8002500:	46bd      	mov	sp, r7
 8002502:	b002      	add	sp, #8
 8002504:	bd80      	pop	{r7, pc}
 8002506:	46c0      	nop			; (mov r8, r8)
 8002508:	fffaff99 	.word	0xfffaff99

0800250c <HAL_CRYP_Encrypt>:
  * @param  Output Pointer to the output buffer(ciphertext)
  * @param  Timeout Specify Timeout value
  * @retval HAL status
  */
HAL_StatusTypeDef HAL_CRYP_Encrypt(CRYP_HandleTypeDef *hcryp, uint32_t *Input, uint16_t Size, uint32_t *Output, uint32_t Timeout)
{
 800250c:	b590      	push	{r4, r7, lr}
 800250e:	b087      	sub	sp, #28
 8002510:	af00      	add	r7, sp, #0
 8002512:	60f8      	str	r0, [r7, #12]
 8002514:	60b9      	str	r1, [r7, #8]
 8002516:	603b      	str	r3, [r7, #0]
 8002518:	1dbb      	adds	r3, r7, #6
 800251a:	801a      	strh	r2, [r3, #0]

  /* Check input buffer size */
  assert_param(IS_CRYP_BUFFERSIZE(algo_assert, hcryp->Init.DataWidthUnit, Size));
#endif

  if (hcryp->State == HAL_CRYP_STATE_READY)
 800251c:	68fb      	ldr	r3, [r7, #12]
 800251e:	2251      	movs	r2, #81	; 0x51
 8002520:	5c9b      	ldrb	r3, [r3, r2]
 8002522:	b2db      	uxtb	r3, r3
 8002524:	2b01      	cmp	r3, #1
 8002526:	d000      	beq.n	800252a <HAL_CRYP_Encrypt+0x1e>
 8002528:	e084      	b.n	8002634 <HAL_CRYP_Encrypt+0x128>
  {
    /* Change state Busy */
    hcryp->State = HAL_CRYP_STATE_BUSY;
 800252a:	68fb      	ldr	r3, [r7, #12]
 800252c:	2251      	movs	r2, #81	; 0x51
 800252e:	2102      	movs	r1, #2
 8002530:	5499      	strb	r1, [r3, r2]

    /* Process locked */
    __HAL_LOCK(hcryp);
 8002532:	68fb      	ldr	r3, [r7, #12]
 8002534:	2250      	movs	r2, #80	; 0x50
 8002536:	5c9b      	ldrb	r3, [r3, r2]
 8002538:	2b01      	cmp	r3, #1
 800253a:	d101      	bne.n	8002540 <HAL_CRYP_Encrypt+0x34>
 800253c:	2302      	movs	r3, #2
 800253e:	e086      	b.n	800264e <HAL_CRYP_Encrypt+0x142>
 8002540:	68fb      	ldr	r3, [r7, #12]
 8002542:	2250      	movs	r2, #80	; 0x50
 8002544:	2101      	movs	r1, #1
 8002546:	5499      	strb	r1, [r3, r2]

    /*  Reset CrypInCount, CrypOutCount and Initialize pCrypInBuffPtr and pCrypOutBuffPtr parameters*/
    hcryp->CrypInCount = 0U;
 8002548:	68fb      	ldr	r3, [r7, #12]
 800254a:	2200      	movs	r2, #0
 800254c:	87da      	strh	r2, [r3, #62]	; 0x3e
    hcryp->CrypOutCount = 0U;
 800254e:	68fb      	ldr	r3, [r7, #12]
 8002550:	2240      	movs	r2, #64	; 0x40
 8002552:	2100      	movs	r1, #0
 8002554:	5299      	strh	r1, [r3, r2]
    hcryp->pCrypInBuffPtr = Input;
 8002556:	68fb      	ldr	r3, [r7, #12]
 8002558:	68ba      	ldr	r2, [r7, #8]
 800255a:	635a      	str	r2, [r3, #52]	; 0x34
    hcryp->pCrypOutBuffPtr = Output;
 800255c:	68fb      	ldr	r3, [r7, #12]
 800255e:	683a      	ldr	r2, [r7, #0]
 8002560:	639a      	str	r2, [r3, #56]	; 0x38

    /*  Calculate Size parameter in Byte*/
    if (hcryp->Init.DataWidthUnit == CRYP_DATAWIDTHUNIT_WORD)
 8002562:	68fb      	ldr	r3, [r7, #12]
 8002564:	6a5b      	ldr	r3, [r3, #36]	; 0x24
 8002566:	2b00      	cmp	r3, #0
 8002568:	d107      	bne.n	800257a <HAL_CRYP_Encrypt+0x6e>
    {
      hcryp->Size = Size * 4U;
 800256a:	1dbb      	adds	r3, r7, #6
 800256c:	881b      	ldrh	r3, [r3, #0]
 800256e:	009b      	lsls	r3, r3, #2
 8002570:	b299      	uxth	r1, r3
 8002572:	68fb      	ldr	r3, [r7, #12]
 8002574:	2242      	movs	r2, #66	; 0x42
 8002576:	5299      	strh	r1, [r3, r2]
 8002578:	e004      	b.n	8002584 <HAL_CRYP_Encrypt+0x78>
    }
    else
    {
      hcryp->Size = Size;
 800257a:	68fb      	ldr	r3, [r7, #12]
 800257c:	1dba      	adds	r2, r7, #6
 800257e:	2142      	movs	r1, #66	; 0x42
 8002580:	8812      	ldrh	r2, [r2, #0]
 8002582:	525a      	strh	r2, [r3, r1]
    }

    /* Set the operating mode*/
    MODIFY_REG(hcryp->Instance->CR, AES_CR_MODE, CRYP_OPERATINGMODE_ENCRYPT);
 8002584:	68fb      	ldr	r3, [r7, #12]
 8002586:	681b      	ldr	r3, [r3, #0]
 8002588:	681a      	ldr	r2, [r3, #0]
 800258a:	68fb      	ldr	r3, [r7, #12]
 800258c:	681b      	ldr	r3, [r3, #0]
 800258e:	2118      	movs	r1, #24
 8002590:	438a      	bics	r2, r1
 8002592:	601a      	str	r2, [r3, #0]

    /* algo get algorithm selected */
    algo = hcryp->Instance->CR & AES_CR_CHMOD;
 8002594:	68fb      	ldr	r3, [r7, #12]
 8002596:	681b      	ldr	r3, [r3, #0]
 8002598:	681b      	ldr	r3, [r3, #0]
 800259a:	4a2f      	ldr	r2, [pc, #188]	; (8002658 <HAL_CRYP_Encrypt+0x14c>)
 800259c:	4013      	ands	r3, r2
 800259e:	613b      	str	r3, [r7, #16]

    switch (algo)
 80025a0:	693b      	ldr	r3, [r7, #16]
 80025a2:	2b40      	cmp	r3, #64	; 0x40
 80025a4:	d00c      	beq.n	80025c0 <HAL_CRYP_Encrypt+0xb4>
 80025a6:	d804      	bhi.n	80025b2 <HAL_CRYP_Encrypt+0xa6>
 80025a8:	2b00      	cmp	r3, #0
 80025aa:	d009      	beq.n	80025c0 <HAL_CRYP_Encrypt+0xb4>
 80025ac:	2b20      	cmp	r3, #32
 80025ae:	d007      	beq.n	80025c0 <HAL_CRYP_Encrypt+0xb4>
 80025b0:	e027      	b.n	8002602 <HAL_CRYP_Encrypt+0xf6>
 80025b2:	2b60      	cmp	r3, #96	; 0x60
 80025b4:	d00f      	beq.n	80025d6 <HAL_CRYP_Encrypt+0xca>
 80025b6:	2280      	movs	r2, #128	; 0x80
 80025b8:	0252      	lsls	r2, r2, #9
 80025ba:	4293      	cmp	r3, r2
 80025bc:	d016      	beq.n	80025ec <HAL_CRYP_Encrypt+0xe0>
 80025be:	e020      	b.n	8002602 <HAL_CRYP_Encrypt+0xf6>
      case CRYP_AES_ECB:
      case CRYP_AES_CBC:
      case CRYP_AES_CTR:

        /* AES encryption */
        status = CRYP_AES_Encrypt(hcryp, Timeout);
 80025c0:	2317      	movs	r3, #23
 80025c2:	18fc      	adds	r4, r7, r3
 80025c4:	6aba      	ldr	r2, [r7, #40]	; 0x28
 80025c6:	68fb      	ldr	r3, [r7, #12]
 80025c8:	0011      	movs	r1, r2
 80025ca:	0018      	movs	r0, r3
 80025cc:	f000 f8f8 	bl	80027c0 <CRYP_AES_Encrypt>
 80025d0:	0003      	movs	r3, r0
 80025d2:	7023      	strb	r3, [r4, #0]
        break;
 80025d4:	e020      	b.n	8002618 <HAL_CRYP_Encrypt+0x10c>

      case CRYP_AES_GCM_GMAC:

        /* AES GCM encryption */
        status = CRYP_AESGCM_Process(hcryp, Timeout) ;
 80025d6:	2317      	movs	r3, #23
 80025d8:	18fc      	adds	r4, r7, r3
 80025da:	6aba      	ldr	r2, [r7, #40]	; 0x28
 80025dc:	68fb      	ldr	r3, [r7, #12]
 80025de:	0011      	movs	r1, r2
 80025e0:	0018      	movs	r0, r3
 80025e2:	f000 fb7d 	bl	8002ce0 <CRYP_AESGCM_Process>
 80025e6:	0003      	movs	r3, r0
 80025e8:	7023      	strb	r3, [r4, #0]
        break;
 80025ea:	e015      	b.n	8002618 <HAL_CRYP_Encrypt+0x10c>

      case CRYP_AES_CCM:

        /* AES CCM encryption */
        status = CRYP_AESCCM_Process(hcryp, Timeout);
 80025ec:	2317      	movs	r3, #23
 80025ee:	18fc      	adds	r4, r7, r3
 80025f0:	6aba      	ldr	r2, [r7, #40]	; 0x28
 80025f2:	68fb      	ldr	r3, [r7, #12]
 80025f4:	0011      	movs	r1, r2
 80025f6:	0018      	movs	r0, r3
 80025f8:	f000 fd24 	bl	8003044 <CRYP_AESCCM_Process>
 80025fc:	0003      	movs	r3, r0
 80025fe:	7023      	strb	r3, [r4, #0]
        break;
 8002600:	e00a      	b.n	8002618 <HAL_CRYP_Encrypt+0x10c>

      default:
        hcryp->ErrorCode |= HAL_CRYP_ERROR_NOT_SUPPORTED;
 8002602:	68fb      	ldr	r3, [r7, #12]
 8002604:	6d5b      	ldr	r3, [r3, #84]	; 0x54
 8002606:	2220      	movs	r2, #32
 8002608:	431a      	orrs	r2, r3
 800260a:	68fb      	ldr	r3, [r7, #12]
 800260c:	655a      	str	r2, [r3, #84]	; 0x54
        status = HAL_ERROR;
 800260e:	2317      	movs	r3, #23
 8002610:	18fb      	adds	r3, r7, r3
 8002612:	2201      	movs	r2, #1
 8002614:	701a      	strb	r2, [r3, #0]
        break;
 8002616:	46c0      	nop			; (mov r8, r8)
    }

    if (status == HAL_OK)
 8002618:	2317      	movs	r3, #23
 800261a:	18fb      	adds	r3, r7, r3
 800261c:	781b      	ldrb	r3, [r3, #0]
 800261e:	2b00      	cmp	r3, #0
 8002620:	d112      	bne.n	8002648 <HAL_CRYP_Encrypt+0x13c>
    {
      /* Change the CRYP peripheral state */
      hcryp->State = HAL_CRYP_STATE_READY;
 8002622:	68fb      	ldr	r3, [r7, #12]
 8002624:	2251      	movs	r2, #81	; 0x51
 8002626:	2101      	movs	r1, #1
 8002628:	5499      	strb	r1, [r3, r2]

      /* Process unlocked */
      __HAL_UNLOCK(hcryp);
 800262a:	68fb      	ldr	r3, [r7, #12]
 800262c:	2250      	movs	r2, #80	; 0x50
 800262e:	2100      	movs	r1, #0
 8002630:	5499      	strb	r1, [r3, r2]
 8002632:	e009      	b.n	8002648 <HAL_CRYP_Encrypt+0x13c>
    }
  }
  else
  {
    /* Busy error code field */
    hcryp->ErrorCode |= HAL_CRYP_ERROR_BUSY;
 8002634:	68fb      	ldr	r3, [r7, #12]
 8002636:	6d5b      	ldr	r3, [r3, #84]	; 0x54
 8002638:	2208      	movs	r2, #8
 800263a:	431a      	orrs	r2, r3
 800263c:	68fb      	ldr	r3, [r7, #12]
 800263e:	655a      	str	r2, [r3, #84]	; 0x54
    status = HAL_ERROR;
 8002640:	2317      	movs	r3, #23
 8002642:	18fb      	adds	r3, r7, r3
 8002644:	2201      	movs	r2, #1
 8002646:	701a      	strb	r2, [r3, #0]
  }

  /* Return function status */
  return status;
 8002648:	2317      	movs	r3, #23
 800264a:	18fb      	adds	r3, r7, r3
 800264c:	781b      	ldrb	r3, [r3, #0]
}
 800264e:	0018      	movs	r0, r3
 8002650:	46bd      	mov	sp, r7
 8002652:	b007      	add	sp, #28
 8002654:	bd90      	pop	{r4, r7, pc}
 8002656:	46c0      	nop			; (mov r8, r8)
 8002658:	00010060 	.word	0x00010060

0800265c <HAL_CRYP_Decrypt>:
  * @param  Output Pointer to the output buffer(plaintext)
  * @param  Timeout Specify Timeout value
  * @retval HAL status
  */
HAL_StatusTypeDef HAL_CRYP_Decrypt(CRYP_HandleTypeDef *hcryp, uint32_t *Input, uint16_t Size, uint32_t *Output, uint32_t Timeout)
{
 800265c:	b590      	push	{r4, r7, lr}
 800265e:	b087      	sub	sp, #28
 8002660:	af00      	add	r7, sp, #0
 8002662:	60f8      	str	r0, [r7, #12]
 8002664:	60b9      	str	r1, [r7, #8]
 8002666:	603b      	str	r3, [r7, #0]
 8002668:	1dbb      	adds	r3, r7, #6
 800266a:	801a      	strh	r2, [r3, #0]

  /* Check input buffer size */
  assert_param(IS_CRYP_BUFFERSIZE(algo_assert, hcryp->Init.DataWidthUnit, Size));
#endif

  if (hcryp->State == HAL_CRYP_STATE_READY)
 800266c:	68fb      	ldr	r3, [r7, #12]
 800266e:	2251      	movs	r2, #81	; 0x51
 8002670:	5c9b      	ldrb	r3, [r3, r2]
 8002672:	b2db      	uxtb	r3, r3
 8002674:	2b01      	cmp	r3, #1
 8002676:	d000      	beq.n	800267a <HAL_CRYP_Decrypt+0x1e>
 8002678:	e087      	b.n	800278a <HAL_CRYP_Decrypt+0x12e>
  {
    /* Change state Busy */
    hcryp->State = HAL_CRYP_STATE_BUSY;
 800267a:	68fb      	ldr	r3, [r7, #12]
 800267c:	2251      	movs	r2, #81	; 0x51
 800267e:	2102      	movs	r1, #2
 8002680:	5499      	strb	r1, [r3, r2]

    /* Process locked */
    __HAL_LOCK(hcryp);
 8002682:	68fb      	ldr	r3, [r7, #12]
 8002684:	2250      	movs	r2, #80	; 0x50
 8002686:	5c9b      	ldrb	r3, [r3, r2]
 8002688:	2b01      	cmp	r3, #1
 800268a:	d101      	bne.n	8002690 <HAL_CRYP_Decrypt+0x34>
 800268c:	2302      	movs	r3, #2
 800268e:	e089      	b.n	80027a4 <HAL_CRYP_Decrypt+0x148>
 8002690:	68fb      	ldr	r3, [r7, #12]
 8002692:	2250      	movs	r2, #80	; 0x50
 8002694:	2101      	movs	r1, #1
 8002696:	5499      	strb	r1, [r3, r2]

    /*  Reset CrypInCount, CrypOutCount and Initialize pCrypInBuffPtr and pCrypOutBuffPtr  parameters*/
    hcryp->CrypInCount = 0U;
 8002698:	68fb      	ldr	r3, [r7, #12]
 800269a:	2200      	movs	r2, #0
 800269c:	87da      	strh	r2, [r3, #62]	; 0x3e
    hcryp->CrypOutCount = 0U;
 800269e:	68fb      	ldr	r3, [r7, #12]
 80026a0:	2240      	movs	r2, #64	; 0x40
 80026a2:	2100      	movs	r1, #0
 80026a4:	5299      	strh	r1, [r3, r2]
    hcryp->pCrypInBuffPtr = Input;
 80026a6:	68fb      	ldr	r3, [r7, #12]
 80026a8:	68ba      	ldr	r2, [r7, #8]
 80026aa:	635a      	str	r2, [r3, #52]	; 0x34
    hcryp->pCrypOutBuffPtr = Output;
 80026ac:	68fb      	ldr	r3, [r7, #12]
 80026ae:	683a      	ldr	r2, [r7, #0]
 80026b0:	639a      	str	r2, [r3, #56]	; 0x38

    /*  Calculate Size parameter in Byte*/
    if (hcryp->Init.DataWidthUnit == CRYP_DATAWIDTHUNIT_WORD)
 80026b2:	68fb      	ldr	r3, [r7, #12]
 80026b4:	6a5b      	ldr	r3, [r3, #36]	; 0x24
 80026b6:	2b00      	cmp	r3, #0
 80026b8:	d107      	bne.n	80026ca <HAL_CRYP_Decrypt+0x6e>
    {
      hcryp->Size = Size * 4U;
 80026ba:	1dbb      	adds	r3, r7, #6
 80026bc:	881b      	ldrh	r3, [r3, #0]
 80026be:	009b      	lsls	r3, r3, #2
 80026c0:	b299      	uxth	r1, r3
 80026c2:	68fb      	ldr	r3, [r7, #12]
 80026c4:	2242      	movs	r2, #66	; 0x42
 80026c6:	5299      	strh	r1, [r3, r2]
 80026c8:	e004      	b.n	80026d4 <HAL_CRYP_Decrypt+0x78>
    }
    else
    {
      hcryp->Size = Size;
 80026ca:	68fb      	ldr	r3, [r7, #12]
 80026cc:	1dba      	adds	r2, r7, #6
 80026ce:	2142      	movs	r1, #66	; 0x42
 80026d0:	8812      	ldrh	r2, [r2, #0]
 80026d2:	525a      	strh	r2, [r3, r1]
    }

    /* Set Decryption operating mode*/
    MODIFY_REG(hcryp->Instance->CR, AES_CR_MODE, CRYP_OPERATINGMODE_DECRYPT);
 80026d4:	68fb      	ldr	r3, [r7, #12]
 80026d6:	681b      	ldr	r3, [r3, #0]
 80026d8:	681b      	ldr	r3, [r3, #0]
 80026da:	2218      	movs	r2, #24
 80026dc:	4393      	bics	r3, r2
 80026de:	001a      	movs	r2, r3
 80026e0:	68fb      	ldr	r3, [r7, #12]
 80026e2:	681b      	ldr	r3, [r3, #0]
 80026e4:	2110      	movs	r1, #16
 80026e6:	430a      	orrs	r2, r1
 80026e8:	601a      	str	r2, [r3, #0]

    /* algo get algorithm selected */
    algo = hcryp->Instance->CR & AES_CR_CHMOD;
 80026ea:	68fb      	ldr	r3, [r7, #12]
 80026ec:	681b      	ldr	r3, [r3, #0]
 80026ee:	681b      	ldr	r3, [r3, #0]
 80026f0:	4a2e      	ldr	r2, [pc, #184]	; (80027ac <HAL_CRYP_Decrypt+0x150>)
 80026f2:	4013      	ands	r3, r2
 80026f4:	613b      	str	r3, [r7, #16]

    switch (algo)
 80026f6:	693b      	ldr	r3, [r7, #16]
 80026f8:	2b40      	cmp	r3, #64	; 0x40
 80026fa:	d00c      	beq.n	8002716 <HAL_CRYP_Decrypt+0xba>
 80026fc:	d804      	bhi.n	8002708 <HAL_CRYP_Decrypt+0xac>
 80026fe:	2b00      	cmp	r3, #0
 8002700:	d009      	beq.n	8002716 <HAL_CRYP_Decrypt+0xba>
 8002702:	2b20      	cmp	r3, #32
 8002704:	d007      	beq.n	8002716 <HAL_CRYP_Decrypt+0xba>
 8002706:	e027      	b.n	8002758 <HAL_CRYP_Decrypt+0xfc>
 8002708:	2b60      	cmp	r3, #96	; 0x60
 800270a:	d00f      	beq.n	800272c <HAL_CRYP_Decrypt+0xd0>
 800270c:	2280      	movs	r2, #128	; 0x80
 800270e:	0252      	lsls	r2, r2, #9
 8002710:	4293      	cmp	r3, r2
 8002712:	d016      	beq.n	8002742 <HAL_CRYP_Decrypt+0xe6>
 8002714:	e020      	b.n	8002758 <HAL_CRYP_Decrypt+0xfc>
      case CRYP_AES_ECB:
      case CRYP_AES_CBC:
      case CRYP_AES_CTR:

        /* AES decryption */
        status = CRYP_AES_Decrypt(hcryp, Timeout);
 8002716:	2317      	movs	r3, #23
 8002718:	18fc      	adds	r4, r7, r3
 800271a:	6aba      	ldr	r2, [r7, #40]	; 0x28
 800271c:	68fb      	ldr	r3, [r7, #12]
 800271e:	0011      	movs	r1, r2
 8002720:	0018      	movs	r0, r3
 8002722:	f000 f8d5 	bl	80028d0 <CRYP_AES_Decrypt>
 8002726:	0003      	movs	r3, r0
 8002728:	7023      	strb	r3, [r4, #0]
        break;
 800272a:	e020      	b.n	800276e <HAL_CRYP_Decrypt+0x112>

      case CRYP_AES_GCM_GMAC:

        /* AES GCM decryption */
        status = CRYP_AESGCM_Process(hcryp, Timeout) ;
 800272c:	2317      	movs	r3, #23
 800272e:	18fc      	adds	r4, r7, r3
 8002730:	6aba      	ldr	r2, [r7, #40]	; 0x28
 8002732:	68fb      	ldr	r3, [r7, #12]
 8002734:	0011      	movs	r1, r2
 8002736:	0018      	movs	r0, r3
 8002738:	f000 fad2 	bl	8002ce0 <CRYP_AESGCM_Process>
 800273c:	0003      	movs	r3, r0
 800273e:	7023      	strb	r3, [r4, #0]
        break;
 8002740:	e015      	b.n	800276e <HAL_CRYP_Decrypt+0x112>

      case CRYP_AES_CCM:

        /* AES CCM decryption */
        status = CRYP_AESCCM_Process(hcryp, Timeout);
 8002742:	2317      	movs	r3, #23
 8002744:	18fc      	adds	r4, r7, r3
 8002746:	6aba      	ldr	r2, [r7, #40]	; 0x28
 8002748:	68fb      	ldr	r3, [r7, #12]
 800274a:	0011      	movs	r1, r2
 800274c:	0018      	movs	r0, r3
 800274e:	f000 fc79 	bl	8003044 <CRYP_AESCCM_Process>
 8002752:	0003      	movs	r3, r0
 8002754:	7023      	strb	r3, [r4, #0]
        break;
 8002756:	e00a      	b.n	800276e <HAL_CRYP_Decrypt+0x112>

      default:
        hcryp->ErrorCode |= HAL_CRYP_ERROR_NOT_SUPPORTED;
 8002758:	68fb      	ldr	r3, [r7, #12]
 800275a:	6d5b      	ldr	r3, [r3, #84]	; 0x54
 800275c:	2220      	movs	r2, #32
 800275e:	431a      	orrs	r2, r3
 8002760:	68fb      	ldr	r3, [r7, #12]
 8002762:	655a      	str	r2, [r3, #84]	; 0x54
        status = HAL_ERROR;
 8002764:	2317      	movs	r3, #23
 8002766:	18fb      	adds	r3, r7, r3
 8002768:	2201      	movs	r2, #1
 800276a:	701a      	strb	r2, [r3, #0]
        break;
 800276c:	46c0      	nop			; (mov r8, r8)
    }

    if (status == HAL_OK)
 800276e:	2317      	movs	r3, #23
 8002770:	18fb      	adds	r3, r7, r3
 8002772:	781b      	ldrb	r3, [r3, #0]
 8002774:	2b00      	cmp	r3, #0
 8002776:	d112      	bne.n	800279e <HAL_CRYP_Decrypt+0x142>
    {
      /* Change the CRYP peripheral state */
      hcryp->State = HAL_CRYP_STATE_READY;
 8002778:	68fb      	ldr	r3, [r7, #12]
 800277a:	2251      	movs	r2, #81	; 0x51
 800277c:	2101      	movs	r1, #1
 800277e:	5499      	strb	r1, [r3, r2]

      /* Process unlocked */
      __HAL_UNLOCK(hcryp);
 8002780:	68fb      	ldr	r3, [r7, #12]
 8002782:	2250      	movs	r2, #80	; 0x50
 8002784:	2100      	movs	r1, #0
 8002786:	5499      	strb	r1, [r3, r2]
 8002788:	e009      	b.n	800279e <HAL_CRYP_Decrypt+0x142>
    }
  }
  else
  {
    /* Busy error code field */
    hcryp->ErrorCode |= HAL_CRYP_ERROR_BUSY;
 800278a:	68fb      	ldr	r3, [r7, #12]
 800278c:	6d5b      	ldr	r3, [r3, #84]	; 0x54
 800278e:	2208      	movs	r2, #8
 8002790:	431a      	orrs	r2, r3
 8002792:	68fb      	ldr	r3, [r7, #12]
 8002794:	655a      	str	r2, [r3, #84]	; 0x54
    status = HAL_ERROR;
 8002796:	2317      	movs	r3, #23
 8002798:	18fb      	adds	r3, r7, r3
 800279a:	2201      	movs	r2, #1
 800279c:	701a      	strb	r2, [r3, #0]
  }

  /* Return function status */
  return status;
 800279e:	2317      	movs	r3, #23
 80027a0:	18fb      	adds	r3, r7, r3
 80027a2:	781b      	ldrb	r3, [r3, #0]
}
 80027a4:	0018      	movs	r0, r3
 80027a6:	46bd      	mov	sp, r7
 80027a8:	b007      	add	sp, #28
 80027aa:	bd90      	pop	{r4, r7, pc}
 80027ac:	00010060 	.word	0x00010060

080027b0 <HAL_CRYP_ErrorCallback>:
  * @param  hcryp pointer to a CRYP_HandleTypeDef structure that contains
  *         the configuration information for CRYP module.
  * @retval None
  */
__weak void HAL_CRYP_ErrorCallback(CRYP_HandleTypeDef *hcryp)
{
 80027b0:	b580      	push	{r7, lr}
 80027b2:	b082      	sub	sp, #8
 80027b4:	af00      	add	r7, sp, #0
 80027b6:	6078      	str	r0, [r7, #4]
  UNUSED(hcryp);

  /* NOTE : This function Should not be modified, when the callback is needed,
            the HAL_CRYP_ErrorCallback could be implemented in the user file
   */
}
 80027b8:	46c0      	nop			; (mov r8, r8)
 80027ba:	46bd      	mov	sp, r7
 80027bc:	b002      	add	sp, #8
 80027be:	bd80      	pop	{r7, pc}

080027c0 <CRYP_AES_Encrypt>:
  * @param  hcryp pointer to a CRYP_HandleTypeDef structure
  * @param  Timeout specify Timeout value
  * @retval HAL status
  */
static HAL_StatusTypeDef CRYP_AES_Encrypt(CRYP_HandleTypeDef *hcryp, uint32_t Timeout)
{
 80027c0:	b580      	push	{r7, lr}
 80027c2:	b084      	sub	sp, #16
 80027c4:	af00      	add	r7, sp, #0
 80027c6:	6078      	str	r0, [r7, #4]
 80027c8:	6039      	str	r1, [r7, #0]
  uint16_t incount;  /* Temporary CrypInCount Value */
  uint16_t outcount;  /* Temporary CrypOutCount Value */
  uint32_t DoKeyIVConfig = 1U; /* By default, carry out peripheral Key and IV configuration */
 80027ca:	2301      	movs	r3, #1
 80027cc:	60bb      	str	r3, [r7, #8]

  if (hcryp->Init.KeyIVConfigSkip == CRYP_KEYIVCONFIG_ONCE)
 80027ce:	687b      	ldr	r3, [r7, #4]
 80027d0:	6adb      	ldr	r3, [r3, #44]	; 0x2c
 80027d2:	2b01      	cmp	r3, #1
 80027d4:	d109      	bne.n	80027ea <CRYP_AES_Encrypt+0x2a>
  {
    if (hcryp->KeyIVConfig == 1U)
 80027d6:	687b      	ldr	r3, [r7, #4]
 80027d8:	6d9b      	ldr	r3, [r3, #88]	; 0x58
 80027da:	2b01      	cmp	r3, #1
 80027dc:	d102      	bne.n	80027e4 <CRYP_AES_Encrypt+0x24>
    {
      /* If the Key and IV configuration has to be done only once
         and if it has already been done, skip it */
      DoKeyIVConfig = 0U;
 80027de:	2300      	movs	r3, #0
 80027e0:	60bb      	str	r3, [r7, #8]
 80027e2:	e002      	b.n	80027ea <CRYP_AES_Encrypt+0x2a>
    else
    {
      /* If the Key and IV configuration has to be done only once
         and if it has not been done already, do it and set KeyIVConfig
         to keep track it won't have to be done again next time */
      hcryp->KeyIVConfig = 1U;
 80027e4:	687b      	ldr	r3, [r7, #4]
 80027e6:	2201      	movs	r2, #1
 80027e8:	659a      	str	r2, [r3, #88]	; 0x58
    }
  }

  if (DoKeyIVConfig == 1U)
 80027ea:	68bb      	ldr	r3, [r7, #8]
 80027ec:	2b01      	cmp	r3, #1
 80027ee:	d122      	bne.n	8002836 <CRYP_AES_Encrypt+0x76>
  {
    /*  Set the Key*/
    CRYP_SetKey(hcryp, hcryp->Init.KeySize);
 80027f0:	687b      	ldr	r3, [r7, #4]
 80027f2:	689a      	ldr	r2, [r3, #8]
 80027f4:	687b      	ldr	r3, [r7, #4]
 80027f6:	0011      	movs	r1, r2
 80027f8:	0018      	movs	r0, r3
 80027fa:	f000 fa11 	bl	8002c20 <CRYP_SetKey>

    if (hcryp->Init.Algorithm != CRYP_AES_ECB)
 80027fe:	687b      	ldr	r3, [r7, #4]
 8002800:	695b      	ldr	r3, [r3, #20]
 8002802:	2b00      	cmp	r3, #0
 8002804:	d017      	beq.n	8002836 <CRYP_AES_Encrypt+0x76>
    {
      /* Set the Initialization Vector*/
      hcryp->Instance->IVR3 = *(uint32_t *)(hcryp->Init.pInitVect);
 8002806:	687b      	ldr	r3, [r7, #4]
 8002808:	691a      	ldr	r2, [r3, #16]
 800280a:	687b      	ldr	r3, [r7, #4]
 800280c:	681b      	ldr	r3, [r3, #0]
 800280e:	6812      	ldr	r2, [r2, #0]
 8002810:	62da      	str	r2, [r3, #44]	; 0x2c
      hcryp->Instance->IVR2 = *(uint32_t *)(hcryp->Init.pInitVect + 1U);
 8002812:	687b      	ldr	r3, [r7, #4]
 8002814:	691a      	ldr	r2, [r3, #16]
 8002816:	687b      	ldr	r3, [r7, #4]
 8002818:	681b      	ldr	r3, [r3, #0]
 800281a:	6852      	ldr	r2, [r2, #4]
 800281c:	629a      	str	r2, [r3, #40]	; 0x28
      hcryp->Instance->IVR1 = *(uint32_t *)(hcryp->Init.pInitVect + 2U);
 800281e:	687b      	ldr	r3, [r7, #4]
 8002820:	691a      	ldr	r2, [r3, #16]
 8002822:	687b      	ldr	r3, [r7, #4]
 8002824:	681b      	ldr	r3, [r3, #0]
 8002826:	6892      	ldr	r2, [r2, #8]
 8002828:	625a      	str	r2, [r3, #36]	; 0x24
      hcryp->Instance->IVR0 = *(uint32_t *)(hcryp->Init.pInitVect + 3U);
 800282a:	687b      	ldr	r3, [r7, #4]
 800282c:	691a      	ldr	r2, [r3, #16]
 800282e:	687b      	ldr	r3, [r7, #4]
 8002830:	681b      	ldr	r3, [r3, #0]
 8002832:	68d2      	ldr	r2, [r2, #12]
 8002834:	621a      	str	r2, [r3, #32]
    }
  } /* if (DoKeyIVConfig == 1U) */

  /* Set the phase */
  hcryp->Phase = CRYP_PHASE_PROCESS;
 8002836:	687b      	ldr	r3, [r7, #4]
 8002838:	2202      	movs	r2, #2
 800283a:	645a      	str	r2, [r3, #68]	; 0x44

  /* Enable CRYP */
  __HAL_CRYP_ENABLE(hcryp);
 800283c:	687b      	ldr	r3, [r7, #4]
 800283e:	681b      	ldr	r3, [r3, #0]
 8002840:	681a      	ldr	r2, [r3, #0]
 8002842:	687b      	ldr	r3, [r7, #4]
 8002844:	681b      	ldr	r3, [r3, #0]
 8002846:	2101      	movs	r1, #1
 8002848:	430a      	orrs	r2, r1
 800284a:	601a      	str	r2, [r3, #0]

  incount = hcryp->CrypInCount;
 800284c:	230e      	movs	r3, #14
 800284e:	18fb      	adds	r3, r7, r3
 8002850:	687a      	ldr	r2, [r7, #4]
 8002852:	8fd2      	ldrh	r2, [r2, #62]	; 0x3e
 8002854:	801a      	strh	r2, [r3, #0]
  outcount = hcryp->CrypOutCount;
 8002856:	230c      	movs	r3, #12
 8002858:	18fb      	adds	r3, r7, r3
 800285a:	687a      	ldr	r2, [r7, #4]
 800285c:	2140      	movs	r1, #64	; 0x40
 800285e:	5a52      	ldrh	r2, [r2, r1]
 8002860:	801a      	strh	r2, [r3, #0]
  while ((incount < (hcryp->Size / 4U)) && (outcount < (hcryp->Size / 4U)))
 8002862:	e010      	b.n	8002886 <CRYP_AES_Encrypt+0xc6>
  {
    /* Write plain Ddta and get cipher data */
    CRYP_AES_ProcessData(hcryp, Timeout);
 8002864:	683a      	ldr	r2, [r7, #0]
 8002866:	687b      	ldr	r3, [r7, #4]
 8002868:	0011      	movs	r1, r2
 800286a:	0018      	movs	r0, r3
 800286c:	f000 f920 	bl	8002ab0 <CRYP_AES_ProcessData>
    incount = hcryp->CrypInCount;
 8002870:	230e      	movs	r3, #14
 8002872:	18fb      	adds	r3, r7, r3
 8002874:	687a      	ldr	r2, [r7, #4]
 8002876:	8fd2      	ldrh	r2, [r2, #62]	; 0x3e
 8002878:	801a      	strh	r2, [r3, #0]
    outcount = hcryp->CrypOutCount;
 800287a:	230c      	movs	r3, #12
 800287c:	18fb      	adds	r3, r7, r3
 800287e:	687a      	ldr	r2, [r7, #4]
 8002880:	2140      	movs	r1, #64	; 0x40
 8002882:	5a52      	ldrh	r2, [r2, r1]
 8002884:	801a      	strh	r2, [r3, #0]
  while ((incount < (hcryp->Size / 4U)) && (outcount < (hcryp->Size / 4U)))
 8002886:	687b      	ldr	r3, [r7, #4]
 8002888:	2242      	movs	r2, #66	; 0x42
 800288a:	5a9b      	ldrh	r3, [r3, r2]
 800288c:	089b      	lsrs	r3, r3, #2
 800288e:	b29b      	uxth	r3, r3
 8002890:	220e      	movs	r2, #14
 8002892:	18ba      	adds	r2, r7, r2
 8002894:	8812      	ldrh	r2, [r2, #0]
 8002896:	429a      	cmp	r2, r3
 8002898:	d209      	bcs.n	80028ae <CRYP_AES_Encrypt+0xee>
 800289a:	687b      	ldr	r3, [r7, #4]
 800289c:	2242      	movs	r2, #66	; 0x42
 800289e:	5a9b      	ldrh	r3, [r3, r2]
 80028a0:	089b      	lsrs	r3, r3, #2
 80028a2:	b29b      	uxth	r3, r3
 80028a4:	220c      	movs	r2, #12
 80028a6:	18ba      	adds	r2, r7, r2
 80028a8:	8812      	ldrh	r2, [r2, #0]
 80028aa:	429a      	cmp	r2, r3
 80028ac:	d3da      	bcc.n	8002864 <CRYP_AES_Encrypt+0xa4>
  }

  /* Disable CRYP */
  __HAL_CRYP_DISABLE(hcryp);
 80028ae:	687b      	ldr	r3, [r7, #4]
 80028b0:	681b      	ldr	r3, [r3, #0]
 80028b2:	681a      	ldr	r2, [r3, #0]
 80028b4:	687b      	ldr	r3, [r7, #4]
 80028b6:	681b      	ldr	r3, [r3, #0]
 80028b8:	2101      	movs	r1, #1
 80028ba:	438a      	bics	r2, r1
 80028bc:	601a      	str	r2, [r3, #0]

  /* Change the CRYP state */
  hcryp->State = HAL_CRYP_STATE_READY;
 80028be:	687b      	ldr	r3, [r7, #4]
 80028c0:	2251      	movs	r2, #81	; 0x51
 80028c2:	2101      	movs	r1, #1
 80028c4:	5499      	strb	r1, [r3, r2]

  /* Return function status */
  return HAL_OK;
 80028c6:	2300      	movs	r3, #0
}
 80028c8:	0018      	movs	r0, r3
 80028ca:	46bd      	mov	sp, r7
 80028cc:	b004      	add	sp, #16
 80028ce:	bd80      	pop	{r7, pc}

080028d0 <CRYP_AES_Decrypt>:
  * @param  hcryp pointer to a CRYP_HandleTypeDef structure
  * @param  Timeout Specify Timeout value
  * @retval HAL status
*/
static HAL_StatusTypeDef CRYP_AES_Decrypt(CRYP_HandleTypeDef *hcryp, uint32_t Timeout)
{
 80028d0:	b580      	push	{r7, lr}
 80028d2:	b084      	sub	sp, #16
 80028d4:	af00      	add	r7, sp, #0
 80028d6:	6078      	str	r0, [r7, #4]
 80028d8:	6039      	str	r1, [r7, #0]
  uint16_t incount;  /* Temporary CrypInCount Value */
  uint16_t outcount;  /* Temporary CrypOutCount Value */
  uint32_t DoKeyIVConfig = 1U; /* By default, carry out peripheral Key and IV configuration */
 80028da:	2301      	movs	r3, #1
 80028dc:	60bb      	str	r3, [r7, #8]

  if (hcryp->Init.KeyIVConfigSkip == CRYP_KEYIVCONFIG_ONCE)
 80028de:	687b      	ldr	r3, [r7, #4]
 80028e0:	6adb      	ldr	r3, [r3, #44]	; 0x2c
 80028e2:	2b01      	cmp	r3, #1
 80028e4:	d109      	bne.n	80028fa <CRYP_AES_Decrypt+0x2a>
  {
    if (hcryp->KeyIVConfig == 1U)
 80028e6:	687b      	ldr	r3, [r7, #4]
 80028e8:	6d9b      	ldr	r3, [r3, #88]	; 0x58
 80028ea:	2b01      	cmp	r3, #1
 80028ec:	d102      	bne.n	80028f4 <CRYP_AES_Decrypt+0x24>
    {
      /* If the Key and IV configuration has to be done only once
         and if it has already been done, skip it */
      DoKeyIVConfig = 0U;
 80028ee:	2300      	movs	r3, #0
 80028f0:	60bb      	str	r3, [r7, #8]
 80028f2:	e002      	b.n	80028fa <CRYP_AES_Decrypt+0x2a>
    else
    {
      /* If the Key and IV configuration has to be done only once
         and if it has not been done already, do it and set KeyIVConfig
         to keep track it won't have to be done again next time */
      hcryp->KeyIVConfig = 1U;
 80028f4:	687b      	ldr	r3, [r7, #4]
 80028f6:	2201      	movs	r2, #1
 80028f8:	659a      	str	r2, [r3, #88]	; 0x58
    }
  }

  if (DoKeyIVConfig == 1U)
 80028fa:	68bb      	ldr	r3, [r7, #8]
 80028fc:	2b01      	cmp	r3, #1
 80028fe:	d000      	beq.n	8002902 <CRYP_AES_Decrypt+0x32>
 8002900:	e089      	b.n	8002a16 <CRYP_AES_Decrypt+0x146>
  {
    /*  Key preparation for ECB/CBC */
    if (hcryp->Init.Algorithm != CRYP_AES_CTR)   /*ECB or CBC*/
 8002902:	687b      	ldr	r3, [r7, #4]
 8002904:	695b      	ldr	r3, [r3, #20]
 8002906:	2b40      	cmp	r3, #64	; 0x40
 8002908:	d062      	beq.n	80029d0 <CRYP_AES_Decrypt+0x100>
    {
      if (hcryp->AutoKeyDerivation == DISABLE)/*Mode 2 Key preparation*/
 800290a:	687b      	ldr	r3, [r7, #4]
 800290c:	2230      	movs	r2, #48	; 0x30
 800290e:	5c9b      	ldrb	r3, [r3, r2]
 8002910:	2b00      	cmp	r3, #0
 8002912:	d14d      	bne.n	80029b0 <CRYP_AES_Decrypt+0xe0>
      {
        /* Set key preparation for decryption operating mode*/
        MODIFY_REG(hcryp->Instance->CR, AES_CR_MODE, CRYP_OPERATINGMODE_KEYDERIVATION);
 8002914:	687b      	ldr	r3, [r7, #4]
 8002916:	681b      	ldr	r3, [r3, #0]
 8002918:	681b      	ldr	r3, [r3, #0]
 800291a:	2218      	movs	r2, #24
 800291c:	4393      	bics	r3, r2
 800291e:	001a      	movs	r2, r3
 8002920:	687b      	ldr	r3, [r7, #4]
 8002922:	681b      	ldr	r3, [r3, #0]
 8002924:	2108      	movs	r1, #8
 8002926:	430a      	orrs	r2, r1
 8002928:	601a      	str	r2, [r3, #0]

        /*  Set the Key*/
        CRYP_SetKey(hcryp, hcryp->Init.KeySize);
 800292a:	687b      	ldr	r3, [r7, #4]
 800292c:	689a      	ldr	r2, [r3, #8]
 800292e:	687b      	ldr	r3, [r7, #4]
 8002930:	0011      	movs	r1, r2
 8002932:	0018      	movs	r0, r3
 8002934:	f000 f974 	bl	8002c20 <CRYP_SetKey>

        /* Enable CRYP */
        __HAL_CRYP_ENABLE(hcryp);
 8002938:	687b      	ldr	r3, [r7, #4]
 800293a:	681b      	ldr	r3, [r3, #0]
 800293c:	681a      	ldr	r2, [r3, #0]
 800293e:	687b      	ldr	r3, [r7, #4]
 8002940:	681b      	ldr	r3, [r3, #0]
 8002942:	2101      	movs	r1, #1
 8002944:	430a      	orrs	r2, r1
 8002946:	601a      	str	r2, [r3, #0]

        /* Wait for CCF flag to be raised */
        if (CRYP_WaitOnCCFlag(hcryp, Timeout) != HAL_OK)
 8002948:	683a      	ldr	r2, [r7, #0]
 800294a:	687b      	ldr	r3, [r7, #4]
 800294c:	0011      	movs	r1, r2
 800294e:	0018      	movs	r0, r3
 8002950:	f000 ff0c 	bl	800376c <CRYP_WaitOnCCFlag>
 8002954:	1e03      	subs	r3, r0, #0
 8002956:	d017      	beq.n	8002988 <CRYP_AES_Decrypt+0xb8>
        {
          /* Disable the CRYP peripheral clock */
          __HAL_CRYP_DISABLE(hcryp);
 8002958:	687b      	ldr	r3, [r7, #4]
 800295a:	681b      	ldr	r3, [r3, #0]
 800295c:	681a      	ldr	r2, [r3, #0]
 800295e:	687b      	ldr	r3, [r7, #4]
 8002960:	681b      	ldr	r3, [r3, #0]
 8002962:	2101      	movs	r1, #1
 8002964:	438a      	bics	r2, r1
 8002966:	601a      	str	r2, [r3, #0]

          /* Change state & error code*/
          hcryp->ErrorCode |= HAL_CRYP_ERROR_TIMEOUT;
 8002968:	687b      	ldr	r3, [r7, #4]
 800296a:	6d5b      	ldr	r3, [r3, #84]	; 0x54
 800296c:	2210      	movs	r2, #16
 800296e:	431a      	orrs	r2, r3
 8002970:	687b      	ldr	r3, [r7, #4]
 8002972:	655a      	str	r2, [r3, #84]	; 0x54
          hcryp->State = HAL_CRYP_STATE_READY;
 8002974:	687b      	ldr	r3, [r7, #4]
 8002976:	2251      	movs	r2, #81	; 0x51
 8002978:	2101      	movs	r1, #1
 800297a:	5499      	strb	r1, [r3, r2]

          /* Process unlocked */
          __HAL_UNLOCK(hcryp);
 800297c:	687b      	ldr	r3, [r7, #4]
 800297e:	2250      	movs	r2, #80	; 0x50
 8002980:	2100      	movs	r1, #0
 8002982:	5499      	strb	r1, [r3, r2]
          return HAL_ERROR;
 8002984:	2301      	movs	r3, #1
 8002986:	e08f      	b.n	8002aa8 <CRYP_AES_Decrypt+0x1d8>
        }
        /* Clear CCF Flag */
        __HAL_CRYP_CLEAR_FLAG(hcryp, CRYP_CCF_CLEAR);
 8002988:	687b      	ldr	r3, [r7, #4]
 800298a:	681b      	ldr	r3, [r3, #0]
 800298c:	681a      	ldr	r2, [r3, #0]
 800298e:	687b      	ldr	r3, [r7, #4]
 8002990:	681b      	ldr	r3, [r3, #0]
 8002992:	2180      	movs	r1, #128	; 0x80
 8002994:	430a      	orrs	r2, r1
 8002996:	601a      	str	r2, [r3, #0]

        /* Return to decryption operating mode(Mode 3)*/
        MODIFY_REG(hcryp->Instance->CR, AES_CR_MODE, CRYP_OPERATINGMODE_DECRYPT);
 8002998:	687b      	ldr	r3, [r7, #4]
 800299a:	681b      	ldr	r3, [r3, #0]
 800299c:	681b      	ldr	r3, [r3, #0]
 800299e:	2218      	movs	r2, #24
 80029a0:	4393      	bics	r3, r2
 80029a2:	001a      	movs	r2, r3
 80029a4:	687b      	ldr	r3, [r7, #4]
 80029a6:	681b      	ldr	r3, [r3, #0]
 80029a8:	2110      	movs	r1, #16
 80029aa:	430a      	orrs	r2, r1
 80029ac:	601a      	str	r2, [r3, #0]
 80029ae:	e016      	b.n	80029de <CRYP_AES_Decrypt+0x10e>
      }
      else /*Mode 4 : decryption & Key preparation*/
      {
        /*  Set the Key*/
        CRYP_SetKey(hcryp, hcryp->Init.KeySize);
 80029b0:	687b      	ldr	r3, [r7, #4]
 80029b2:	689a      	ldr	r2, [r3, #8]
 80029b4:	687b      	ldr	r3, [r7, #4]
 80029b6:	0011      	movs	r1, r2
 80029b8:	0018      	movs	r0, r3
 80029ba:	f000 f931 	bl	8002c20 <CRYP_SetKey>

        /* Set decryption & Key preparation operating mode*/
        MODIFY_REG(hcryp->Instance->CR, AES_CR_MODE, CRYP_OPERATINGMODE_KEYDERIVATION_DECRYPT);
 80029be:	687b      	ldr	r3, [r7, #4]
 80029c0:	681b      	ldr	r3, [r3, #0]
 80029c2:	681a      	ldr	r2, [r3, #0]
 80029c4:	687b      	ldr	r3, [r7, #4]
 80029c6:	681b      	ldr	r3, [r3, #0]
 80029c8:	2118      	movs	r1, #24
 80029ca:	430a      	orrs	r2, r1
 80029cc:	601a      	str	r2, [r3, #0]
 80029ce:	e006      	b.n	80029de <CRYP_AES_Decrypt+0x10e>
      }
    }
    else  /*Algorithm CTR */
    {
      /*  Set the Key*/
      CRYP_SetKey(hcryp, hcryp->Init.KeySize);
 80029d0:	687b      	ldr	r3, [r7, #4]
 80029d2:	689a      	ldr	r2, [r3, #8]
 80029d4:	687b      	ldr	r3, [r7, #4]
 80029d6:	0011      	movs	r1, r2
 80029d8:	0018      	movs	r0, r3
 80029da:	f000 f921 	bl	8002c20 <CRYP_SetKey>
    }

    /* Set IV */
    if (hcryp->Init.Algorithm != CRYP_AES_ECB)
 80029de:	687b      	ldr	r3, [r7, #4]
 80029e0:	695b      	ldr	r3, [r3, #20]
 80029e2:	2b00      	cmp	r3, #0
 80029e4:	d017      	beq.n	8002a16 <CRYP_AES_Decrypt+0x146>
    {
      /* Set the Initialization Vector*/
      hcryp->Instance->IVR3 = *(uint32_t *)(hcryp->Init.pInitVect);
 80029e6:	687b      	ldr	r3, [r7, #4]
 80029e8:	691a      	ldr	r2, [r3, #16]
 80029ea:	687b      	ldr	r3, [r7, #4]
 80029ec:	681b      	ldr	r3, [r3, #0]
 80029ee:	6812      	ldr	r2, [r2, #0]
 80029f0:	62da      	str	r2, [r3, #44]	; 0x2c
      hcryp->Instance->IVR2 = *(uint32_t *)(hcryp->Init.pInitVect + 1U);
 80029f2:	687b      	ldr	r3, [r7, #4]
 80029f4:	691a      	ldr	r2, [r3, #16]
 80029f6:	687b      	ldr	r3, [r7, #4]
 80029f8:	681b      	ldr	r3, [r3, #0]
 80029fa:	6852      	ldr	r2, [r2, #4]
 80029fc:	629a      	str	r2, [r3, #40]	; 0x28
      hcryp->Instance->IVR1 = *(uint32_t *)(hcryp->Init.pInitVect + 2U);
 80029fe:	687b      	ldr	r3, [r7, #4]
 8002a00:	691a      	ldr	r2, [r3, #16]
 8002a02:	687b      	ldr	r3, [r7, #4]
 8002a04:	681b      	ldr	r3, [r3, #0]
 8002a06:	6892      	ldr	r2, [r2, #8]
 8002a08:	625a      	str	r2, [r3, #36]	; 0x24
      hcryp->Instance->IVR0 = *(uint32_t *)(hcryp->Init.pInitVect + 3U);
 8002a0a:	687b      	ldr	r3, [r7, #4]
 8002a0c:	691a      	ldr	r2, [r3, #16]
 8002a0e:	687b      	ldr	r3, [r7, #4]
 8002a10:	681b      	ldr	r3, [r3, #0]
 8002a12:	68d2      	ldr	r2, [r2, #12]
 8002a14:	621a      	str	r2, [r3, #32]
    }
  } /* if (DoKeyIVConfig == 1U) */

  /* Set the phase */
  hcryp->Phase = CRYP_PHASE_PROCESS;
 8002a16:	687b      	ldr	r3, [r7, #4]
 8002a18:	2202      	movs	r2, #2
 8002a1a:	645a      	str	r2, [r3, #68]	; 0x44

  /* Enable CRYP */
  __HAL_CRYP_ENABLE(hcryp);
 8002a1c:	687b      	ldr	r3, [r7, #4]
 8002a1e:	681b      	ldr	r3, [r3, #0]
 8002a20:	681a      	ldr	r2, [r3, #0]
 8002a22:	687b      	ldr	r3, [r7, #4]
 8002a24:	681b      	ldr	r3, [r3, #0]
 8002a26:	2101      	movs	r1, #1
 8002a28:	430a      	orrs	r2, r1
 8002a2a:	601a      	str	r2, [r3, #0]

  incount = hcryp->CrypInCount;
 8002a2c:	230e      	movs	r3, #14
 8002a2e:	18fb      	adds	r3, r7, r3
 8002a30:	687a      	ldr	r2, [r7, #4]
 8002a32:	8fd2      	ldrh	r2, [r2, #62]	; 0x3e
 8002a34:	801a      	strh	r2, [r3, #0]
  outcount = hcryp->CrypOutCount;
 8002a36:	230c      	movs	r3, #12
 8002a38:	18fb      	adds	r3, r7, r3
 8002a3a:	687a      	ldr	r2, [r7, #4]
 8002a3c:	2140      	movs	r1, #64	; 0x40
 8002a3e:	5a52      	ldrh	r2, [r2, r1]
 8002a40:	801a      	strh	r2, [r3, #0]
  while ((incount < (hcryp->Size / 4U)) && (outcount < (hcryp->Size / 4U)))
 8002a42:	e010      	b.n	8002a66 <CRYP_AES_Decrypt+0x196>
  {
    /* Write plain data and get cipher data */
    CRYP_AES_ProcessData(hcryp, Timeout);
 8002a44:	683a      	ldr	r2, [r7, #0]
 8002a46:	687b      	ldr	r3, [r7, #4]
 8002a48:	0011      	movs	r1, r2
 8002a4a:	0018      	movs	r0, r3
 8002a4c:	f000 f830 	bl	8002ab0 <CRYP_AES_ProcessData>
    incount = hcryp->CrypInCount;
 8002a50:	230e      	movs	r3, #14
 8002a52:	18fb      	adds	r3, r7, r3
 8002a54:	687a      	ldr	r2, [r7, #4]
 8002a56:	8fd2      	ldrh	r2, [r2, #62]	; 0x3e
 8002a58:	801a      	strh	r2, [r3, #0]
    outcount = hcryp->CrypOutCount;
 8002a5a:	230c      	movs	r3, #12
 8002a5c:	18fb      	adds	r3, r7, r3
 8002a5e:	687a      	ldr	r2, [r7, #4]
 8002a60:	2140      	movs	r1, #64	; 0x40
 8002a62:	5a52      	ldrh	r2, [r2, r1]
 8002a64:	801a      	strh	r2, [r3, #0]
  while ((incount < (hcryp->Size / 4U)) && (outcount < (hcryp->Size / 4U)))
 8002a66:	687b      	ldr	r3, [r7, #4]
 8002a68:	2242      	movs	r2, #66	; 0x42
 8002a6a:	5a9b      	ldrh	r3, [r3, r2]
 8002a6c:	089b      	lsrs	r3, r3, #2
 8002a6e:	b29b      	uxth	r3, r3
 8002a70:	220e      	movs	r2, #14
 8002a72:	18ba      	adds	r2, r7, r2
 8002a74:	8812      	ldrh	r2, [r2, #0]
 8002a76:	429a      	cmp	r2, r3
 8002a78:	d209      	bcs.n	8002a8e <CRYP_AES_Decrypt+0x1be>
 8002a7a:	687b      	ldr	r3, [r7, #4]
 8002a7c:	2242      	movs	r2, #66	; 0x42
 8002a7e:	5a9b      	ldrh	r3, [r3, r2]
 8002a80:	089b      	lsrs	r3, r3, #2
 8002a82:	b29b      	uxth	r3, r3
 8002a84:	220c      	movs	r2, #12
 8002a86:	18ba      	adds	r2, r7, r2
 8002a88:	8812      	ldrh	r2, [r2, #0]
 8002a8a:	429a      	cmp	r2, r3
 8002a8c:	d3da      	bcc.n	8002a44 <CRYP_AES_Decrypt+0x174>
  }

  /* Disable CRYP */
  __HAL_CRYP_DISABLE(hcryp);
 8002a8e:	687b      	ldr	r3, [r7, #4]
 8002a90:	681b      	ldr	r3, [r3, #0]
 8002a92:	681a      	ldr	r2, [r3, #0]
 8002a94:	687b      	ldr	r3, [r7, #4]
 8002a96:	681b      	ldr	r3, [r3, #0]
 8002a98:	2101      	movs	r1, #1
 8002a9a:	438a      	bics	r2, r1
 8002a9c:	601a      	str	r2, [r3, #0]

  /* Change the CRYP state */
  hcryp->State = HAL_CRYP_STATE_READY;
 8002a9e:	687b      	ldr	r3, [r7, #4]
 8002aa0:	2251      	movs	r2, #81	; 0x51
 8002aa2:	2101      	movs	r1, #1
 8002aa4:	5499      	strb	r1, [r3, r2]

  /* Return function status */
  return HAL_OK;
 8002aa6:	2300      	movs	r3, #0
}
 8002aa8:	0018      	movs	r0, r3
 8002aaa:	46bd      	mov	sp, r7
 8002aac:	b004      	add	sp, #16
 8002aae:	bd80      	pop	{r7, pc}

08002ab0 <CRYP_AES_ProcessData>:
  *         the configuration information for CRYP module
  * @param  Timeout Specify Timeout value
  * @retval None
  */
static void CRYP_AES_ProcessData(CRYP_HandleTypeDef *hcryp, uint32_t Timeout)
{
 8002ab0:	b580      	push	{r7, lr}
 8002ab2:	b088      	sub	sp, #32
 8002ab4:	af00      	add	r7, sp, #0
 8002ab6:	6078      	str	r0, [r7, #4]
 8002ab8:	6039      	str	r1, [r7, #0]

  uint32_t temp[4];  /* Temporary CrypOutBuff */
  uint32_t i;

  /* Write the input block in the IN FIFO */
  hcryp->Instance->DINR  = *(uint32_t *)(hcryp->pCrypInBuffPtr + hcryp->CrypInCount);
 8002aba:	687b      	ldr	r3, [r7, #4]
 8002abc:	6b5a      	ldr	r2, [r3, #52]	; 0x34
 8002abe:	687b      	ldr	r3, [r7, #4]
 8002ac0:	8fdb      	ldrh	r3, [r3, #62]	; 0x3e
 8002ac2:	b29b      	uxth	r3, r3
 8002ac4:	009b      	lsls	r3, r3, #2
 8002ac6:	18d2      	adds	r2, r2, r3
 8002ac8:	687b      	ldr	r3, [r7, #4]
 8002aca:	681b      	ldr	r3, [r3, #0]
 8002acc:	6812      	ldr	r2, [r2, #0]
 8002ace:	609a      	str	r2, [r3, #8]
  hcryp->CrypInCount++;
 8002ad0:	687b      	ldr	r3, [r7, #4]
 8002ad2:	8fdb      	ldrh	r3, [r3, #62]	; 0x3e
 8002ad4:	b29b      	uxth	r3, r3
 8002ad6:	3301      	adds	r3, #1
 8002ad8:	b29a      	uxth	r2, r3
 8002ada:	687b      	ldr	r3, [r7, #4]
 8002adc:	87da      	strh	r2, [r3, #62]	; 0x3e
  hcryp->Instance->DINR  = *(uint32_t *)(hcryp->pCrypInBuffPtr + hcryp->CrypInCount);
 8002ade:	687b      	ldr	r3, [r7, #4]
 8002ae0:	6b5a      	ldr	r2, [r3, #52]	; 0x34
 8002ae2:	687b      	ldr	r3, [r7, #4]
 8002ae4:	8fdb      	ldrh	r3, [r3, #62]	; 0x3e
 8002ae6:	b29b      	uxth	r3, r3
 8002ae8:	009b      	lsls	r3, r3, #2
 8002aea:	18d2      	adds	r2, r2, r3
 8002aec:	687b      	ldr	r3, [r7, #4]
 8002aee:	681b      	ldr	r3, [r3, #0]
 8002af0:	6812      	ldr	r2, [r2, #0]
 8002af2:	609a      	str	r2, [r3, #8]
  hcryp->CrypInCount++;
 8002af4:	687b      	ldr	r3, [r7, #4]
 8002af6:	8fdb      	ldrh	r3, [r3, #62]	; 0x3e
 8002af8:	b29b      	uxth	r3, r3
 8002afa:	3301      	adds	r3, #1
 8002afc:	b29a      	uxth	r2, r3
 8002afe:	687b      	ldr	r3, [r7, #4]
 8002b00:	87da      	strh	r2, [r3, #62]	; 0x3e
  hcryp->Instance->DINR  = *(uint32_t *)(hcryp->pCrypInBuffPtr + hcryp->CrypInCount);
 8002b02:	687b      	ldr	r3, [r7, #4]
 8002b04:	6b5a      	ldr	r2, [r3, #52]	; 0x34
 8002b06:	687b      	ldr	r3, [r7, #4]
 8002b08:	8fdb      	ldrh	r3, [r3, #62]	; 0x3e
 8002b0a:	b29b      	uxth	r3, r3
 8002b0c:	009b      	lsls	r3, r3, #2
 8002b0e:	18d2      	adds	r2, r2, r3
 8002b10:	687b      	ldr	r3, [r7, #4]
 8002b12:	681b      	ldr	r3, [r3, #0]
 8002b14:	6812      	ldr	r2, [r2, #0]
 8002b16:	609a      	str	r2, [r3, #8]
  hcryp->CrypInCount++;
 8002b18:	687b      	ldr	r3, [r7, #4]
 8002b1a:	8fdb      	ldrh	r3, [r3, #62]	; 0x3e
 8002b1c:	b29b      	uxth	r3, r3
 8002b1e:	3301      	adds	r3, #1
 8002b20:	b29a      	uxth	r2, r3
 8002b22:	687b      	ldr	r3, [r7, #4]
 8002b24:	87da      	strh	r2, [r3, #62]	; 0x3e
  hcryp->Instance->DINR  = *(uint32_t *)(hcryp->pCrypInBuffPtr + hcryp->CrypInCount);
 8002b26:	687b      	ldr	r3, [r7, #4]
 8002b28:	6b5a      	ldr	r2, [r3, #52]	; 0x34
 8002b2a:	687b      	ldr	r3, [r7, #4]
 8002b2c:	8fdb      	ldrh	r3, [r3, #62]	; 0x3e
 8002b2e:	b29b      	uxth	r3, r3
 8002b30:	009b      	lsls	r3, r3, #2
 8002b32:	18d2      	adds	r2, r2, r3
 8002b34:	687b      	ldr	r3, [r7, #4]
 8002b36:	681b      	ldr	r3, [r3, #0]
 8002b38:	6812      	ldr	r2, [r2, #0]
 8002b3a:	609a      	str	r2, [r3, #8]
  hcryp->CrypInCount++;
 8002b3c:	687b      	ldr	r3, [r7, #4]
 8002b3e:	8fdb      	ldrh	r3, [r3, #62]	; 0x3e
 8002b40:	b29b      	uxth	r3, r3
 8002b42:	3301      	adds	r3, #1
 8002b44:	b29a      	uxth	r2, r3
 8002b46:	687b      	ldr	r3, [r7, #4]
 8002b48:	87da      	strh	r2, [r3, #62]	; 0x3e

  /* Wait for CCF flag to be raised */
  if (CRYP_WaitOnCCFlag(hcryp, Timeout) != HAL_OK)
 8002b4a:	683a      	ldr	r2, [r7, #0]
 8002b4c:	687b      	ldr	r3, [r7, #4]
 8002b4e:	0011      	movs	r1, r2
 8002b50:	0018      	movs	r0, r3
 8002b52:	f000 fe0b 	bl	800376c <CRYP_WaitOnCCFlag>
 8002b56:	1e03      	subs	r3, r0, #0
 8002b58:	d019      	beq.n	8002b8e <CRYP_AES_ProcessData+0xde>
  {
    /* Disable the CRYP peripheral clock */
    __HAL_CRYP_DISABLE(hcryp);
 8002b5a:	687b      	ldr	r3, [r7, #4]
 8002b5c:	681b      	ldr	r3, [r3, #0]
 8002b5e:	681a      	ldr	r2, [r3, #0]
 8002b60:	687b      	ldr	r3, [r7, #4]
 8002b62:	681b      	ldr	r3, [r3, #0]
 8002b64:	2101      	movs	r1, #1
 8002b66:	438a      	bics	r2, r1
 8002b68:	601a      	str	r2, [r3, #0]

    /* Change state */
    hcryp->ErrorCode |= HAL_CRYP_ERROR_TIMEOUT;
 8002b6a:	687b      	ldr	r3, [r7, #4]
 8002b6c:	6d5b      	ldr	r3, [r3, #84]	; 0x54
 8002b6e:	2210      	movs	r2, #16
 8002b70:	431a      	orrs	r2, r3
 8002b72:	687b      	ldr	r3, [r7, #4]
 8002b74:	655a      	str	r2, [r3, #84]	; 0x54
    hcryp->State = HAL_CRYP_STATE_READY;
 8002b76:	687b      	ldr	r3, [r7, #4]
 8002b78:	2251      	movs	r2, #81	; 0x51
 8002b7a:	2101      	movs	r1, #1
 8002b7c:	5499      	strb	r1, [r3, r2]

    /* Process unlocked */
    __HAL_UNLOCK(hcryp);
 8002b7e:	687b      	ldr	r3, [r7, #4]
 8002b80:	2250      	movs	r2, #80	; 0x50
 8002b82:	2100      	movs	r1, #0
 8002b84:	5499      	strb	r1, [r3, r2]
    /*Call registered error callback*/
#if (USE_HAL_CRYP_REGISTER_CALLBACKS == 1U)
    hcryp->ErrorCallback(hcryp);
#else
    /*Call legacy weak error callback*/
    HAL_CRYP_ErrorCallback(hcryp);
 8002b86:	687b      	ldr	r3, [r7, #4]
 8002b88:	0018      	movs	r0, r3
 8002b8a:	f7ff fe11 	bl	80027b0 <HAL_CRYP_ErrorCallback>
#endif /* USE_HAL_CRYP_REGISTER_CALLBACKS */
  }

  /* Clear CCF Flag */
  __HAL_CRYP_CLEAR_FLAG(hcryp, CRYP_CCF_CLEAR);
 8002b8e:	687b      	ldr	r3, [r7, #4]
 8002b90:	681b      	ldr	r3, [r3, #0]
 8002b92:	681a      	ldr	r2, [r3, #0]
 8002b94:	687b      	ldr	r3, [r7, #4]
 8002b96:	681b      	ldr	r3, [r3, #0]
 8002b98:	2180      	movs	r1, #128	; 0x80
 8002b9a:	430a      	orrs	r2, r1
 8002b9c:	601a      	str	r2, [r3, #0]

  /* Read the output block from the output FIFO and put them in temporary buffer then get CrypOutBuff from temporary buffer*/
  for (i = 0U; i < 4U; i++)
 8002b9e:	2300      	movs	r3, #0
 8002ba0:	61fb      	str	r3, [r7, #28]
 8002ba2:	e00a      	b.n	8002bba <CRYP_AES_ProcessData+0x10a>
  {
    temp[i] = hcryp->Instance->DOUTR;
 8002ba4:	687b      	ldr	r3, [r7, #4]
 8002ba6:	681b      	ldr	r3, [r3, #0]
 8002ba8:	68d9      	ldr	r1, [r3, #12]
 8002baa:	230c      	movs	r3, #12
 8002bac:	18fb      	adds	r3, r7, r3
 8002bae:	69fa      	ldr	r2, [r7, #28]
 8002bb0:	0092      	lsls	r2, r2, #2
 8002bb2:	50d1      	str	r1, [r2, r3]
  for (i = 0U; i < 4U; i++)
 8002bb4:	69fb      	ldr	r3, [r7, #28]
 8002bb6:	3301      	adds	r3, #1
 8002bb8:	61fb      	str	r3, [r7, #28]
 8002bba:	69fb      	ldr	r3, [r7, #28]
 8002bbc:	2b03      	cmp	r3, #3
 8002bbe:	d9f1      	bls.n	8002ba4 <CRYP_AES_ProcessData+0xf4>
  }
  i= 0U;
 8002bc0:	2300      	movs	r3, #0
 8002bc2:	61fb      	str	r3, [r7, #28]
  while((hcryp->CrypOutCount < ((hcryp->Size + 3U)/4U)) && (i<4U))
 8002bc4:	e019      	b.n	8002bfa <CRYP_AES_ProcessData+0x14a>
  {
    *(uint32_t *)(hcryp->pCrypOutBuffPtr + hcryp->CrypOutCount) = temp[i];
 8002bc6:	687b      	ldr	r3, [r7, #4]
 8002bc8:	6b9a      	ldr	r2, [r3, #56]	; 0x38
 8002bca:	687b      	ldr	r3, [r7, #4]
 8002bcc:	2140      	movs	r1, #64	; 0x40
 8002bce:	5a5b      	ldrh	r3, [r3, r1]
 8002bd0:	b29b      	uxth	r3, r3
 8002bd2:	009b      	lsls	r3, r3, #2
 8002bd4:	18d3      	adds	r3, r2, r3
 8002bd6:	220c      	movs	r2, #12
 8002bd8:	18ba      	adds	r2, r7, r2
 8002bda:	69f9      	ldr	r1, [r7, #28]
 8002bdc:	0089      	lsls	r1, r1, #2
 8002bde:	588a      	ldr	r2, [r1, r2]
 8002be0:	601a      	str	r2, [r3, #0]
    hcryp->CrypOutCount++;
 8002be2:	687b      	ldr	r3, [r7, #4]
 8002be4:	2240      	movs	r2, #64	; 0x40
 8002be6:	5a9b      	ldrh	r3, [r3, r2]
 8002be8:	b29b      	uxth	r3, r3
 8002bea:	3301      	adds	r3, #1
 8002bec:	b299      	uxth	r1, r3
 8002bee:	687b      	ldr	r3, [r7, #4]
 8002bf0:	2240      	movs	r2, #64	; 0x40
 8002bf2:	5299      	strh	r1, [r3, r2]
    i++;
 8002bf4:	69fb      	ldr	r3, [r7, #28]
 8002bf6:	3301      	adds	r3, #1
 8002bf8:	61fb      	str	r3, [r7, #28]
  while((hcryp->CrypOutCount < ((hcryp->Size + 3U)/4U)) && (i<4U))
 8002bfa:	687b      	ldr	r3, [r7, #4]
 8002bfc:	2240      	movs	r2, #64	; 0x40
 8002bfe:	5a9b      	ldrh	r3, [r3, r2]
 8002c00:	b29b      	uxth	r3, r3
 8002c02:	0019      	movs	r1, r3
 8002c04:	687b      	ldr	r3, [r7, #4]
 8002c06:	2242      	movs	r2, #66	; 0x42
 8002c08:	5a9b      	ldrh	r3, [r3, r2]
 8002c0a:	3303      	adds	r3, #3
 8002c0c:	089b      	lsrs	r3, r3, #2
 8002c0e:	4299      	cmp	r1, r3
 8002c10:	d202      	bcs.n	8002c18 <CRYP_AES_ProcessData+0x168>
 8002c12:	69fb      	ldr	r3, [r7, #28]
 8002c14:	2b03      	cmp	r3, #3
 8002c16:	d9d6      	bls.n	8002bc6 <CRYP_AES_ProcessData+0x116>
  }
}
 8002c18:	46c0      	nop			; (mov r8, r8)
 8002c1a:	46bd      	mov	sp, r7
 8002c1c:	b008      	add	sp, #32
 8002c1e:	bd80      	pop	{r7, pc}

08002c20 <CRYP_SetKey>:
  * @note   If pKey is NULL, the Key registers are not written. This configuration
  *         occurs when the key is written out of HAL scope.
  * @retval None
  */
static void CRYP_SetKey(CRYP_HandleTypeDef *hcryp, uint32_t KeySize)
{
 8002c20:	b580      	push	{r7, lr}
 8002c22:	b082      	sub	sp, #8
 8002c24:	af00      	add	r7, sp, #0
 8002c26:	6078      	str	r0, [r7, #4]
 8002c28:	6039      	str	r1, [r7, #0]
  if (hcryp->Init.pKey != NULL)
 8002c2a:	687b      	ldr	r3, [r7, #4]
 8002c2c:	68db      	ldr	r3, [r3, #12]
 8002c2e:	2b00      	cmp	r3, #0
 8002c30:	d051      	beq.n	8002cd6 <CRYP_SetKey+0xb6>
  {
    switch (KeySize)
 8002c32:	683b      	ldr	r3, [r7, #0]
 8002c34:	2b00      	cmp	r3, #0
 8002c36:	d035      	beq.n	8002ca4 <CRYP_SetKey+0x84>
 8002c38:	2280      	movs	r2, #128	; 0x80
 8002c3a:	02d2      	lsls	r2, r2, #11
 8002c3c:	4293      	cmp	r3, r2
 8002c3e:	d000      	beq.n	8002c42 <CRYP_SetKey+0x22>
        hcryp->Instance->KEYR1 = *(uint32_t *)(hcryp->Init.pKey + 2U);
        hcryp->Instance->KEYR0 = *(uint32_t *)(hcryp->Init.pKey + 3U);

        break;
      default:
        break;
 8002c40:	e04a      	b.n	8002cd8 <CRYP_SetKey+0xb8>
        hcryp->Instance->KEYR7 = *(uint32_t *)(hcryp->Init.pKey);
 8002c42:	687b      	ldr	r3, [r7, #4]
 8002c44:	68da      	ldr	r2, [r3, #12]
 8002c46:	687b      	ldr	r3, [r7, #4]
 8002c48:	681b      	ldr	r3, [r3, #0]
 8002c4a:	6812      	ldr	r2, [r2, #0]
 8002c4c:	63da      	str	r2, [r3, #60]	; 0x3c
        hcryp->Instance->KEYR6 = *(uint32_t *)(hcryp->Init.pKey + 1U);
 8002c4e:	687b      	ldr	r3, [r7, #4]
 8002c50:	68da      	ldr	r2, [r3, #12]
 8002c52:	687b      	ldr	r3, [r7, #4]
 8002c54:	681b      	ldr	r3, [r3, #0]
 8002c56:	6852      	ldr	r2, [r2, #4]
 8002c58:	639a      	str	r2, [r3, #56]	; 0x38
        hcryp->Instance->KEYR5 = *(uint32_t *)(hcryp->Init.pKey + 2U);
 8002c5a:	687b      	ldr	r3, [r7, #4]
 8002c5c:	68da      	ldr	r2, [r3, #12]
 8002c5e:	687b      	ldr	r3, [r7, #4]
 8002c60:	681b      	ldr	r3, [r3, #0]
 8002c62:	6892      	ldr	r2, [r2, #8]
 8002c64:	635a      	str	r2, [r3, #52]	; 0x34
        hcryp->Instance->KEYR4 = *(uint32_t *)(hcryp->Init.pKey + 3U);
 8002c66:	687b      	ldr	r3, [r7, #4]
 8002c68:	68da      	ldr	r2, [r3, #12]
 8002c6a:	687b      	ldr	r3, [r7, #4]
 8002c6c:	681b      	ldr	r3, [r3, #0]
 8002c6e:	68d2      	ldr	r2, [r2, #12]
 8002c70:	631a      	str	r2, [r3, #48]	; 0x30
        hcryp->Instance->KEYR3 = *(uint32_t *)(hcryp->Init.pKey + 4U);
 8002c72:	687b      	ldr	r3, [r7, #4]
 8002c74:	68da      	ldr	r2, [r3, #12]
 8002c76:	687b      	ldr	r3, [r7, #4]
 8002c78:	681b      	ldr	r3, [r3, #0]
 8002c7a:	6912      	ldr	r2, [r2, #16]
 8002c7c:	61da      	str	r2, [r3, #28]
        hcryp->Instance->KEYR2 = *(uint32_t *)(hcryp->Init.pKey + 5U);
 8002c7e:	687b      	ldr	r3, [r7, #4]
 8002c80:	68da      	ldr	r2, [r3, #12]
 8002c82:	687b      	ldr	r3, [r7, #4]
 8002c84:	681b      	ldr	r3, [r3, #0]
 8002c86:	6952      	ldr	r2, [r2, #20]
 8002c88:	619a      	str	r2, [r3, #24]
        hcryp->Instance->KEYR1 = *(uint32_t *)(hcryp->Init.pKey + 6U);
 8002c8a:	687b      	ldr	r3, [r7, #4]
 8002c8c:	68da      	ldr	r2, [r3, #12]
 8002c8e:	687b      	ldr	r3, [r7, #4]
 8002c90:	681b      	ldr	r3, [r3, #0]
 8002c92:	6992      	ldr	r2, [r2, #24]
 8002c94:	615a      	str	r2, [r3, #20]
        hcryp->Instance->KEYR0 = *(uint32_t *)(hcryp->Init.pKey + 7U);
 8002c96:	687b      	ldr	r3, [r7, #4]
 8002c98:	68da      	ldr	r2, [r3, #12]
 8002c9a:	687b      	ldr	r3, [r7, #4]
 8002c9c:	681b      	ldr	r3, [r3, #0]
 8002c9e:	69d2      	ldr	r2, [r2, #28]
 8002ca0:	611a      	str	r2, [r3, #16]
        break;
 8002ca2:	e019      	b.n	8002cd8 <CRYP_SetKey+0xb8>
        hcryp->Instance->KEYR3 = *(uint32_t *)(hcryp->Init.pKey);
 8002ca4:	687b      	ldr	r3, [r7, #4]
 8002ca6:	68da      	ldr	r2, [r3, #12]
 8002ca8:	687b      	ldr	r3, [r7, #4]
 8002caa:	681b      	ldr	r3, [r3, #0]
 8002cac:	6812      	ldr	r2, [r2, #0]
 8002cae:	61da      	str	r2, [r3, #28]
        hcryp->Instance->KEYR2 = *(uint32_t *)(hcryp->Init.pKey + 1U);
 8002cb0:	687b      	ldr	r3, [r7, #4]
 8002cb2:	68da      	ldr	r2, [r3, #12]
 8002cb4:	687b      	ldr	r3, [r7, #4]
 8002cb6:	681b      	ldr	r3, [r3, #0]
 8002cb8:	6852      	ldr	r2, [r2, #4]
 8002cba:	619a      	str	r2, [r3, #24]
        hcryp->Instance->KEYR1 = *(uint32_t *)(hcryp->Init.pKey + 2U);
 8002cbc:	687b      	ldr	r3, [r7, #4]
 8002cbe:	68da      	ldr	r2, [r3, #12]
 8002cc0:	687b      	ldr	r3, [r7, #4]
 8002cc2:	681b      	ldr	r3, [r3, #0]
 8002cc4:	6892      	ldr	r2, [r2, #8]
 8002cc6:	615a      	str	r2, [r3, #20]
        hcryp->Instance->KEYR0 = *(uint32_t *)(hcryp->Init.pKey + 3U);
 8002cc8:	687b      	ldr	r3, [r7, #4]
 8002cca:	68da      	ldr	r2, [r3, #12]
 8002ccc:	687b      	ldr	r3, [r7, #4]
 8002cce:	681b      	ldr	r3, [r3, #0]
 8002cd0:	68d2      	ldr	r2, [r2, #12]
 8002cd2:	611a      	str	r2, [r3, #16]
        break;
 8002cd4:	e000      	b.n	8002cd8 <CRYP_SetKey+0xb8>
    }
  }
 8002cd6:	46c0      	nop			; (mov r8, r8)
}
 8002cd8:	46c0      	nop			; (mov r8, r8)
 8002cda:	46bd      	mov	sp, r7
 8002cdc:	b002      	add	sp, #8
 8002cde:	bd80      	pop	{r7, pc}

08002ce0 <CRYP_AESGCM_Process>:
  *         the configuration information for CRYP module
  * @param  Timeout Timeout duration
  * @retval HAL status
  */
static HAL_StatusTypeDef CRYP_AESGCM_Process(CRYP_HandleTypeDef *hcryp, uint32_t Timeout)
{
 8002ce0:	b580      	push	{r7, lr}
 8002ce2:	b08e      	sub	sp, #56	; 0x38
 8002ce4:	af00      	add	r7, sp, #0
 8002ce6:	6078      	str	r0, [r7, #4]
 8002ce8:	6039      	str	r1, [r7, #0]
  uint32_t tickstart;
  uint32_t wordsize = ((uint32_t)hcryp->Size / 4U) ;
 8002cea:	687b      	ldr	r3, [r7, #4]
 8002cec:	2242      	movs	r2, #66	; 0x42
 8002cee:	5a9b      	ldrh	r3, [r3, r2]
 8002cf0:	089b      	lsrs	r3, r3, #2
 8002cf2:	b29b      	uxth	r3, r3
 8002cf4:	637b      	str	r3, [r7, #52]	; 0x34
  uint32_t temp[4];  /* Temporary CrypOutBuff */
  uint32_t index;
  uint32_t lastwordsize;
  uint32_t incount;  /* Temporary CrypInCount Value */
  uint32_t outcount;  /* Temporary CrypOutCount Value */
  uint32_t DoKeyIVConfig = 1U; /* By default, carry out peripheral Key and IV configuration */
 8002cf6:	2301      	movs	r3, #1
 8002cf8:	623b      	str	r3, [r7, #32]

  if (hcryp->Init.KeyIVConfigSkip == CRYP_KEYIVCONFIG_ONCE)
 8002cfa:	687b      	ldr	r3, [r7, #4]
 8002cfc:	6adb      	ldr	r3, [r3, #44]	; 0x2c
 8002cfe:	2b01      	cmp	r3, #1
 8002d00:	d118      	bne.n	8002d34 <CRYP_AESGCM_Process+0x54>
  {
    if (hcryp->KeyIVConfig == 1U)
 8002d02:	687b      	ldr	r3, [r7, #4]
 8002d04:	6d9b      	ldr	r3, [r3, #88]	; 0x58
 8002d06:	2b01      	cmp	r3, #1
 8002d08:	d10a      	bne.n	8002d20 <CRYP_AESGCM_Process+0x40>
    {
      /* If the Key and IV configuration has to be done only once
         and if it has already been done, skip it */
      DoKeyIVConfig = 0U;
 8002d0a:	2300      	movs	r3, #0
 8002d0c:	623b      	str	r3, [r7, #32]
      hcryp->SizesSum += hcryp->Size; /* Compute message total payload length */
 8002d0e:	687b      	ldr	r3, [r7, #4]
 8002d10:	6ddb      	ldr	r3, [r3, #92]	; 0x5c
 8002d12:	687a      	ldr	r2, [r7, #4]
 8002d14:	2142      	movs	r1, #66	; 0x42
 8002d16:	5a52      	ldrh	r2, [r2, r1]
 8002d18:	189a      	adds	r2, r3, r2
 8002d1a:	687b      	ldr	r3, [r7, #4]
 8002d1c:	65da      	str	r2, [r3, #92]	; 0x5c
 8002d1e:	e00f      	b.n	8002d40 <CRYP_AESGCM_Process+0x60>
    else
    {
      /* If the Key and IV configuration has to be done only once
         and if it has not been done already, do it and set KeyIVConfig
         to keep track it won't have to be done again next time */
      hcryp->KeyIVConfig = 1U;
 8002d20:	687b      	ldr	r3, [r7, #4]
 8002d22:	2201      	movs	r2, #1
 8002d24:	659a      	str	r2, [r3, #88]	; 0x58
      hcryp->SizesSum = hcryp->Size; /* Merely store payload length */
 8002d26:	687b      	ldr	r3, [r7, #4]
 8002d28:	2242      	movs	r2, #66	; 0x42
 8002d2a:	5a9b      	ldrh	r3, [r3, r2]
 8002d2c:	001a      	movs	r2, r3
 8002d2e:	687b      	ldr	r3, [r7, #4]
 8002d30:	65da      	str	r2, [r3, #92]	; 0x5c
 8002d32:	e005      	b.n	8002d40 <CRYP_AESGCM_Process+0x60>
    }
  }
  else
  {
    hcryp->SizesSum = hcryp->Size;
 8002d34:	687b      	ldr	r3, [r7, #4]
 8002d36:	2242      	movs	r2, #66	; 0x42
 8002d38:	5a9b      	ldrh	r3, [r3, r2]
 8002d3a:	001a      	movs	r2, r3
 8002d3c:	687b      	ldr	r3, [r7, #4]
 8002d3e:	65da      	str	r2, [r3, #92]	; 0x5c
  }

  if (DoKeyIVConfig == 1U)
 8002d40:	6a3b      	ldr	r3, [r7, #32]
 8002d42:	2b01      	cmp	r3, #1
 8002d44:	d171      	bne.n	8002e2a <CRYP_AESGCM_Process+0x14a>
  {

    /*  Reset CrypHeaderCount */
    hcryp->CrypHeaderCount = 0U;
 8002d46:	687b      	ldr	r3, [r7, #4]
 8002d48:	2200      	movs	r2, #0
 8002d4a:	879a      	strh	r2, [r3, #60]	; 0x3c

    /****************************** Init phase **********************************/

    CRYP_SET_PHASE(hcryp, CRYP_PHASE_INIT);
 8002d4c:	687b      	ldr	r3, [r7, #4]
 8002d4e:	681b      	ldr	r3, [r3, #0]
 8002d50:	681a      	ldr	r2, [r3, #0]
 8002d52:	687b      	ldr	r3, [r7, #4]
 8002d54:	681b      	ldr	r3, [r3, #0]
 8002d56:	49b9      	ldr	r1, [pc, #740]	; (800303c <CRYP_AESGCM_Process+0x35c>)
 8002d58:	400a      	ands	r2, r1
 8002d5a:	601a      	str	r2, [r3, #0]

    /* Set the key */
    CRYP_SetKey(hcryp, hcryp->Init.KeySize);
 8002d5c:	687b      	ldr	r3, [r7, #4]
 8002d5e:	689a      	ldr	r2, [r3, #8]
 8002d60:	687b      	ldr	r3, [r7, #4]
 8002d62:	0011      	movs	r1, r2
 8002d64:	0018      	movs	r0, r3
 8002d66:	f7ff ff5b 	bl	8002c20 <CRYP_SetKey>

    /* Set the initialization vector and the counter : Initial Counter Block (ICB)*/
    hcryp->Instance->IVR3 = *(uint32_t *)(hcryp->Init.pInitVect);
 8002d6a:	687b      	ldr	r3, [r7, #4]
 8002d6c:	691a      	ldr	r2, [r3, #16]
 8002d6e:	687b      	ldr	r3, [r7, #4]
 8002d70:	681b      	ldr	r3, [r3, #0]
 8002d72:	6812      	ldr	r2, [r2, #0]
 8002d74:	62da      	str	r2, [r3, #44]	; 0x2c
    hcryp->Instance->IVR2 = *(uint32_t *)(hcryp->Init.pInitVect + 1U);
 8002d76:	687b      	ldr	r3, [r7, #4]
 8002d78:	691a      	ldr	r2, [r3, #16]
 8002d7a:	687b      	ldr	r3, [r7, #4]
 8002d7c:	681b      	ldr	r3, [r3, #0]
 8002d7e:	6852      	ldr	r2, [r2, #4]
 8002d80:	629a      	str	r2, [r3, #40]	; 0x28
    hcryp->Instance->IVR1 = *(uint32_t *)(hcryp->Init.pInitVect + 2U);
 8002d82:	687b      	ldr	r3, [r7, #4]
 8002d84:	691a      	ldr	r2, [r3, #16]
 8002d86:	687b      	ldr	r3, [r7, #4]
 8002d88:	681b      	ldr	r3, [r3, #0]
 8002d8a:	6892      	ldr	r2, [r2, #8]
 8002d8c:	625a      	str	r2, [r3, #36]	; 0x24
    hcryp->Instance->IVR0 = *(uint32_t *)(hcryp->Init.pInitVect + 3U);
 8002d8e:	687b      	ldr	r3, [r7, #4]
 8002d90:	691a      	ldr	r2, [r3, #16]
 8002d92:	687b      	ldr	r3, [r7, #4]
 8002d94:	681b      	ldr	r3, [r3, #0]
 8002d96:	68d2      	ldr	r2, [r2, #12]
 8002d98:	621a      	str	r2, [r3, #32]

    /* Enable the CRYP peripheral */
    __HAL_CRYP_ENABLE(hcryp);
 8002d9a:	687b      	ldr	r3, [r7, #4]
 8002d9c:	681b      	ldr	r3, [r3, #0]
 8002d9e:	681a      	ldr	r2, [r3, #0]
 8002da0:	687b      	ldr	r3, [r7, #4]
 8002da2:	681b      	ldr	r3, [r3, #0]
 8002da4:	2101      	movs	r1, #1
 8002da6:	430a      	orrs	r2, r1
 8002da8:	601a      	str	r2, [r3, #0]

    /* just wait for hash computation */
    if (CRYP_WaitOnCCFlag(hcryp, Timeout) != HAL_OK)
 8002daa:	683a      	ldr	r2, [r7, #0]
 8002dac:	687b      	ldr	r3, [r7, #4]
 8002dae:	0011      	movs	r1, r2
 8002db0:	0018      	movs	r0, r3
 8002db2:	f000 fcdb 	bl	800376c <CRYP_WaitOnCCFlag>
 8002db6:	1e03      	subs	r3, r0, #0
 8002db8:	d00f      	beq.n	8002dda <CRYP_AESGCM_Process+0xfa>
    {
      /* Change state */
      hcryp->ErrorCode |= HAL_CRYP_ERROR_TIMEOUT;
 8002dba:	687b      	ldr	r3, [r7, #4]
 8002dbc:	6d5b      	ldr	r3, [r3, #84]	; 0x54
 8002dbe:	2210      	movs	r2, #16
 8002dc0:	431a      	orrs	r2, r3
 8002dc2:	687b      	ldr	r3, [r7, #4]
 8002dc4:	655a      	str	r2, [r3, #84]	; 0x54
      hcryp->State = HAL_CRYP_STATE_READY;
 8002dc6:	687b      	ldr	r3, [r7, #4]
 8002dc8:	2251      	movs	r2, #81	; 0x51
 8002dca:	2101      	movs	r1, #1
 8002dcc:	5499      	strb	r1, [r3, r2]

      /* Process unlocked & return error */
      __HAL_UNLOCK(hcryp);
 8002dce:	687b      	ldr	r3, [r7, #4]
 8002dd0:	2250      	movs	r2, #80	; 0x50
 8002dd2:	2100      	movs	r1, #0
 8002dd4:	5499      	strb	r1, [r3, r2]
      return HAL_ERROR;
 8002dd6:	2301      	movs	r3, #1
 8002dd8:	e12b      	b.n	8003032 <CRYP_AESGCM_Process+0x352>
    }
    /* Clear CCF flag */
    __HAL_CRYP_CLEAR_FLAG(hcryp, CRYP_CCF_CLEAR);
 8002dda:	687b      	ldr	r3, [r7, #4]
 8002ddc:	681b      	ldr	r3, [r3, #0]
 8002dde:	681a      	ldr	r2, [r3, #0]
 8002de0:	687b      	ldr	r3, [r7, #4]
 8002de2:	681b      	ldr	r3, [r3, #0]
 8002de4:	2180      	movs	r1, #128	; 0x80
 8002de6:	430a      	orrs	r2, r1
 8002de8:	601a      	str	r2, [r3, #0]

    /************************ Header phase *************************************/

    if (CRYP_GCMCCM_SetHeaderPhase(hcryp,  Timeout) != HAL_OK)
 8002dea:	683a      	ldr	r2, [r7, #0]
 8002dec:	687b      	ldr	r3, [r7, #4]
 8002dee:	0011      	movs	r1, r2
 8002df0:	0018      	movs	r0, r3
 8002df2:	f000 fadd 	bl	80033b0 <CRYP_GCMCCM_SetHeaderPhase>
 8002df6:	1e03      	subs	r3, r0, #0
 8002df8:	d001      	beq.n	8002dfe <CRYP_AESGCM_Process+0x11e>
    {
      return HAL_ERROR;
 8002dfa:	2301      	movs	r3, #1
 8002dfc:	e119      	b.n	8003032 <CRYP_AESGCM_Process+0x352>
    }

    /*************************Payload phase ************************************/

    /* Set the phase */
    hcryp->Phase = CRYP_PHASE_PROCESS;
 8002dfe:	687b      	ldr	r3, [r7, #4]
 8002e00:	2202      	movs	r2, #2
 8002e02:	645a      	str	r2, [r3, #68]	; 0x44

    /* Select payload phase once the header phase is performed */
    CRYP_SET_PHASE(hcryp, CRYP_PHASE_PAYLOAD);
 8002e04:	687b      	ldr	r3, [r7, #4]
 8002e06:	681b      	ldr	r3, [r3, #0]
 8002e08:	681b      	ldr	r3, [r3, #0]
 8002e0a:	4a8c      	ldr	r2, [pc, #560]	; (800303c <CRYP_AESGCM_Process+0x35c>)
 8002e0c:	401a      	ands	r2, r3
 8002e0e:	687b      	ldr	r3, [r7, #4]
 8002e10:	681b      	ldr	r3, [r3, #0]
 8002e12:	2180      	movs	r1, #128	; 0x80
 8002e14:	01c9      	lsls	r1, r1, #7
 8002e16:	430a      	orrs	r2, r1
 8002e18:	601a      	str	r2, [r3, #0]

    /* Set to 0 the number of non-valid bytes using NPBLB register*/
    MODIFY_REG(hcryp->Instance->CR, AES_CR_NPBLB, 0U);
 8002e1a:	687b      	ldr	r3, [r7, #4]
 8002e1c:	681b      	ldr	r3, [r3, #0]
 8002e1e:	681a      	ldr	r2, [r3, #0]
 8002e20:	687b      	ldr	r3, [r7, #4]
 8002e22:	681b      	ldr	r3, [r3, #0]
 8002e24:	4986      	ldr	r1, [pc, #536]	; (8003040 <CRYP_AESGCM_Process+0x360>)
 8002e26:	400a      	ands	r2, r1
 8002e28:	601a      	str	r2, [r3, #0]

  } /* if (DoKeyIVConfig == 1U) */

  if ((hcryp->Size % 16U) != 0U)
 8002e2a:	687b      	ldr	r3, [r7, #4]
 8002e2c:	2242      	movs	r2, #66	; 0x42
 8002e2e:	5a9b      	ldrh	r3, [r3, r2]
 8002e30:	220f      	movs	r2, #15
 8002e32:	4013      	ands	r3, r2
 8002e34:	b29b      	uxth	r3, r3
 8002e36:	2b00      	cmp	r3, #0
 8002e38:	d003      	beq.n	8002e42 <CRYP_AESGCM_Process+0x162>
  {
    /* recalculate  wordsize */
    wordsize = ((wordsize / 4U) * 4U) ;
 8002e3a:	6b7b      	ldr	r3, [r7, #52]	; 0x34
 8002e3c:	2203      	movs	r2, #3
 8002e3e:	4393      	bics	r3, r2
 8002e40:	637b      	str	r3, [r7, #52]	; 0x34
  }

  /* Get tick */
  tickstart = HAL_GetTick();
 8002e42:	f7ff f939 	bl	80020b8 <HAL_GetTick>
 8002e46:	0003      	movs	r3, r0
 8002e48:	61fb      	str	r3, [r7, #28]

  /* Write input data and get output Data */
  incount = hcryp->CrypInCount;
 8002e4a:	687b      	ldr	r3, [r7, #4]
 8002e4c:	8fdb      	ldrh	r3, [r3, #62]	; 0x3e
 8002e4e:	b29b      	uxth	r3, r3
 8002e50:	62bb      	str	r3, [r7, #40]	; 0x28
  outcount = hcryp->CrypOutCount;
 8002e52:	687b      	ldr	r3, [r7, #4]
 8002e54:	2240      	movs	r2, #64	; 0x40
 8002e56:	5a9b      	ldrh	r3, [r3, r2]
 8002e58:	b29b      	uxth	r3, r3
 8002e5a:	627b      	str	r3, [r7, #36]	; 0x24
  while ((incount < wordsize) && (outcount < wordsize))
 8002e5c:	e034      	b.n	8002ec8 <CRYP_AESGCM_Process+0x1e8>
  {
    /* Write plain data and get cipher data */
    CRYP_AES_ProcessData(hcryp, Timeout);
 8002e5e:	683a      	ldr	r2, [r7, #0]
 8002e60:	687b      	ldr	r3, [r7, #4]
 8002e62:	0011      	movs	r1, r2
 8002e64:	0018      	movs	r0, r3
 8002e66:	f7ff fe23 	bl	8002ab0 <CRYP_AES_ProcessData>

    /* Check for the Timeout */
    if (Timeout != HAL_MAX_DELAY)
 8002e6a:	683b      	ldr	r3, [r7, #0]
 8002e6c:	3301      	adds	r3, #1
 8002e6e:	d022      	beq.n	8002eb6 <CRYP_AESGCM_Process+0x1d6>
    {
      if (((HAL_GetTick() - tickstart) > Timeout) || (Timeout == 0U))
 8002e70:	f7ff f922 	bl	80020b8 <HAL_GetTick>
 8002e74:	0002      	movs	r2, r0
 8002e76:	69fb      	ldr	r3, [r7, #28]
 8002e78:	1ad3      	subs	r3, r2, r3
 8002e7a:	683a      	ldr	r2, [r7, #0]
 8002e7c:	429a      	cmp	r2, r3
 8002e7e:	d302      	bcc.n	8002e86 <CRYP_AESGCM_Process+0x1a6>
 8002e80:	683b      	ldr	r3, [r7, #0]
 8002e82:	2b00      	cmp	r3, #0
 8002e84:	d117      	bne.n	8002eb6 <CRYP_AESGCM_Process+0x1d6>
      {
        /* Disable the CRYP peripheral clock */
        __HAL_CRYP_DISABLE(hcryp);
 8002e86:	687b      	ldr	r3, [r7, #4]
 8002e88:	681b      	ldr	r3, [r3, #0]
 8002e8a:	681a      	ldr	r2, [r3, #0]
 8002e8c:	687b      	ldr	r3, [r7, #4]
 8002e8e:	681b      	ldr	r3, [r3, #0]
 8002e90:	2101      	movs	r1, #1
 8002e92:	438a      	bics	r2, r1
 8002e94:	601a      	str	r2, [r3, #0]

        /* Change state & error code */
        hcryp->ErrorCode |= HAL_CRYP_ERROR_TIMEOUT;
 8002e96:	687b      	ldr	r3, [r7, #4]
 8002e98:	6d5b      	ldr	r3, [r3, #84]	; 0x54
 8002e9a:	2210      	movs	r2, #16
 8002e9c:	431a      	orrs	r2, r3
 8002e9e:	687b      	ldr	r3, [r7, #4]
 8002ea0:	655a      	str	r2, [r3, #84]	; 0x54
        hcryp->State = HAL_CRYP_STATE_READY;
 8002ea2:	687b      	ldr	r3, [r7, #4]
 8002ea4:	2251      	movs	r2, #81	; 0x51
 8002ea6:	2101      	movs	r1, #1
 8002ea8:	5499      	strb	r1, [r3, r2]

        /* Process unlocked */
        __HAL_UNLOCK(hcryp);
 8002eaa:	687b      	ldr	r3, [r7, #4]
 8002eac:	2250      	movs	r2, #80	; 0x50
 8002eae:	2100      	movs	r1, #0
 8002eb0:	5499      	strb	r1, [r3, r2]
        return HAL_ERROR;
 8002eb2:	2301      	movs	r3, #1
 8002eb4:	e0bd      	b.n	8003032 <CRYP_AESGCM_Process+0x352>
      }
    }
    incount = hcryp->CrypInCount;
 8002eb6:	687b      	ldr	r3, [r7, #4]
 8002eb8:	8fdb      	ldrh	r3, [r3, #62]	; 0x3e
 8002eba:	b29b      	uxth	r3, r3
 8002ebc:	62bb      	str	r3, [r7, #40]	; 0x28
    outcount = hcryp->CrypOutCount;
 8002ebe:	687b      	ldr	r3, [r7, #4]
 8002ec0:	2240      	movs	r2, #64	; 0x40
 8002ec2:	5a9b      	ldrh	r3, [r3, r2]
 8002ec4:	b29b      	uxth	r3, r3
 8002ec6:	627b      	str	r3, [r7, #36]	; 0x24
  while ((incount < wordsize) && (outcount < wordsize))
 8002ec8:	6aba      	ldr	r2, [r7, #40]	; 0x28
 8002eca:	6b7b      	ldr	r3, [r7, #52]	; 0x34
 8002ecc:	429a      	cmp	r2, r3
 8002ece:	d203      	bcs.n	8002ed8 <CRYP_AESGCM_Process+0x1f8>
 8002ed0:	6a7a      	ldr	r2, [r7, #36]	; 0x24
 8002ed2:	6b7b      	ldr	r3, [r7, #52]	; 0x34
 8002ed4:	429a      	cmp	r2, r3
 8002ed6:	d3c2      	bcc.n	8002e5e <CRYP_AESGCM_Process+0x17e>
  }

  if ((hcryp->Size % 16U) != 0U)
 8002ed8:	687b      	ldr	r3, [r7, #4]
 8002eda:	2242      	movs	r2, #66	; 0x42
 8002edc:	5a9b      	ldrh	r3, [r3, r2]
 8002ede:	220f      	movs	r2, #15
 8002ee0:	4013      	ands	r3, r2
 8002ee2:	b29b      	uxth	r3, r3
 8002ee4:	2b00      	cmp	r3, #0
 8002ee6:	d100      	bne.n	8002eea <CRYP_AESGCM_Process+0x20a>
 8002ee8:	e0a2      	b.n	8003030 <CRYP_AESGCM_Process+0x350>
  {
    /* Compute the number of padding bytes in last block of payload */
    npblb = ((((uint32_t)hcryp->Size / 16U) + 1U) * 16U) - ((uint32_t)hcryp->Size);
 8002eea:	687b      	ldr	r3, [r7, #4]
 8002eec:	2242      	movs	r2, #66	; 0x42
 8002eee:	5a9b      	ldrh	r3, [r3, r2]
 8002ef0:	091b      	lsrs	r3, r3, #4
 8002ef2:	b29b      	uxth	r3, r3
 8002ef4:	3301      	adds	r3, #1
 8002ef6:	011b      	lsls	r3, r3, #4
 8002ef8:	687a      	ldr	r2, [r7, #4]
 8002efa:	2142      	movs	r1, #66	; 0x42
 8002efc:	5a52      	ldrh	r2, [r2, r1]
 8002efe:	1a9b      	subs	r3, r3, r2
 8002f00:	61bb      	str	r3, [r7, #24]

    /*  Set Npblb in case of AES GCM payload encryption to get right tag*/
    if ((hcryp->Instance->CR & AES_CR_MODE) == CRYP_OPERATINGMODE_ENCRYPT)
 8002f02:	687b      	ldr	r3, [r7, #4]
 8002f04:	681b      	ldr	r3, [r3, #0]
 8002f06:	681b      	ldr	r3, [r3, #0]
 8002f08:	2218      	movs	r2, #24
 8002f0a:	4013      	ands	r3, r2
 8002f0c:	d10b      	bne.n	8002f26 <CRYP_AESGCM_Process+0x246>
    {
      /* Set to 0 the number of non-valid bytes using NPBLB register*/
      MODIFY_REG(hcryp->Instance->CR, AES_CR_NPBLB, npblb << 20U);
 8002f0e:	687b      	ldr	r3, [r7, #4]
 8002f10:	681b      	ldr	r3, [r3, #0]
 8002f12:	681b      	ldr	r3, [r3, #0]
 8002f14:	4a4a      	ldr	r2, [pc, #296]	; (8003040 <CRYP_AESGCM_Process+0x360>)
 8002f16:	4013      	ands	r3, r2
 8002f18:	0019      	movs	r1, r3
 8002f1a:	69bb      	ldr	r3, [r7, #24]
 8002f1c:	051a      	lsls	r2, r3, #20
 8002f1e:	687b      	ldr	r3, [r7, #4]
 8002f20:	681b      	ldr	r3, [r3, #0]
 8002f22:	430a      	orrs	r2, r1
 8002f24:	601a      	str	r2, [r3, #0]
    }
    /* Number of valid words (lastwordsize) in last block */
    if ((npblb % 4U) == 0U)
 8002f26:	69bb      	ldr	r3, [r7, #24]
 8002f28:	2203      	movs	r2, #3
 8002f2a:	4013      	ands	r3, r2
 8002f2c:	d105      	bne.n	8002f3a <CRYP_AESGCM_Process+0x25a>
    {
      lastwordsize = (16U - npblb) / 4U;
 8002f2e:	69bb      	ldr	r3, [r7, #24]
 8002f30:	2210      	movs	r2, #16
 8002f32:	1ad3      	subs	r3, r2, r3
 8002f34:	089b      	lsrs	r3, r3, #2
 8002f36:	62fb      	str	r3, [r7, #44]	; 0x2c
 8002f38:	e005      	b.n	8002f46 <CRYP_AESGCM_Process+0x266>
    }
    else
    {
      lastwordsize = ((16U - npblb) / 4U) + 1U;
 8002f3a:	69bb      	ldr	r3, [r7, #24]
 8002f3c:	2210      	movs	r2, #16
 8002f3e:	1ad3      	subs	r3, r2, r3
 8002f40:	089b      	lsrs	r3, r3, #2
 8002f42:	3301      	adds	r3, #1
 8002f44:	62fb      	str	r3, [r7, #44]	; 0x2c
    }
    /*  last block optionally pad the data with zeros*/
    for (index = 0U; index < lastwordsize; index ++)
 8002f46:	2300      	movs	r3, #0
 8002f48:	633b      	str	r3, [r7, #48]	; 0x30
 8002f4a:	e014      	b.n	8002f76 <CRYP_AESGCM_Process+0x296>
    {
      /* Write the last Input block in the IN FIFO */
      hcryp->Instance->DINR  = *(uint32_t *)(hcryp->pCrypInBuffPtr + hcryp->CrypInCount);
 8002f4c:	687b      	ldr	r3, [r7, #4]
 8002f4e:	6b5a      	ldr	r2, [r3, #52]	; 0x34
 8002f50:	687b      	ldr	r3, [r7, #4]
 8002f52:	8fdb      	ldrh	r3, [r3, #62]	; 0x3e
 8002f54:	b29b      	uxth	r3, r3
 8002f56:	009b      	lsls	r3, r3, #2
 8002f58:	18d2      	adds	r2, r2, r3
 8002f5a:	687b      	ldr	r3, [r7, #4]
 8002f5c:	681b      	ldr	r3, [r3, #0]
 8002f5e:	6812      	ldr	r2, [r2, #0]
 8002f60:	609a      	str	r2, [r3, #8]
      hcryp->CrypInCount++;
 8002f62:	687b      	ldr	r3, [r7, #4]
 8002f64:	8fdb      	ldrh	r3, [r3, #62]	; 0x3e
 8002f66:	b29b      	uxth	r3, r3
 8002f68:	3301      	adds	r3, #1
 8002f6a:	b29a      	uxth	r2, r3
 8002f6c:	687b      	ldr	r3, [r7, #4]
 8002f6e:	87da      	strh	r2, [r3, #62]	; 0x3e
    for (index = 0U; index < lastwordsize; index ++)
 8002f70:	6b3b      	ldr	r3, [r7, #48]	; 0x30
 8002f72:	3301      	adds	r3, #1
 8002f74:	633b      	str	r3, [r7, #48]	; 0x30
 8002f76:	6b3a      	ldr	r2, [r7, #48]	; 0x30
 8002f78:	6afb      	ldr	r3, [r7, #44]	; 0x2c
 8002f7a:	429a      	cmp	r2, r3
 8002f7c:	d3e6      	bcc.n	8002f4c <CRYP_AESGCM_Process+0x26c>
    }
    while (index < 4U)
 8002f7e:	e006      	b.n	8002f8e <CRYP_AESGCM_Process+0x2ae>
    {
      /* pad the data with zeros to have a complete block */
      hcryp->Instance->DINR  = 0U;
 8002f80:	687b      	ldr	r3, [r7, #4]
 8002f82:	681b      	ldr	r3, [r3, #0]
 8002f84:	2200      	movs	r2, #0
 8002f86:	609a      	str	r2, [r3, #8]
      index++;
 8002f88:	6b3b      	ldr	r3, [r7, #48]	; 0x30
 8002f8a:	3301      	adds	r3, #1
 8002f8c:	633b      	str	r3, [r7, #48]	; 0x30
    while (index < 4U)
 8002f8e:	6b3b      	ldr	r3, [r7, #48]	; 0x30
 8002f90:	2b03      	cmp	r3, #3
 8002f92:	d9f5      	bls.n	8002f80 <CRYP_AESGCM_Process+0x2a0>
    }
    /* Wait for CCF flag to be raised */
    if (CRYP_WaitOnCCFlag(hcryp, Timeout) != HAL_OK)
 8002f94:	683a      	ldr	r2, [r7, #0]
 8002f96:	687b      	ldr	r3, [r7, #4]
 8002f98:	0011      	movs	r1, r2
 8002f9a:	0018      	movs	r0, r3
 8002f9c:	f000 fbe6 	bl	800376c <CRYP_WaitOnCCFlag>
 8002fa0:	1e03      	subs	r3, r0, #0
 8002fa2:	d00b      	beq.n	8002fbc <CRYP_AESGCM_Process+0x2dc>
    {
      hcryp->State = HAL_CRYP_STATE_READY;
 8002fa4:	687b      	ldr	r3, [r7, #4]
 8002fa6:	2251      	movs	r2, #81	; 0x51
 8002fa8:	2101      	movs	r1, #1
 8002faa:	5499      	strb	r1, [r3, r2]
      __HAL_UNLOCK(hcryp);
 8002fac:	687b      	ldr	r3, [r7, #4]
 8002fae:	2250      	movs	r2, #80	; 0x50
 8002fb0:	2100      	movs	r1, #0
 8002fb2:	5499      	strb	r1, [r3, r2]
#if (USE_HAL_CRYP_REGISTER_CALLBACKS == 1U)
      /*Call registered error callback*/
      hcryp->ErrorCallback(hcryp);
#else
      /*Call legacy weak error callback*/
      HAL_CRYP_ErrorCallback(hcryp);
 8002fb4:	687b      	ldr	r3, [r7, #4]
 8002fb6:	0018      	movs	r0, r3
 8002fb8:	f7ff fbfa 	bl	80027b0 <HAL_CRYP_ErrorCallback>
#endif /* USE_HAL_CRYP_REGISTER_CALLBACKS */
    }

    /* Clear CCF Flag */
    __HAL_CRYP_CLEAR_FLAG(hcryp, CRYP_CCF_CLEAR);
 8002fbc:	687b      	ldr	r3, [r7, #4]
 8002fbe:	681b      	ldr	r3, [r3, #0]
 8002fc0:	681a      	ldr	r2, [r3, #0]
 8002fc2:	687b      	ldr	r3, [r7, #4]
 8002fc4:	681b      	ldr	r3, [r3, #0]
 8002fc6:	2180      	movs	r1, #128	; 0x80
 8002fc8:	430a      	orrs	r2, r1
 8002fca:	601a      	str	r2, [r3, #0]

    /*Read the output block from the output FIFO */
    for (index = 0U; index < 4U; index++)
 8002fcc:	2300      	movs	r3, #0
 8002fce:	633b      	str	r3, [r7, #48]	; 0x30
 8002fd0:	e00a      	b.n	8002fe8 <CRYP_AESGCM_Process+0x308>
    {
      /* Read the output block from the output FIFO and put them in temporary buffer then get CrypOutBuff from temporary buffer */
      temp[index] = hcryp->Instance->DOUTR;
 8002fd2:	687b      	ldr	r3, [r7, #4]
 8002fd4:	681b      	ldr	r3, [r3, #0]
 8002fd6:	68d9      	ldr	r1, [r3, #12]
 8002fd8:	2308      	movs	r3, #8
 8002fda:	18fb      	adds	r3, r7, r3
 8002fdc:	6b3a      	ldr	r2, [r7, #48]	; 0x30
 8002fde:	0092      	lsls	r2, r2, #2
 8002fe0:	50d1      	str	r1, [r2, r3]
    for (index = 0U; index < 4U; index++)
 8002fe2:	6b3b      	ldr	r3, [r7, #48]	; 0x30
 8002fe4:	3301      	adds	r3, #1
 8002fe6:	633b      	str	r3, [r7, #48]	; 0x30
 8002fe8:	6b3b      	ldr	r3, [r7, #48]	; 0x30
 8002fea:	2b03      	cmp	r3, #3
 8002fec:	d9f1      	bls.n	8002fd2 <CRYP_AESGCM_Process+0x2f2>
    }
    for (index = 0U; index < lastwordsize; index++)
 8002fee:	2300      	movs	r3, #0
 8002ff0:	633b      	str	r3, [r7, #48]	; 0x30
 8002ff2:	e019      	b.n	8003028 <CRYP_AESGCM_Process+0x348>
    {
      *(uint32_t *)(hcryp->pCrypOutBuffPtr + (hcryp->CrypOutCount)) = temp[index];
 8002ff4:	687b      	ldr	r3, [r7, #4]
 8002ff6:	6b9a      	ldr	r2, [r3, #56]	; 0x38
 8002ff8:	687b      	ldr	r3, [r7, #4]
 8002ffa:	2140      	movs	r1, #64	; 0x40
 8002ffc:	5a5b      	ldrh	r3, [r3, r1]
 8002ffe:	b29b      	uxth	r3, r3
 8003000:	009b      	lsls	r3, r3, #2
 8003002:	18d3      	adds	r3, r2, r3
 8003004:	2208      	movs	r2, #8
 8003006:	18ba      	adds	r2, r7, r2
 8003008:	6b39      	ldr	r1, [r7, #48]	; 0x30
 800300a:	0089      	lsls	r1, r1, #2
 800300c:	588a      	ldr	r2, [r1, r2]
 800300e:	601a      	str	r2, [r3, #0]
      hcryp->CrypOutCount++;
 8003010:	687b      	ldr	r3, [r7, #4]
 8003012:	2240      	movs	r2, #64	; 0x40
 8003014:	5a9b      	ldrh	r3, [r3, r2]
 8003016:	b29b      	uxth	r3, r3
 8003018:	3301      	adds	r3, #1
 800301a:	b299      	uxth	r1, r3
 800301c:	687b      	ldr	r3, [r7, #4]
 800301e:	2240      	movs	r2, #64	; 0x40
 8003020:	5299      	strh	r1, [r3, r2]
    for (index = 0U; index < lastwordsize; index++)
 8003022:	6b3b      	ldr	r3, [r7, #48]	; 0x30
 8003024:	3301      	adds	r3, #1
 8003026:	633b      	str	r3, [r7, #48]	; 0x30
 8003028:	6b3a      	ldr	r2, [r7, #48]	; 0x30
 800302a:	6afb      	ldr	r3, [r7, #44]	; 0x2c
 800302c:	429a      	cmp	r2, r3
 800302e:	d3e1      	bcc.n	8002ff4 <CRYP_AESGCM_Process+0x314>
    }
  }

  /* Return function status */
  return HAL_OK;
 8003030:	2300      	movs	r3, #0
}
 8003032:	0018      	movs	r0, r3
 8003034:	46bd      	mov	sp, r7
 8003036:	b00e      	add	sp, #56	; 0x38
 8003038:	bd80      	pop	{r7, pc}
 800303a:	46c0      	nop			; (mov r8, r8)
 800303c:	ffff9fff 	.word	0xffff9fff
 8003040:	ff0fffff 	.word	0xff0fffff

08003044 <CRYP_AESCCM_Process>:
  *         the configuration information for CRYP module
  * @param  Timeout Timeout duration
  * @retval HAL status
  */
static HAL_StatusTypeDef CRYP_AESCCM_Process(CRYP_HandleTypeDef *hcryp, uint32_t Timeout)
{
 8003044:	b580      	push	{r7, lr}
 8003046:	b08e      	sub	sp, #56	; 0x38
 8003048:	af00      	add	r7, sp, #0
 800304a:	6078      	str	r0, [r7, #4]
 800304c:	6039      	str	r1, [r7, #0]
  uint32_t tickstart;
  uint32_t wordsize = ((uint32_t)hcryp->Size / 4U) ;
 800304e:	687b      	ldr	r3, [r7, #4]
 8003050:	2242      	movs	r2, #66	; 0x42
 8003052:	5a9b      	ldrh	r3, [r3, r2]
 8003054:	089b      	lsrs	r3, r3, #2
 8003056:	b29b      	uxth	r3, r3
 8003058:	637b      	str	r3, [r7, #52]	; 0x34
  uint32_t npblb;
  uint32_t lastwordsize;
  uint32_t temp[4] ;  /* Temporary CrypOutBuff */
  uint32_t incount;  /* Temporary CrypInCount Value */
  uint32_t outcount;  /* Temporary CrypOutCount Value */
  uint32_t DoKeyIVConfig = 1U; /* By default, carry out peripheral Key and IV configuration */
 800305a:	2301      	movs	r3, #1
 800305c:	623b      	str	r3, [r7, #32]

  if (hcryp->Init.KeyIVConfigSkip == CRYP_KEYIVCONFIG_ONCE)
 800305e:	687b      	ldr	r3, [r7, #4]
 8003060:	6adb      	ldr	r3, [r3, #44]	; 0x2c
 8003062:	2b01      	cmp	r3, #1
 8003064:	d118      	bne.n	8003098 <CRYP_AESCCM_Process+0x54>
  {
    if (hcryp->KeyIVConfig == 1U)
 8003066:	687b      	ldr	r3, [r7, #4]
 8003068:	6d9b      	ldr	r3, [r3, #88]	; 0x58
 800306a:	2b01      	cmp	r3, #1
 800306c:	d10a      	bne.n	8003084 <CRYP_AESCCM_Process+0x40>
    {
      /* If the Key and IV configuration has to be done only once
         and if it has already been done, skip it */
      DoKeyIVConfig = 0U;
 800306e:	2300      	movs	r3, #0
 8003070:	623b      	str	r3, [r7, #32]
      hcryp->SizesSum += hcryp->Size; /* Compute message total payload length */
 8003072:	687b      	ldr	r3, [r7, #4]
 8003074:	6ddb      	ldr	r3, [r3, #92]	; 0x5c
 8003076:	687a      	ldr	r2, [r7, #4]
 8003078:	2142      	movs	r1, #66	; 0x42
 800307a:	5a52      	ldrh	r2, [r2, r1]
 800307c:	189a      	adds	r2, r3, r2
 800307e:	687b      	ldr	r3, [r7, #4]
 8003080:	65da      	str	r2, [r3, #92]	; 0x5c
 8003082:	e00f      	b.n	80030a4 <CRYP_AESCCM_Process+0x60>
    else
    {
      /* If the Key and IV configuration has to be done only once
         and if it has not been done already, do it and set KeyIVConfig
         to keep track it won't have to be done again next time */
      hcryp->KeyIVConfig = 1U;
 8003084:	687b      	ldr	r3, [r7, #4]
 8003086:	2201      	movs	r2, #1
 8003088:	659a      	str	r2, [r3, #88]	; 0x58
      hcryp->SizesSum = hcryp->Size; /* Merely store payload length */
 800308a:	687b      	ldr	r3, [r7, #4]
 800308c:	2242      	movs	r2, #66	; 0x42
 800308e:	5a9b      	ldrh	r3, [r3, r2]
 8003090:	001a      	movs	r2, r3
 8003092:	687b      	ldr	r3, [r7, #4]
 8003094:	65da      	str	r2, [r3, #92]	; 0x5c
 8003096:	e005      	b.n	80030a4 <CRYP_AESCCM_Process+0x60>
    }
  }
  else
  {
    hcryp->SizesSum = hcryp->Size;
 8003098:	687b      	ldr	r3, [r7, #4]
 800309a:	2242      	movs	r2, #66	; 0x42
 800309c:	5a9b      	ldrh	r3, [r3, r2]
 800309e:	001a      	movs	r2, r3
 80030a0:	687b      	ldr	r3, [r7, #4]
 80030a2:	65da      	str	r2, [r3, #92]	; 0x5c
  }

  if (DoKeyIVConfig == 1U)
 80030a4:	6a3b      	ldr	r3, [r7, #32]
 80030a6:	2b01      	cmp	r3, #1
 80030a8:	d171      	bne.n	800318e <CRYP_AESCCM_Process+0x14a>
  {
    /*  Reset CrypHeaderCount */
    hcryp->CrypHeaderCount = 0U;
 80030aa:	687b      	ldr	r3, [r7, #4]
 80030ac:	2200      	movs	r2, #0
 80030ae:	879a      	strh	r2, [r3, #60]	; 0x3c

    /********************** Init phase ******************************************/

    CRYP_SET_PHASE(hcryp, CRYP_PHASE_INIT);
 80030b0:	687b      	ldr	r3, [r7, #4]
 80030b2:	681b      	ldr	r3, [r3, #0]
 80030b4:	681a      	ldr	r2, [r3, #0]
 80030b6:	687b      	ldr	r3, [r7, #4]
 80030b8:	681b      	ldr	r3, [r3, #0]
 80030ba:	49bb      	ldr	r1, [pc, #748]	; (80033a8 <CRYP_AESCCM_Process+0x364>)
 80030bc:	400a      	ands	r2, r1
 80030be:	601a      	str	r2, [r3, #0]

    /* Set the key */
    CRYP_SetKey(hcryp, hcryp->Init.KeySize);
 80030c0:	687b      	ldr	r3, [r7, #4]
 80030c2:	689a      	ldr	r2, [r3, #8]
 80030c4:	687b      	ldr	r3, [r7, #4]
 80030c6:	0011      	movs	r1, r2
 80030c8:	0018      	movs	r0, r3
 80030ca:	f7ff fda9 	bl	8002c20 <CRYP_SetKey>

    /* Set the initialization vector (IV) with B0 */
    hcryp->Instance->IVR3 = *(uint32_t *)(hcryp->Init.B0);
 80030ce:	687b      	ldr	r3, [r7, #4]
 80030d0:	6a1a      	ldr	r2, [r3, #32]
 80030d2:	687b      	ldr	r3, [r7, #4]
 80030d4:	681b      	ldr	r3, [r3, #0]
 80030d6:	6812      	ldr	r2, [r2, #0]
 80030d8:	62da      	str	r2, [r3, #44]	; 0x2c
    hcryp->Instance->IVR2 = *(uint32_t *)(hcryp->Init.B0 + 1U);
 80030da:	687b      	ldr	r3, [r7, #4]
 80030dc:	6a1a      	ldr	r2, [r3, #32]
 80030de:	687b      	ldr	r3, [r7, #4]
 80030e0:	681b      	ldr	r3, [r3, #0]
 80030e2:	6852      	ldr	r2, [r2, #4]
 80030e4:	629a      	str	r2, [r3, #40]	; 0x28
    hcryp->Instance->IVR1 = *(uint32_t *)(hcryp->Init.B0 + 2U);
 80030e6:	687b      	ldr	r3, [r7, #4]
 80030e8:	6a1a      	ldr	r2, [r3, #32]
 80030ea:	687b      	ldr	r3, [r7, #4]
 80030ec:	681b      	ldr	r3, [r3, #0]
 80030ee:	6892      	ldr	r2, [r2, #8]
 80030f0:	625a      	str	r2, [r3, #36]	; 0x24
    hcryp->Instance->IVR0 = *(uint32_t *)(hcryp->Init.B0 + 3U);
 80030f2:	687b      	ldr	r3, [r7, #4]
 80030f4:	6a1a      	ldr	r2, [r3, #32]
 80030f6:	687b      	ldr	r3, [r7, #4]
 80030f8:	681b      	ldr	r3, [r3, #0]
 80030fa:	68d2      	ldr	r2, [r2, #12]
 80030fc:	621a      	str	r2, [r3, #32]

    /* Enable the CRYP peripheral */
    __HAL_CRYP_ENABLE(hcryp);
 80030fe:	687b      	ldr	r3, [r7, #4]
 8003100:	681b      	ldr	r3, [r3, #0]
 8003102:	681a      	ldr	r2, [r3, #0]
 8003104:	687b      	ldr	r3, [r7, #4]
 8003106:	681b      	ldr	r3, [r3, #0]
 8003108:	2101      	movs	r1, #1
 800310a:	430a      	orrs	r2, r1
 800310c:	601a      	str	r2, [r3, #0]

    /* just wait for hash computation */
    if (CRYP_WaitOnCCFlag(hcryp, Timeout) != HAL_OK)
 800310e:	683a      	ldr	r2, [r7, #0]
 8003110:	687b      	ldr	r3, [r7, #4]
 8003112:	0011      	movs	r1, r2
 8003114:	0018      	movs	r0, r3
 8003116:	f000 fb29 	bl	800376c <CRYP_WaitOnCCFlag>
 800311a:	1e03      	subs	r3, r0, #0
 800311c:	d00f      	beq.n	800313e <CRYP_AESCCM_Process+0xfa>
    {
      /* Change state */
      hcryp->ErrorCode |= HAL_CRYP_ERROR_TIMEOUT;
 800311e:	687b      	ldr	r3, [r7, #4]
 8003120:	6d5b      	ldr	r3, [r3, #84]	; 0x54
 8003122:	2210      	movs	r2, #16
 8003124:	431a      	orrs	r2, r3
 8003126:	687b      	ldr	r3, [r7, #4]
 8003128:	655a      	str	r2, [r3, #84]	; 0x54
      hcryp->State = HAL_CRYP_STATE_READY;
 800312a:	687b      	ldr	r3, [r7, #4]
 800312c:	2251      	movs	r2, #81	; 0x51
 800312e:	2101      	movs	r1, #1
 8003130:	5499      	strb	r1, [r3, r2]

      /* Process unlocked & return error */
      __HAL_UNLOCK(hcryp);
 8003132:	687b      	ldr	r3, [r7, #4]
 8003134:	2250      	movs	r2, #80	; 0x50
 8003136:	2100      	movs	r1, #0
 8003138:	5499      	strb	r1, [r3, r2]
      return HAL_ERROR;
 800313a:	2301      	movs	r3, #1
 800313c:	e130      	b.n	80033a0 <CRYP_AESCCM_Process+0x35c>
    }
    /* Clear CCF flag */
    __HAL_CRYP_CLEAR_FLAG(hcryp, CRYP_CCF_CLEAR);
 800313e:	687b      	ldr	r3, [r7, #4]
 8003140:	681b      	ldr	r3, [r3, #0]
 8003142:	681a      	ldr	r2, [r3, #0]
 8003144:	687b      	ldr	r3, [r7, #4]
 8003146:	681b      	ldr	r3, [r3, #0]
 8003148:	2180      	movs	r1, #128	; 0x80
 800314a:	430a      	orrs	r2, r1
 800314c:	601a      	str	r2, [r3, #0]

    /************************ Header phase *************************************/
    /* Header block(B1) : associated data length expressed in bytes concatenated
    with Associated Data (A)*/
    if (CRYP_GCMCCM_SetHeaderPhase(hcryp,  Timeout) != HAL_OK)
 800314e:	683a      	ldr	r2, [r7, #0]
 8003150:	687b      	ldr	r3, [r7, #4]
 8003152:	0011      	movs	r1, r2
 8003154:	0018      	movs	r0, r3
 8003156:	f000 f92b 	bl	80033b0 <CRYP_GCMCCM_SetHeaderPhase>
 800315a:	1e03      	subs	r3, r0, #0
 800315c:	d001      	beq.n	8003162 <CRYP_AESCCM_Process+0x11e>
    {
      return HAL_ERROR;
 800315e:	2301      	movs	r3, #1
 8003160:	e11e      	b.n	80033a0 <CRYP_AESCCM_Process+0x35c>
    }

    /*************************Payload phase ************************************/

    /* Set the phase */
    hcryp->Phase = CRYP_PHASE_PROCESS;
 8003162:	687b      	ldr	r3, [r7, #4]
 8003164:	2202      	movs	r2, #2
 8003166:	645a      	str	r2, [r3, #68]	; 0x44

    /* Select payload phase once the header phase is performed */
    MODIFY_REG(hcryp->Instance->CR, AES_CR_GCMPH, CRYP_PHASE_PAYLOAD);
 8003168:	687b      	ldr	r3, [r7, #4]
 800316a:	681b      	ldr	r3, [r3, #0]
 800316c:	681b      	ldr	r3, [r3, #0]
 800316e:	4a8e      	ldr	r2, [pc, #568]	; (80033a8 <CRYP_AESCCM_Process+0x364>)
 8003170:	401a      	ands	r2, r3
 8003172:	687b      	ldr	r3, [r7, #4]
 8003174:	681b      	ldr	r3, [r3, #0]
 8003176:	2180      	movs	r1, #128	; 0x80
 8003178:	01c9      	lsls	r1, r1, #7
 800317a:	430a      	orrs	r2, r1
 800317c:	601a      	str	r2, [r3, #0]

    /* Set to 0 the number of non-valid bytes using NPBLB register*/
    MODIFY_REG(hcryp->Instance->CR, AES_CR_NPBLB, 0U);
 800317e:	687b      	ldr	r3, [r7, #4]
 8003180:	681b      	ldr	r3, [r3, #0]
 8003182:	681a      	ldr	r2, [r3, #0]
 8003184:	687b      	ldr	r3, [r7, #4]
 8003186:	681b      	ldr	r3, [r3, #0]
 8003188:	4988      	ldr	r1, [pc, #544]	; (80033ac <CRYP_AESCCM_Process+0x368>)
 800318a:	400a      	ands	r2, r1
 800318c:	601a      	str	r2, [r3, #0]

  } /* if (DoKeyIVConfig == 1U) */

  if ((hcryp->Size % 16U) != 0U)
 800318e:	687b      	ldr	r3, [r7, #4]
 8003190:	2242      	movs	r2, #66	; 0x42
 8003192:	5a9b      	ldrh	r3, [r3, r2]
 8003194:	220f      	movs	r2, #15
 8003196:	4013      	ands	r3, r2
 8003198:	b29b      	uxth	r3, r3
 800319a:	2b00      	cmp	r3, #0
 800319c:	d003      	beq.n	80031a6 <CRYP_AESCCM_Process+0x162>
  {
    /* recalculate  wordsize */
    wordsize = ((wordsize / 4U) * 4U) ;
 800319e:	6b7b      	ldr	r3, [r7, #52]	; 0x34
 80031a0:	2203      	movs	r2, #3
 80031a2:	4393      	bics	r3, r2
 80031a4:	637b      	str	r3, [r7, #52]	; 0x34
  }
  /* Get tick */
  tickstart = HAL_GetTick();
 80031a6:	f7fe ff87 	bl	80020b8 <HAL_GetTick>
 80031aa:	0003      	movs	r3, r0
 80031ac:	61fb      	str	r3, [r7, #28]

  /* Write input data and get output data */
  incount = hcryp->CrypInCount;
 80031ae:	687b      	ldr	r3, [r7, #4]
 80031b0:	8fdb      	ldrh	r3, [r3, #62]	; 0x3e
 80031b2:	b29b      	uxth	r3, r3
 80031b4:	62bb      	str	r3, [r7, #40]	; 0x28
  outcount = hcryp->CrypOutCount;
 80031b6:	687b      	ldr	r3, [r7, #4]
 80031b8:	2240      	movs	r2, #64	; 0x40
 80031ba:	5a9b      	ldrh	r3, [r3, r2]
 80031bc:	b29b      	uxth	r3, r3
 80031be:	627b      	str	r3, [r7, #36]	; 0x24
  while ((incount < wordsize) && (outcount < wordsize))
 80031c0:	e034      	b.n	800322c <CRYP_AESCCM_Process+0x1e8>
  {
    /* Write plain data and get cipher data */
    CRYP_AES_ProcessData(hcryp, Timeout);
 80031c2:	683a      	ldr	r2, [r7, #0]
 80031c4:	687b      	ldr	r3, [r7, #4]
 80031c6:	0011      	movs	r1, r2
 80031c8:	0018      	movs	r0, r3
 80031ca:	f7ff fc71 	bl	8002ab0 <CRYP_AES_ProcessData>

    /* Check for the Timeout */
    if (Timeout != HAL_MAX_DELAY)
 80031ce:	683b      	ldr	r3, [r7, #0]
 80031d0:	3301      	adds	r3, #1
 80031d2:	d022      	beq.n	800321a <CRYP_AESCCM_Process+0x1d6>
    {
      if (((HAL_GetTick() - tickstart) > Timeout) ||(Timeout == 0U))
 80031d4:	f7fe ff70 	bl	80020b8 <HAL_GetTick>
 80031d8:	0002      	movs	r2, r0
 80031da:	69fb      	ldr	r3, [r7, #28]
 80031dc:	1ad3      	subs	r3, r2, r3
 80031de:	683a      	ldr	r2, [r7, #0]
 80031e0:	429a      	cmp	r2, r3
 80031e2:	d302      	bcc.n	80031ea <CRYP_AESCCM_Process+0x1a6>
 80031e4:	683b      	ldr	r3, [r7, #0]
 80031e6:	2b00      	cmp	r3, #0
 80031e8:	d117      	bne.n	800321a <CRYP_AESCCM_Process+0x1d6>
      {
        /* Disable the CRYP peripheral clock */
        __HAL_CRYP_DISABLE(hcryp);
 80031ea:	687b      	ldr	r3, [r7, #4]
 80031ec:	681b      	ldr	r3, [r3, #0]
 80031ee:	681a      	ldr	r2, [r3, #0]
 80031f0:	687b      	ldr	r3, [r7, #4]
 80031f2:	681b      	ldr	r3, [r3, #0]
 80031f4:	2101      	movs	r1, #1
 80031f6:	438a      	bics	r2, r1
 80031f8:	601a      	str	r2, [r3, #0]

        /* Change state */
        hcryp->ErrorCode |= HAL_CRYP_ERROR_TIMEOUT;
 80031fa:	687b      	ldr	r3, [r7, #4]
 80031fc:	6d5b      	ldr	r3, [r3, #84]	; 0x54
 80031fe:	2210      	movs	r2, #16
 8003200:	431a      	orrs	r2, r3
 8003202:	687b      	ldr	r3, [r7, #4]
 8003204:	655a      	str	r2, [r3, #84]	; 0x54
        hcryp->State = HAL_CRYP_STATE_READY;
 8003206:	687b      	ldr	r3, [r7, #4]
 8003208:	2251      	movs	r2, #81	; 0x51
 800320a:	2101      	movs	r1, #1
 800320c:	5499      	strb	r1, [r3, r2]

        /* Process unlocked */
        __HAL_UNLOCK(hcryp);
 800320e:	687b      	ldr	r3, [r7, #4]
 8003210:	2250      	movs	r2, #80	; 0x50
 8003212:	2100      	movs	r1, #0
 8003214:	5499      	strb	r1, [r3, r2]
        return HAL_ERROR;
 8003216:	2301      	movs	r3, #1
 8003218:	e0c2      	b.n	80033a0 <CRYP_AESCCM_Process+0x35c>
      }
    }
    incount = hcryp->CrypInCount;
 800321a:	687b      	ldr	r3, [r7, #4]
 800321c:	8fdb      	ldrh	r3, [r3, #62]	; 0x3e
 800321e:	b29b      	uxth	r3, r3
 8003220:	62bb      	str	r3, [r7, #40]	; 0x28
    outcount = hcryp->CrypOutCount;
 8003222:	687b      	ldr	r3, [r7, #4]
 8003224:	2240      	movs	r2, #64	; 0x40
 8003226:	5a9b      	ldrh	r3, [r3, r2]
 8003228:	b29b      	uxth	r3, r3
 800322a:	627b      	str	r3, [r7, #36]	; 0x24
  while ((incount < wordsize) && (outcount < wordsize))
 800322c:	6aba      	ldr	r2, [r7, #40]	; 0x28
 800322e:	6b7b      	ldr	r3, [r7, #52]	; 0x34
 8003230:	429a      	cmp	r2, r3
 8003232:	d203      	bcs.n	800323c <CRYP_AESCCM_Process+0x1f8>
 8003234:	6a7a      	ldr	r2, [r7, #36]	; 0x24
 8003236:	6b7b      	ldr	r3, [r7, #52]	; 0x34
 8003238:	429a      	cmp	r2, r3
 800323a:	d3c2      	bcc.n	80031c2 <CRYP_AESCCM_Process+0x17e>
  }

  if ((hcryp->Size % 16U) != 0U)
 800323c:	687b      	ldr	r3, [r7, #4]
 800323e:	2242      	movs	r2, #66	; 0x42
 8003240:	5a9b      	ldrh	r3, [r3, r2]
 8003242:	220f      	movs	r2, #15
 8003244:	4013      	ands	r3, r2
 8003246:	b29b      	uxth	r3, r3
 8003248:	2b00      	cmp	r3, #0
 800324a:	d100      	bne.n	800324e <CRYP_AESCCM_Process+0x20a>
 800324c:	e0a7      	b.n	800339e <CRYP_AESCCM_Process+0x35a>
  {
    /* Compute the number of padding bytes in last block of payload */
    npblb = ((((uint32_t)hcryp->Size / 16U) + 1U) * 16U) - ((uint32_t)hcryp->Size);
 800324e:	687b      	ldr	r3, [r7, #4]
 8003250:	2242      	movs	r2, #66	; 0x42
 8003252:	5a9b      	ldrh	r3, [r3, r2]
 8003254:	091b      	lsrs	r3, r3, #4
 8003256:	b29b      	uxth	r3, r3
 8003258:	3301      	adds	r3, #1
 800325a:	011b      	lsls	r3, r3, #4
 800325c:	687a      	ldr	r2, [r7, #4]
 800325e:	2142      	movs	r1, #66	; 0x42
 8003260:	5a52      	ldrh	r2, [r2, r1]
 8003262:	1a9b      	subs	r3, r3, r2
 8003264:	61bb      	str	r3, [r7, #24]

    if ((hcryp->Instance->CR & AES_CR_MODE) == CRYP_OPERATINGMODE_DECRYPT)
 8003266:	687b      	ldr	r3, [r7, #4]
 8003268:	681b      	ldr	r3, [r3, #0]
 800326a:	681b      	ldr	r3, [r3, #0]
 800326c:	2218      	movs	r2, #24
 800326e:	4013      	ands	r3, r2
 8003270:	2b10      	cmp	r3, #16
 8003272:	d10b      	bne.n	800328c <CRYP_AESCCM_Process+0x248>
    {
      /* Set Npblb in case of AES CCM payload decryption to get right tag  */
      MODIFY_REG(hcryp->Instance->CR, AES_CR_NPBLB, npblb << 20);
 8003274:	687b      	ldr	r3, [r7, #4]
 8003276:	681b      	ldr	r3, [r3, #0]
 8003278:	681b      	ldr	r3, [r3, #0]
 800327a:	4a4c      	ldr	r2, [pc, #304]	; (80033ac <CRYP_AESCCM_Process+0x368>)
 800327c:	4013      	ands	r3, r2
 800327e:	0019      	movs	r1, r3
 8003280:	69bb      	ldr	r3, [r7, #24]
 8003282:	051a      	lsls	r2, r3, #20
 8003284:	687b      	ldr	r3, [r7, #4]
 8003286:	681b      	ldr	r3, [r3, #0]
 8003288:	430a      	orrs	r2, r1
 800328a:	601a      	str	r2, [r3, #0]

    }
    /* Number of valid words (lastwordsize) in last block */
    if ((npblb % 4U) == 0U)
 800328c:	69bb      	ldr	r3, [r7, #24]
 800328e:	2203      	movs	r2, #3
 8003290:	4013      	ands	r3, r2
 8003292:	d105      	bne.n	80032a0 <CRYP_AESCCM_Process+0x25c>
    {
      lastwordsize = (16U - npblb) / 4U;
 8003294:	69bb      	ldr	r3, [r7, #24]
 8003296:	2210      	movs	r2, #16
 8003298:	1ad3      	subs	r3, r2, r3
 800329a:	089b      	lsrs	r3, r3, #2
 800329c:	62fb      	str	r3, [r7, #44]	; 0x2c
 800329e:	e005      	b.n	80032ac <CRYP_AESCCM_Process+0x268>
    }
    else
    {
      lastwordsize = ((16U - npblb) / 4U) + 1U;
 80032a0:	69bb      	ldr	r3, [r7, #24]
 80032a2:	2210      	movs	r2, #16
 80032a4:	1ad3      	subs	r3, r2, r3
 80032a6:	089b      	lsrs	r3, r3, #2
 80032a8:	3301      	adds	r3, #1
 80032aa:	62fb      	str	r3, [r7, #44]	; 0x2c
    }

    /* Write the last input block in the IN FIFO */
    for (loopcounter = 0U; loopcounter < lastwordsize; loopcounter ++)
 80032ac:	2300      	movs	r3, #0
 80032ae:	633b      	str	r3, [r7, #48]	; 0x30
 80032b0:	e014      	b.n	80032dc <CRYP_AESCCM_Process+0x298>
    {
      hcryp->Instance->DINR  = *(uint32_t *)(hcryp->pCrypInBuffPtr + hcryp->CrypInCount);
 80032b2:	687b      	ldr	r3, [r7, #4]
 80032b4:	6b5a      	ldr	r2, [r3, #52]	; 0x34
 80032b6:	687b      	ldr	r3, [r7, #4]
 80032b8:	8fdb      	ldrh	r3, [r3, #62]	; 0x3e
 80032ba:	b29b      	uxth	r3, r3
 80032bc:	009b      	lsls	r3, r3, #2
 80032be:	18d2      	adds	r2, r2, r3
 80032c0:	687b      	ldr	r3, [r7, #4]
 80032c2:	681b      	ldr	r3, [r3, #0]
 80032c4:	6812      	ldr	r2, [r2, #0]
 80032c6:	609a      	str	r2, [r3, #8]
      hcryp->CrypInCount++;
 80032c8:	687b      	ldr	r3, [r7, #4]
 80032ca:	8fdb      	ldrh	r3, [r3, #62]	; 0x3e
 80032cc:	b29b      	uxth	r3, r3
 80032ce:	3301      	adds	r3, #1
 80032d0:	b29a      	uxth	r2, r3
 80032d2:	687b      	ldr	r3, [r7, #4]
 80032d4:	87da      	strh	r2, [r3, #62]	; 0x3e
    for (loopcounter = 0U; loopcounter < lastwordsize; loopcounter ++)
 80032d6:	6b3b      	ldr	r3, [r7, #48]	; 0x30
 80032d8:	3301      	adds	r3, #1
 80032da:	633b      	str	r3, [r7, #48]	; 0x30
 80032dc:	6b3a      	ldr	r2, [r7, #48]	; 0x30
 80032de:	6afb      	ldr	r3, [r7, #44]	; 0x2c
 80032e0:	429a      	cmp	r2, r3
 80032e2:	d3e6      	bcc.n	80032b2 <CRYP_AESCCM_Process+0x26e>
    }

    /* Pad the data with zeros to have a complete block */
    while (loopcounter < 4U)
 80032e4:	e006      	b.n	80032f4 <CRYP_AESCCM_Process+0x2b0>
    {
      hcryp->Instance->DINR  = 0U;
 80032e6:	687b      	ldr	r3, [r7, #4]
 80032e8:	681b      	ldr	r3, [r3, #0]
 80032ea:	2200      	movs	r2, #0
 80032ec:	609a      	str	r2, [r3, #8]
      loopcounter++;
 80032ee:	6b3b      	ldr	r3, [r7, #48]	; 0x30
 80032f0:	3301      	adds	r3, #1
 80032f2:	633b      	str	r3, [r7, #48]	; 0x30
    while (loopcounter < 4U)
 80032f4:	6b3b      	ldr	r3, [r7, #48]	; 0x30
 80032f6:	2b03      	cmp	r3, #3
 80032f8:	d9f5      	bls.n	80032e6 <CRYP_AESCCM_Process+0x2a2>
    }
    /* just wait for hash computation */
    if (CRYP_WaitOnCCFlag(hcryp, Timeout) != HAL_OK)
 80032fa:	683a      	ldr	r2, [r7, #0]
 80032fc:	687b      	ldr	r3, [r7, #4]
 80032fe:	0011      	movs	r1, r2
 8003300:	0018      	movs	r0, r3
 8003302:	f000 fa33 	bl	800376c <CRYP_WaitOnCCFlag>
 8003306:	1e03      	subs	r3, r0, #0
 8003308:	d00f      	beq.n	800332a <CRYP_AESCCM_Process+0x2e6>
    {
      /* Change state */
      hcryp->ErrorCode |= HAL_CRYP_ERROR_TIMEOUT;
 800330a:	687b      	ldr	r3, [r7, #4]
 800330c:	6d5b      	ldr	r3, [r3, #84]	; 0x54
 800330e:	2210      	movs	r2, #16
 8003310:	431a      	orrs	r2, r3
 8003312:	687b      	ldr	r3, [r7, #4]
 8003314:	655a      	str	r2, [r3, #84]	; 0x54
      hcryp->State = HAL_CRYP_STATE_READY;
 8003316:	687b      	ldr	r3, [r7, #4]
 8003318:	2251      	movs	r2, #81	; 0x51
 800331a:	2101      	movs	r1, #1
 800331c:	5499      	strb	r1, [r3, r2]

      /* Process unlocked & return error */
      __HAL_UNLOCK(hcryp);
 800331e:	687b      	ldr	r3, [r7, #4]
 8003320:	2250      	movs	r2, #80	; 0x50
 8003322:	2100      	movs	r1, #0
 8003324:	5499      	strb	r1, [r3, r2]
      return HAL_ERROR;
 8003326:	2301      	movs	r3, #1
 8003328:	e03a      	b.n	80033a0 <CRYP_AESCCM_Process+0x35c>
    }
    /* Clear CCF flag */
    __HAL_CRYP_CLEAR_FLAG(hcryp, CRYP_CCF_CLEAR);
 800332a:	687b      	ldr	r3, [r7, #4]
 800332c:	681b      	ldr	r3, [r3, #0]
 800332e:	681a      	ldr	r2, [r3, #0]
 8003330:	687b      	ldr	r3, [r7, #4]
 8003332:	681b      	ldr	r3, [r3, #0]
 8003334:	2180      	movs	r1, #128	; 0x80
 8003336:	430a      	orrs	r2, r1
 8003338:	601a      	str	r2, [r3, #0]

    for (loopcounter = 0U; loopcounter < 4U; loopcounter++)
 800333a:	2300      	movs	r3, #0
 800333c:	633b      	str	r3, [r7, #48]	; 0x30
 800333e:	e00a      	b.n	8003356 <CRYP_AESCCM_Process+0x312>
    {
      /* Read the output block from the output FIFO and put them in temporary buffer then get CrypOutBuff from temporary buffer */
      temp[loopcounter] = hcryp->Instance->DOUTR;
 8003340:	687b      	ldr	r3, [r7, #4]
 8003342:	681b      	ldr	r3, [r3, #0]
 8003344:	68d9      	ldr	r1, [r3, #12]
 8003346:	2308      	movs	r3, #8
 8003348:	18fb      	adds	r3, r7, r3
 800334a:	6b3a      	ldr	r2, [r7, #48]	; 0x30
 800334c:	0092      	lsls	r2, r2, #2
 800334e:	50d1      	str	r1, [r2, r3]
    for (loopcounter = 0U; loopcounter < 4U; loopcounter++)
 8003350:	6b3b      	ldr	r3, [r7, #48]	; 0x30
 8003352:	3301      	adds	r3, #1
 8003354:	633b      	str	r3, [r7, #48]	; 0x30
 8003356:	6b3b      	ldr	r3, [r7, #48]	; 0x30
 8003358:	2b03      	cmp	r3, #3
 800335a:	d9f1      	bls.n	8003340 <CRYP_AESCCM_Process+0x2fc>
    }
    for (loopcounter = 0U; loopcounter<lastwordsize; loopcounter++)
 800335c:	2300      	movs	r3, #0
 800335e:	633b      	str	r3, [r7, #48]	; 0x30
 8003360:	e019      	b.n	8003396 <CRYP_AESCCM_Process+0x352>
    {
      *(uint32_t *)(hcryp->pCrypOutBuffPtr + hcryp->CrypOutCount) = temp[loopcounter];
 8003362:	687b      	ldr	r3, [r7, #4]
 8003364:	6b9a      	ldr	r2, [r3, #56]	; 0x38
 8003366:	687b      	ldr	r3, [r7, #4]
 8003368:	2140      	movs	r1, #64	; 0x40
 800336a:	5a5b      	ldrh	r3, [r3, r1]
 800336c:	b29b      	uxth	r3, r3
 800336e:	009b      	lsls	r3, r3, #2
 8003370:	18d3      	adds	r3, r2, r3
 8003372:	2208      	movs	r2, #8
 8003374:	18ba      	adds	r2, r7, r2
 8003376:	6b39      	ldr	r1, [r7, #48]	; 0x30
 8003378:	0089      	lsls	r1, r1, #2
 800337a:	588a      	ldr	r2, [r1, r2]
 800337c:	601a      	str	r2, [r3, #0]
      hcryp->CrypOutCount++;
 800337e:	687b      	ldr	r3, [r7, #4]
 8003380:	2240      	movs	r2, #64	; 0x40
 8003382:	5a9b      	ldrh	r3, [r3, r2]
 8003384:	b29b      	uxth	r3, r3
 8003386:	3301      	adds	r3, #1
 8003388:	b299      	uxth	r1, r3
 800338a:	687b      	ldr	r3, [r7, #4]
 800338c:	2240      	movs	r2, #64	; 0x40
 800338e:	5299      	strh	r1, [r3, r2]
    for (loopcounter = 0U; loopcounter<lastwordsize; loopcounter++)
 8003390:	6b3b      	ldr	r3, [r7, #48]	; 0x30
 8003392:	3301      	adds	r3, #1
 8003394:	633b      	str	r3, [r7, #48]	; 0x30
 8003396:	6b3a      	ldr	r2, [r7, #48]	; 0x30
 8003398:	6afb      	ldr	r3, [r7, #44]	; 0x2c
 800339a:	429a      	cmp	r2, r3
 800339c:	d3e1      	bcc.n	8003362 <CRYP_AESCCM_Process+0x31e>
    }
  }

  /* Return function status */
  return HAL_OK;
 800339e:	2300      	movs	r3, #0
}
 80033a0:	0018      	movs	r0, r3
 80033a2:	46bd      	mov	sp, r7
 80033a4:	b00e      	add	sp, #56	; 0x38
 80033a6:	bd80      	pop	{r7, pc}
 80033a8:	ffff9fff 	.word	0xffff9fff
 80033ac:	ff0fffff 	.word	0xff0fffff

080033b0 <CRYP_GCMCCM_SetHeaderPhase>:
  *         the configuration information for CRYP module(Header & HeaderSize)
  * @param  Timeout Timeout value
  * @retval state
  */
static HAL_StatusTypeDef CRYP_GCMCCM_SetHeaderPhase(CRYP_HandleTypeDef *hcryp, uint32_t Timeout)
{
 80033b0:	b590      	push	{r4, r7, lr}
 80033b2:	b093      	sub	sp, #76	; 0x4c
 80033b4:	af00      	add	r7, sp, #0
 80033b6:	6078      	str	r0, [r7, #4]
 80033b8:	6039      	str	r1, [r7, #0]
  uint32_t loopcounter;
  uint32_t size_in_bytes;
  uint32_t tmp;
  uint32_t mask[12] = {0x0U, 0xFF000000U, 0xFFFF0000U, 0xFFFFFF00U,  /* 32-bit data type */
 80033ba:	230c      	movs	r3, #12
 80033bc:	18fb      	adds	r3, r7, r3
 80033be:	4ad6      	ldr	r2, [pc, #856]	; (8003718 <CRYP_GCMCCM_SetHeaderPhase+0x368>)
 80033c0:	ca13      	ldmia	r2!, {r0, r1, r4}
 80033c2:	c313      	stmia	r3!, {r0, r1, r4}
 80033c4:	ca13      	ldmia	r2!, {r0, r1, r4}
 80033c6:	c313      	stmia	r3!, {r0, r1, r4}
 80033c8:	ca13      	ldmia	r2!, {r0, r1, r4}
 80033ca:	c313      	stmia	r3!, {r0, r1, r4}
 80033cc:	ca13      	ldmia	r2!, {r0, r1, r4}
 80033ce:	c313      	stmia	r3!, {r0, r1, r4}
                       0x0U, 0x0000FF00U, 0x0000FFFFU, 0xFF00FFFFU,  /* 16-bit data type */
                       0x0U, 0x000000FFU, 0x0000FFFFU, 0x00FFFFFFU}; /*  8-bit data type */

  /***************************** Header phase for GCM/GMAC or CCM *********************************/
  if (hcryp->Init.HeaderWidthUnit == CRYP_HEADERWIDTHUNIT_WORD)
 80033d0:	687b      	ldr	r3, [r7, #4]
 80033d2:	6a9b      	ldr	r3, [r3, #40]	; 0x28
 80033d4:	2b00      	cmp	r3, #0
 80033d6:	d104      	bne.n	80033e2 <CRYP_GCMCCM_SetHeaderPhase+0x32>
  {
    size_in_bytes = hcryp->Init.HeaderSize * 4U;
 80033d8:	687b      	ldr	r3, [r7, #4]
 80033da:	69db      	ldr	r3, [r3, #28]
 80033dc:	009b      	lsls	r3, r3, #2
 80033de:	643b      	str	r3, [r7, #64]	; 0x40
 80033e0:	e002      	b.n	80033e8 <CRYP_GCMCCM_SetHeaderPhase+0x38>
  }
  else
  {
    size_in_bytes = hcryp->Init.HeaderSize;
 80033e2:	687b      	ldr	r3, [r7, #4]
 80033e4:	69db      	ldr	r3, [r3, #28]
 80033e6:	643b      	str	r3, [r7, #64]	; 0x40
  }

  if ((size_in_bytes != 0U))
 80033e8:	6c3b      	ldr	r3, [r7, #64]	; 0x40
 80033ea:	2b00      	cmp	r3, #0
 80033ec:	d100      	bne.n	80033f0 <CRYP_GCMCCM_SetHeaderPhase+0x40>
 80033ee:	e197      	b.n	8003720 <CRYP_GCMCCM_SetHeaderPhase+0x370>
  {
    /* Select header phase */
    CRYP_SET_PHASE(hcryp, CRYP_PHASE_HEADER);
 80033f0:	687b      	ldr	r3, [r7, #4]
 80033f2:	681b      	ldr	r3, [r3, #0]
 80033f4:	681b      	ldr	r3, [r3, #0]
 80033f6:	4ac9      	ldr	r2, [pc, #804]	; (800371c <CRYP_GCMCCM_SetHeaderPhase+0x36c>)
 80033f8:	401a      	ands	r2, r3
 80033fa:	687b      	ldr	r3, [r7, #4]
 80033fc:	681b      	ldr	r3, [r3, #0]
 80033fe:	2180      	movs	r1, #128	; 0x80
 8003400:	0189      	lsls	r1, r1, #6
 8003402:	430a      	orrs	r2, r1
 8003404:	601a      	str	r2, [r3, #0]

    /* Enable the CRYP peripheral */
    __HAL_CRYP_ENABLE(hcryp);
 8003406:	687b      	ldr	r3, [r7, #4]
 8003408:	681b      	ldr	r3, [r3, #0]
 800340a:	681a      	ldr	r2, [r3, #0]
 800340c:	687b      	ldr	r3, [r7, #4]
 800340e:	681b      	ldr	r3, [r3, #0]
 8003410:	2101      	movs	r1, #1
 8003412:	430a      	orrs	r2, r1
 8003414:	601a      	str	r2, [r3, #0]

    /* If size_in_bytes is a multiple of blocks (a multiple of four 32-bits words ) */
    if ((size_in_bytes % 16U) == 0U)
 8003416:	6c3b      	ldr	r3, [r7, #64]	; 0x40
 8003418:	220f      	movs	r2, #15
 800341a:	4013      	ands	r3, r2
 800341c:	d000      	beq.n	8003420 <CRYP_GCMCCM_SetHeaderPhase+0x70>
 800341e:	e07c      	b.n	800351a <CRYP_GCMCCM_SetHeaderPhase+0x16a>
    {
      /*  No padding */
      for (loopcounter = 0U; (loopcounter < (size_in_bytes / 4U)); loopcounter += 4U)
 8003420:	2300      	movs	r3, #0
 8003422:	647b      	str	r3, [r7, #68]	; 0x44
 8003424:	e072      	b.n	800350c <CRYP_GCMCCM_SetHeaderPhase+0x15c>
      {
        /* Write the input block in the data input register */
        hcryp->Instance->DINR = *(uint32_t *)(hcryp->Init.Header + hcryp->CrypHeaderCount);
 8003426:	687b      	ldr	r3, [r7, #4]
 8003428:	699a      	ldr	r2, [r3, #24]
 800342a:	687b      	ldr	r3, [r7, #4]
 800342c:	8f9b      	ldrh	r3, [r3, #60]	; 0x3c
 800342e:	b29b      	uxth	r3, r3
 8003430:	009b      	lsls	r3, r3, #2
 8003432:	18d2      	adds	r2, r2, r3
 8003434:	687b      	ldr	r3, [r7, #4]
 8003436:	681b      	ldr	r3, [r3, #0]
 8003438:	6812      	ldr	r2, [r2, #0]
 800343a:	609a      	str	r2, [r3, #8]
        hcryp->CrypHeaderCount++ ;
 800343c:	687b      	ldr	r3, [r7, #4]
 800343e:	8f9b      	ldrh	r3, [r3, #60]	; 0x3c
 8003440:	b29b      	uxth	r3, r3
 8003442:	3301      	adds	r3, #1
 8003444:	b29a      	uxth	r2, r3
 8003446:	687b      	ldr	r3, [r7, #4]
 8003448:	879a      	strh	r2, [r3, #60]	; 0x3c
        hcryp->Instance->DINR = *(uint32_t *)(hcryp->Init.Header + hcryp->CrypHeaderCount);
 800344a:	687b      	ldr	r3, [r7, #4]
 800344c:	699a      	ldr	r2, [r3, #24]
 800344e:	687b      	ldr	r3, [r7, #4]
 8003450:	8f9b      	ldrh	r3, [r3, #60]	; 0x3c
 8003452:	b29b      	uxth	r3, r3
 8003454:	009b      	lsls	r3, r3, #2
 8003456:	18d2      	adds	r2, r2, r3
 8003458:	687b      	ldr	r3, [r7, #4]
 800345a:	681b      	ldr	r3, [r3, #0]
 800345c:	6812      	ldr	r2, [r2, #0]
 800345e:	609a      	str	r2, [r3, #8]
        hcryp->CrypHeaderCount++ ;
 8003460:	687b      	ldr	r3, [r7, #4]
 8003462:	8f9b      	ldrh	r3, [r3, #60]	; 0x3c
 8003464:	b29b      	uxth	r3, r3
 8003466:	3301      	adds	r3, #1
 8003468:	b29a      	uxth	r2, r3
 800346a:	687b      	ldr	r3, [r7, #4]
 800346c:	879a      	strh	r2, [r3, #60]	; 0x3c
        hcryp->Instance->DINR  = *(uint32_t *)(hcryp->Init.Header + hcryp->CrypHeaderCount);
 800346e:	687b      	ldr	r3, [r7, #4]
 8003470:	699a      	ldr	r2, [r3, #24]
 8003472:	687b      	ldr	r3, [r7, #4]
 8003474:	8f9b      	ldrh	r3, [r3, #60]	; 0x3c
 8003476:	b29b      	uxth	r3, r3
 8003478:	009b      	lsls	r3, r3, #2
 800347a:	18d2      	adds	r2, r2, r3
 800347c:	687b      	ldr	r3, [r7, #4]
 800347e:	681b      	ldr	r3, [r3, #0]
 8003480:	6812      	ldr	r2, [r2, #0]
 8003482:	609a      	str	r2, [r3, #8]
        hcryp->CrypHeaderCount++ ;
 8003484:	687b      	ldr	r3, [r7, #4]
 8003486:	8f9b      	ldrh	r3, [r3, #60]	; 0x3c
 8003488:	b29b      	uxth	r3, r3
 800348a:	3301      	adds	r3, #1
 800348c:	b29a      	uxth	r2, r3
 800348e:	687b      	ldr	r3, [r7, #4]
 8003490:	879a      	strh	r2, [r3, #60]	; 0x3c
        hcryp->Instance->DINR = *(uint32_t *)(hcryp->Init.Header + hcryp->CrypHeaderCount);
 8003492:	687b      	ldr	r3, [r7, #4]
 8003494:	699a      	ldr	r2, [r3, #24]
 8003496:	687b      	ldr	r3, [r7, #4]
 8003498:	8f9b      	ldrh	r3, [r3, #60]	; 0x3c
 800349a:	b29b      	uxth	r3, r3
 800349c:	009b      	lsls	r3, r3, #2
 800349e:	18d2      	adds	r2, r2, r3
 80034a0:	687b      	ldr	r3, [r7, #4]
 80034a2:	681b      	ldr	r3, [r3, #0]
 80034a4:	6812      	ldr	r2, [r2, #0]
 80034a6:	609a      	str	r2, [r3, #8]
        hcryp->CrypHeaderCount++ ;
 80034a8:	687b      	ldr	r3, [r7, #4]
 80034aa:	8f9b      	ldrh	r3, [r3, #60]	; 0x3c
 80034ac:	b29b      	uxth	r3, r3
 80034ae:	3301      	adds	r3, #1
 80034b0:	b29a      	uxth	r2, r3
 80034b2:	687b      	ldr	r3, [r7, #4]
 80034b4:	879a      	strh	r2, [r3, #60]	; 0x3c

        if (CRYP_WaitOnCCFlag(hcryp, Timeout) != HAL_OK)
 80034b6:	683a      	ldr	r2, [r7, #0]
 80034b8:	687b      	ldr	r3, [r7, #4]
 80034ba:	0011      	movs	r1, r2
 80034bc:	0018      	movs	r0, r3
 80034be:	f000 f955 	bl	800376c <CRYP_WaitOnCCFlag>
 80034c2:	1e03      	subs	r3, r0, #0
 80034c4:	d017      	beq.n	80034f6 <CRYP_GCMCCM_SetHeaderPhase+0x146>
        {
          /* Disable the CRYP peripheral clock */
          __HAL_CRYP_DISABLE(hcryp);
 80034c6:	687b      	ldr	r3, [r7, #4]
 80034c8:	681b      	ldr	r3, [r3, #0]
 80034ca:	681a      	ldr	r2, [r3, #0]
 80034cc:	687b      	ldr	r3, [r7, #4]
 80034ce:	681b      	ldr	r3, [r3, #0]
 80034d0:	2101      	movs	r1, #1
 80034d2:	438a      	bics	r2, r1
 80034d4:	601a      	str	r2, [r3, #0]

          /* Change state */
          hcryp->ErrorCode |= HAL_CRYP_ERROR_TIMEOUT;
 80034d6:	687b      	ldr	r3, [r7, #4]
 80034d8:	6d5b      	ldr	r3, [r3, #84]	; 0x54
 80034da:	2210      	movs	r2, #16
 80034dc:	431a      	orrs	r2, r3
 80034de:	687b      	ldr	r3, [r7, #4]
 80034e0:	655a      	str	r2, [r3, #84]	; 0x54
          hcryp->State = HAL_CRYP_STATE_READY;
 80034e2:	687b      	ldr	r3, [r7, #4]
 80034e4:	2251      	movs	r2, #81	; 0x51
 80034e6:	2101      	movs	r1, #1
 80034e8:	5499      	strb	r1, [r3, r2]

          /* Process unlocked */
          __HAL_UNLOCK(hcryp);
 80034ea:	687b      	ldr	r3, [r7, #4]
 80034ec:	2250      	movs	r2, #80	; 0x50
 80034ee:	2100      	movs	r1, #0
 80034f0:	5499      	strb	r1, [r3, r2]
          return HAL_ERROR;
 80034f2:	2301      	movs	r3, #1
 80034f4:	e134      	b.n	8003760 <CRYP_GCMCCM_SetHeaderPhase+0x3b0>
        }
        /* Clear CCF flag */
        __HAL_CRYP_CLEAR_FLAG(hcryp, CRYP_CCF_CLEAR);
 80034f6:	687b      	ldr	r3, [r7, #4]
 80034f8:	681b      	ldr	r3, [r3, #0]
 80034fa:	681a      	ldr	r2, [r3, #0]
 80034fc:	687b      	ldr	r3, [r7, #4]
 80034fe:	681b      	ldr	r3, [r3, #0]
 8003500:	2180      	movs	r1, #128	; 0x80
 8003502:	430a      	orrs	r2, r1
 8003504:	601a      	str	r2, [r3, #0]
      for (loopcounter = 0U; (loopcounter < (size_in_bytes / 4U)); loopcounter += 4U)
 8003506:	6c7b      	ldr	r3, [r7, #68]	; 0x44
 8003508:	3304      	adds	r3, #4
 800350a:	647b      	str	r3, [r7, #68]	; 0x44
 800350c:	6c3b      	ldr	r3, [r7, #64]	; 0x40
 800350e:	089b      	lsrs	r3, r3, #2
 8003510:	6c7a      	ldr	r2, [r7, #68]	; 0x44
 8003512:	429a      	cmp	r2, r3
 8003514:	d200      	bcs.n	8003518 <CRYP_GCMCCM_SetHeaderPhase+0x168>
 8003516:	e786      	b.n	8003426 <CRYP_GCMCCM_SetHeaderPhase+0x76>
 8003518:	e121      	b.n	800375e <CRYP_GCMCCM_SetHeaderPhase+0x3ae>
      }
    }
    else
    {
      /* Write header block in the IN FIFO without last block */
      for (loopcounter = 0U; (loopcounter < ((size_in_bytes / 16U) * 4U)); loopcounter += 4U)
 800351a:	2300      	movs	r3, #0
 800351c:	647b      	str	r3, [r7, #68]	; 0x44
 800351e:	e072      	b.n	8003606 <CRYP_GCMCCM_SetHeaderPhase+0x256>
      {
        /* Write the input block in the data input register */
        hcryp->Instance->DINR = *(uint32_t *)(hcryp->Init.Header + hcryp->CrypHeaderCount);
 8003520:	687b      	ldr	r3, [r7, #4]
 8003522:	699a      	ldr	r2, [r3, #24]
 8003524:	687b      	ldr	r3, [r7, #4]
 8003526:	8f9b      	ldrh	r3, [r3, #60]	; 0x3c
 8003528:	b29b      	uxth	r3, r3
 800352a:	009b      	lsls	r3, r3, #2
 800352c:	18d2      	adds	r2, r2, r3
 800352e:	687b      	ldr	r3, [r7, #4]
 8003530:	681b      	ldr	r3, [r3, #0]
 8003532:	6812      	ldr	r2, [r2, #0]
 8003534:	609a      	str	r2, [r3, #8]
        hcryp->CrypHeaderCount++ ;
 8003536:	687b      	ldr	r3, [r7, #4]
 8003538:	8f9b      	ldrh	r3, [r3, #60]	; 0x3c
 800353a:	b29b      	uxth	r3, r3
 800353c:	3301      	adds	r3, #1
 800353e:	b29a      	uxth	r2, r3
 8003540:	687b      	ldr	r3, [r7, #4]
 8003542:	879a      	strh	r2, [r3, #60]	; 0x3c
        hcryp->Instance->DINR = *(uint32_t *)(hcryp->Init.Header + hcryp->CrypHeaderCount);
 8003544:	687b      	ldr	r3, [r7, #4]
 8003546:	699a      	ldr	r2, [r3, #24]
 8003548:	687b      	ldr	r3, [r7, #4]
 800354a:	8f9b      	ldrh	r3, [r3, #60]	; 0x3c
 800354c:	b29b      	uxth	r3, r3
 800354e:	009b      	lsls	r3, r3, #2
 8003550:	18d2      	adds	r2, r2, r3
 8003552:	687b      	ldr	r3, [r7, #4]
 8003554:	681b      	ldr	r3, [r3, #0]
 8003556:	6812      	ldr	r2, [r2, #0]
 8003558:	609a      	str	r2, [r3, #8]
        hcryp->CrypHeaderCount++ ;
 800355a:	687b      	ldr	r3, [r7, #4]
 800355c:	8f9b      	ldrh	r3, [r3, #60]	; 0x3c
 800355e:	b29b      	uxth	r3, r3
 8003560:	3301      	adds	r3, #1
 8003562:	b29a      	uxth	r2, r3
 8003564:	687b      	ldr	r3, [r7, #4]
 8003566:	879a      	strh	r2, [r3, #60]	; 0x3c
        hcryp->Instance->DINR  = *(uint32_t *)(hcryp->Init.Header + hcryp->CrypHeaderCount);
 8003568:	687b      	ldr	r3, [r7, #4]
 800356a:	699a      	ldr	r2, [r3, #24]
 800356c:	687b      	ldr	r3, [r7, #4]
 800356e:	8f9b      	ldrh	r3, [r3, #60]	; 0x3c
 8003570:	b29b      	uxth	r3, r3
 8003572:	009b      	lsls	r3, r3, #2
 8003574:	18d2      	adds	r2, r2, r3
 8003576:	687b      	ldr	r3, [r7, #4]
 8003578:	681b      	ldr	r3, [r3, #0]
 800357a:	6812      	ldr	r2, [r2, #0]
 800357c:	609a      	str	r2, [r3, #8]
        hcryp->CrypHeaderCount++ ;
 800357e:	687b      	ldr	r3, [r7, #4]
 8003580:	8f9b      	ldrh	r3, [r3, #60]	; 0x3c
 8003582:	b29b      	uxth	r3, r3
 8003584:	3301      	adds	r3, #1
 8003586:	b29a      	uxth	r2, r3
 8003588:	687b      	ldr	r3, [r7, #4]
 800358a:	879a      	strh	r2, [r3, #60]	; 0x3c
        hcryp->Instance->DINR = *(uint32_t *)(hcryp->Init.Header + hcryp->CrypHeaderCount);
 800358c:	687b      	ldr	r3, [r7, #4]
 800358e:	699a      	ldr	r2, [r3, #24]
 8003590:	687b      	ldr	r3, [r7, #4]
 8003592:	8f9b      	ldrh	r3, [r3, #60]	; 0x3c
 8003594:	b29b      	uxth	r3, r3
 8003596:	009b      	lsls	r3, r3, #2
 8003598:	18d2      	adds	r2, r2, r3
 800359a:	687b      	ldr	r3, [r7, #4]
 800359c:	681b      	ldr	r3, [r3, #0]
 800359e:	6812      	ldr	r2, [r2, #0]
 80035a0:	609a      	str	r2, [r3, #8]
        hcryp->CrypHeaderCount++ ;
 80035a2:	687b      	ldr	r3, [r7, #4]
 80035a4:	8f9b      	ldrh	r3, [r3, #60]	; 0x3c
 80035a6:	b29b      	uxth	r3, r3
 80035a8:	3301      	adds	r3, #1
 80035aa:	b29a      	uxth	r2, r3
 80035ac:	687b      	ldr	r3, [r7, #4]
 80035ae:	879a      	strh	r2, [r3, #60]	; 0x3c

        if (CRYP_WaitOnCCFlag(hcryp, Timeout) != HAL_OK)
 80035b0:	683a      	ldr	r2, [r7, #0]
 80035b2:	687b      	ldr	r3, [r7, #4]
 80035b4:	0011      	movs	r1, r2
 80035b6:	0018      	movs	r0, r3
 80035b8:	f000 f8d8 	bl	800376c <CRYP_WaitOnCCFlag>
 80035bc:	1e03      	subs	r3, r0, #0
 80035be:	d017      	beq.n	80035f0 <CRYP_GCMCCM_SetHeaderPhase+0x240>
        {
          /* Disable the CRYP peripheral clock */
          __HAL_CRYP_DISABLE(hcryp);
 80035c0:	687b      	ldr	r3, [r7, #4]
 80035c2:	681b      	ldr	r3, [r3, #0]
 80035c4:	681a      	ldr	r2, [r3, #0]
 80035c6:	687b      	ldr	r3, [r7, #4]
 80035c8:	681b      	ldr	r3, [r3, #0]
 80035ca:	2101      	movs	r1, #1
 80035cc:	438a      	bics	r2, r1
 80035ce:	601a      	str	r2, [r3, #0]

          /* Change state */
          hcryp->ErrorCode |= HAL_CRYP_ERROR_TIMEOUT;
 80035d0:	687b      	ldr	r3, [r7, #4]
 80035d2:	6d5b      	ldr	r3, [r3, #84]	; 0x54
 80035d4:	2210      	movs	r2, #16
 80035d6:	431a      	orrs	r2, r3
 80035d8:	687b      	ldr	r3, [r7, #4]
 80035da:	655a      	str	r2, [r3, #84]	; 0x54
          hcryp->State = HAL_CRYP_STATE_READY;
 80035dc:	687b      	ldr	r3, [r7, #4]
 80035de:	2251      	movs	r2, #81	; 0x51
 80035e0:	2101      	movs	r1, #1
 80035e2:	5499      	strb	r1, [r3, r2]

          /* Process unlocked */
          __HAL_UNLOCK(hcryp);
 80035e4:	687b      	ldr	r3, [r7, #4]
 80035e6:	2250      	movs	r2, #80	; 0x50
 80035e8:	2100      	movs	r1, #0
 80035ea:	5499      	strb	r1, [r3, r2]
          return HAL_ERROR;
 80035ec:	2301      	movs	r3, #1
 80035ee:	e0b7      	b.n	8003760 <CRYP_GCMCCM_SetHeaderPhase+0x3b0>
        }
        /* Clear CCF flag */
        __HAL_CRYP_CLEAR_FLAG(hcryp, CRYP_CCF_CLEAR);
 80035f0:	687b      	ldr	r3, [r7, #4]
 80035f2:	681b      	ldr	r3, [r3, #0]
 80035f4:	681a      	ldr	r2, [r3, #0]
 80035f6:	687b      	ldr	r3, [r7, #4]
 80035f8:	681b      	ldr	r3, [r3, #0]
 80035fa:	2180      	movs	r1, #128	; 0x80
 80035fc:	430a      	orrs	r2, r1
 80035fe:	601a      	str	r2, [r3, #0]
      for (loopcounter = 0U; (loopcounter < ((size_in_bytes / 16U) * 4U)); loopcounter += 4U)
 8003600:	6c7b      	ldr	r3, [r7, #68]	; 0x44
 8003602:	3304      	adds	r3, #4
 8003604:	647b      	str	r3, [r7, #68]	; 0x44
 8003606:	6c3b      	ldr	r3, [r7, #64]	; 0x40
 8003608:	091b      	lsrs	r3, r3, #4
 800360a:	009b      	lsls	r3, r3, #2
 800360c:	6c7a      	ldr	r2, [r7, #68]	; 0x44
 800360e:	429a      	cmp	r2, r3
 8003610:	d200      	bcs.n	8003614 <CRYP_GCMCCM_SetHeaderPhase+0x264>
 8003612:	e785      	b.n	8003520 <CRYP_GCMCCM_SetHeaderPhase+0x170>
      }
      /* Write last complete words */
      for (loopcounter = 0U; (loopcounter < ((size_in_bytes / 4U) % 4U)); loopcounter++)
 8003614:	2300      	movs	r3, #0
 8003616:	647b      	str	r3, [r7, #68]	; 0x44
 8003618:	e014      	b.n	8003644 <CRYP_GCMCCM_SetHeaderPhase+0x294>
      {
        hcryp->Instance->DINR = *(uint32_t *)(hcryp->Init.Header + hcryp->CrypHeaderCount);
 800361a:	687b      	ldr	r3, [r7, #4]
 800361c:	699a      	ldr	r2, [r3, #24]
 800361e:	687b      	ldr	r3, [r7, #4]
 8003620:	8f9b      	ldrh	r3, [r3, #60]	; 0x3c
 8003622:	b29b      	uxth	r3, r3
 8003624:	009b      	lsls	r3, r3, #2
 8003626:	18d2      	adds	r2, r2, r3
 8003628:	687b      	ldr	r3, [r7, #4]
 800362a:	681b      	ldr	r3, [r3, #0]
 800362c:	6812      	ldr	r2, [r2, #0]
 800362e:	609a      	str	r2, [r3, #8]
        hcryp->CrypHeaderCount++ ;
 8003630:	687b      	ldr	r3, [r7, #4]
 8003632:	8f9b      	ldrh	r3, [r3, #60]	; 0x3c
 8003634:	b29b      	uxth	r3, r3
 8003636:	3301      	adds	r3, #1
 8003638:	b29a      	uxth	r2, r3
 800363a:	687b      	ldr	r3, [r7, #4]
 800363c:	879a      	strh	r2, [r3, #60]	; 0x3c
      for (loopcounter = 0U; (loopcounter < ((size_in_bytes / 4U) % 4U)); loopcounter++)
 800363e:	6c7b      	ldr	r3, [r7, #68]	; 0x44
 8003640:	3301      	adds	r3, #1
 8003642:	647b      	str	r3, [r7, #68]	; 0x44
 8003644:	6c3b      	ldr	r3, [r7, #64]	; 0x40
 8003646:	089b      	lsrs	r3, r3, #2
 8003648:	2203      	movs	r2, #3
 800364a:	4013      	ands	r3, r2
 800364c:	6c7a      	ldr	r2, [r7, #68]	; 0x44
 800364e:	429a      	cmp	r2, r3
 8003650:	d3e3      	bcc.n	800361a <CRYP_GCMCCM_SetHeaderPhase+0x26a>
      }
      /* If the header size is a multiple of words */
      if ((size_in_bytes % 4U) == 0U)
 8003652:	6c3b      	ldr	r3, [r7, #64]	; 0x40
 8003654:	2203      	movs	r2, #3
 8003656:	4013      	ands	r3, r2
 8003658:	d10b      	bne.n	8003672 <CRYP_GCMCCM_SetHeaderPhase+0x2c2>
      {
        /* Pad the data with zeros to have a complete block */
        while (loopcounter < 4U)
 800365a:	e006      	b.n	800366a <CRYP_GCMCCM_SetHeaderPhase+0x2ba>
        {
          hcryp->Instance->DINR = 0x0U;
 800365c:	687b      	ldr	r3, [r7, #4]
 800365e:	681b      	ldr	r3, [r3, #0]
 8003660:	2200      	movs	r2, #0
 8003662:	609a      	str	r2, [r3, #8]
          loopcounter++;
 8003664:	6c7b      	ldr	r3, [r7, #68]	; 0x44
 8003666:	3301      	adds	r3, #1
 8003668:	647b      	str	r3, [r7, #68]	; 0x44
        while (loopcounter < 4U)
 800366a:	6c7b      	ldr	r3, [r7, #68]	; 0x44
 800366c:	2b03      	cmp	r3, #3
 800366e:	d9f5      	bls.n	800365c <CRYP_GCMCCM_SetHeaderPhase+0x2ac>
 8003670:	e028      	b.n	80036c4 <CRYP_GCMCCM_SetHeaderPhase+0x314>
        }
      }
      else
      {
         /* Enter last bytes, padded with zeros */
         tmp =  *(uint32_t *)(hcryp->Init.Header + hcryp->CrypHeaderCount);
 8003672:	687b      	ldr	r3, [r7, #4]
 8003674:	699a      	ldr	r2, [r3, #24]
 8003676:	687b      	ldr	r3, [r7, #4]
 8003678:	8f9b      	ldrh	r3, [r3, #60]	; 0x3c
 800367a:	b29b      	uxth	r3, r3
 800367c:	009b      	lsls	r3, r3, #2
 800367e:	18d3      	adds	r3, r2, r3
 8003680:	681b      	ldr	r3, [r3, #0]
 8003682:	63fb      	str	r3, [r7, #60]	; 0x3c
         tmp &= mask[(hcryp->Init.DataType * 2U) + (size_in_bytes % 4U)];
 8003684:	687b      	ldr	r3, [r7, #4]
 8003686:	685b      	ldr	r3, [r3, #4]
 8003688:	005a      	lsls	r2, r3, #1
 800368a:	6c3b      	ldr	r3, [r7, #64]	; 0x40
 800368c:	2103      	movs	r1, #3
 800368e:	400b      	ands	r3, r1
 8003690:	18d2      	adds	r2, r2, r3
 8003692:	230c      	movs	r3, #12
 8003694:	18fb      	adds	r3, r7, r3
 8003696:	0092      	lsls	r2, r2, #2
 8003698:	58d2      	ldr	r2, [r2, r3]
 800369a:	6bfb      	ldr	r3, [r7, #60]	; 0x3c
 800369c:	4013      	ands	r3, r2
 800369e:	63fb      	str	r3, [r7, #60]	; 0x3c
         hcryp->Instance->DINR = tmp;
 80036a0:	687b      	ldr	r3, [r7, #4]
 80036a2:	681b      	ldr	r3, [r3, #0]
 80036a4:	6bfa      	ldr	r2, [r7, #60]	; 0x3c
 80036a6:	609a      	str	r2, [r3, #8]
         loopcounter++;
 80036a8:	6c7b      	ldr	r3, [r7, #68]	; 0x44
 80036aa:	3301      	adds	r3, #1
 80036ac:	647b      	str	r3, [r7, #68]	; 0x44
         /* Pad the data with zeros to have a complete block */
         while (loopcounter < 4U)
 80036ae:	e006      	b.n	80036be <CRYP_GCMCCM_SetHeaderPhase+0x30e>
         {
           hcryp->Instance->DINR = 0x0U;
 80036b0:	687b      	ldr	r3, [r7, #4]
 80036b2:	681b      	ldr	r3, [r3, #0]
 80036b4:	2200      	movs	r2, #0
 80036b6:	609a      	str	r2, [r3, #8]
           loopcounter++;
 80036b8:	6c7b      	ldr	r3, [r7, #68]	; 0x44
 80036ba:	3301      	adds	r3, #1
 80036bc:	647b      	str	r3, [r7, #68]	; 0x44
         while (loopcounter < 4U)
 80036be:	6c7b      	ldr	r3, [r7, #68]	; 0x44
 80036c0:	2b03      	cmp	r3, #3
 80036c2:	d9f5      	bls.n	80036b0 <CRYP_GCMCCM_SetHeaderPhase+0x300>
         }
      }

      if (CRYP_WaitOnCCFlag(hcryp, Timeout) != HAL_OK)
 80036c4:	683a      	ldr	r2, [r7, #0]
 80036c6:	687b      	ldr	r3, [r7, #4]
 80036c8:	0011      	movs	r1, r2
 80036ca:	0018      	movs	r0, r3
 80036cc:	f000 f84e 	bl	800376c <CRYP_WaitOnCCFlag>
 80036d0:	1e03      	subs	r3, r0, #0
 80036d2:	d017      	beq.n	8003704 <CRYP_GCMCCM_SetHeaderPhase+0x354>
      {
        /* Disable the CRYP peripheral clock */
        __HAL_CRYP_DISABLE(hcryp);
 80036d4:	687b      	ldr	r3, [r7, #4]
 80036d6:	681b      	ldr	r3, [r3, #0]
 80036d8:	681a      	ldr	r2, [r3, #0]
 80036da:	687b      	ldr	r3, [r7, #4]
 80036dc:	681b      	ldr	r3, [r3, #0]
 80036de:	2101      	movs	r1, #1
 80036e0:	438a      	bics	r2, r1
 80036e2:	601a      	str	r2, [r3, #0]

        /* Change state */
        hcryp->ErrorCode |= HAL_CRYP_ERROR_TIMEOUT;
 80036e4:	687b      	ldr	r3, [r7, #4]
 80036e6:	6d5b      	ldr	r3, [r3, #84]	; 0x54
 80036e8:	2210      	movs	r2, #16
 80036ea:	431a      	orrs	r2, r3
 80036ec:	687b      	ldr	r3, [r7, #4]
 80036ee:	655a      	str	r2, [r3, #84]	; 0x54
        hcryp->State = HAL_CRYP_STATE_READY;
 80036f0:	687b      	ldr	r3, [r7, #4]
 80036f2:	2251      	movs	r2, #81	; 0x51
 80036f4:	2101      	movs	r1, #1
 80036f6:	5499      	strb	r1, [r3, r2]

        /* Process unlocked */
        __HAL_UNLOCK(hcryp);
 80036f8:	687b      	ldr	r3, [r7, #4]
 80036fa:	2250      	movs	r2, #80	; 0x50
 80036fc:	2100      	movs	r1, #0
 80036fe:	5499      	strb	r1, [r3, r2]
        return HAL_ERROR;
 8003700:	2301      	movs	r3, #1
 8003702:	e02d      	b.n	8003760 <CRYP_GCMCCM_SetHeaderPhase+0x3b0>
      }
      /* Clear CCF flag */
      __HAL_CRYP_CLEAR_FLAG(hcryp, CRYP_CCF_CLEAR);
 8003704:	687b      	ldr	r3, [r7, #4]
 8003706:	681b      	ldr	r3, [r3, #0]
 8003708:	681a      	ldr	r2, [r3, #0]
 800370a:	687b      	ldr	r3, [r7, #4]
 800370c:	681b      	ldr	r3, [r3, #0]
 800370e:	2180      	movs	r1, #128	; 0x80
 8003710:	430a      	orrs	r2, r1
 8003712:	601a      	str	r2, [r3, #0]
 8003714:	e023      	b.n	800375e <CRYP_GCMCCM_SetHeaderPhase+0x3ae>
 8003716:	46c0      	nop			; (mov r8, r8)
 8003718:	08009478 	.word	0x08009478
 800371c:	ffff9fff 	.word	0xffff9fff
    }
  }
  else
  {
    /*Workaround 1: only AES, before re-enabling the peripheral, datatype can be configured.*/
    MODIFY_REG(hcryp->Instance->CR, AES_CR_DATATYPE, hcryp->Init.DataType);
 8003720:	687b      	ldr	r3, [r7, #4]
 8003722:	681b      	ldr	r3, [r3, #0]
 8003724:	681b      	ldr	r3, [r3, #0]
 8003726:	2206      	movs	r2, #6
 8003728:	4393      	bics	r3, r2
 800372a:	0019      	movs	r1, r3
 800372c:	687b      	ldr	r3, [r7, #4]
 800372e:	685a      	ldr	r2, [r3, #4]
 8003730:	687b      	ldr	r3, [r7, #4]
 8003732:	681b      	ldr	r3, [r3, #0]
 8003734:	430a      	orrs	r2, r1
 8003736:	601a      	str	r2, [r3, #0]

    /* Select header phase */
    CRYP_SET_PHASE(hcryp, CRYP_PHASE_HEADER);
 8003738:	687b      	ldr	r3, [r7, #4]
 800373a:	681b      	ldr	r3, [r3, #0]
 800373c:	681b      	ldr	r3, [r3, #0]
 800373e:	4a0a      	ldr	r2, [pc, #40]	; (8003768 <CRYP_GCMCCM_SetHeaderPhase+0x3b8>)
 8003740:	401a      	ands	r2, r3
 8003742:	687b      	ldr	r3, [r7, #4]
 8003744:	681b      	ldr	r3, [r3, #0]
 8003746:	2180      	movs	r1, #128	; 0x80
 8003748:	0189      	lsls	r1, r1, #6
 800374a:	430a      	orrs	r2, r1
 800374c:	601a      	str	r2, [r3, #0]

    /* Enable the CRYP peripheral */
    __HAL_CRYP_ENABLE(hcryp);
 800374e:	687b      	ldr	r3, [r7, #4]
 8003750:	681b      	ldr	r3, [r3, #0]
 8003752:	681a      	ldr	r2, [r3, #0]
 8003754:	687b      	ldr	r3, [r7, #4]
 8003756:	681b      	ldr	r3, [r3, #0]
 8003758:	2101      	movs	r1, #1
 800375a:	430a      	orrs	r2, r1
 800375c:	601a      	str	r2, [r3, #0]
  }
  /* Return function status */
  return HAL_OK;
 800375e:	2300      	movs	r3, #0
}
 8003760:	0018      	movs	r0, r3
 8003762:	46bd      	mov	sp, r7
 8003764:	b013      	add	sp, #76	; 0x4c
 8003766:	bd90      	pop	{r4, r7, pc}
 8003768:	ffff9fff 	.word	0xffff9fff

0800376c <CRYP_WaitOnCCFlag>:
  * @param  Timeout Timeout duration.
  * @note   This function can only be used in thread mode.
  * @retval HAL status
  */
static HAL_StatusTypeDef CRYP_WaitOnCCFlag(CRYP_HandleTypeDef *hcryp, uint32_t Timeout)
{
 800376c:	b580      	push	{r7, lr}
 800376e:	b084      	sub	sp, #16
 8003770:	af00      	add	r7, sp, #0
 8003772:	6078      	str	r0, [r7, #4]
 8003774:	6039      	str	r1, [r7, #0]
  uint32_t tickstart;

  /* Get timeout */
  tickstart = HAL_GetTick();
 8003776:	f7fe fc9f 	bl	80020b8 <HAL_GetTick>
 800377a:	0003      	movs	r3, r0
 800377c:	60fb      	str	r3, [r7, #12]

  while (HAL_IS_BIT_CLR(hcryp->Instance->SR, AES_SR_CCF))
 800377e:	e00f      	b.n	80037a0 <CRYP_WaitOnCCFlag+0x34>
  {
    /* Check for the Timeout */
    if (Timeout != HAL_MAX_DELAY)
 8003780:	683b      	ldr	r3, [r7, #0]
 8003782:	3301      	adds	r3, #1
 8003784:	d00c      	beq.n	80037a0 <CRYP_WaitOnCCFlag+0x34>
    {
      if (((HAL_GetTick() - tickstart) > Timeout) || (Timeout == 0U))
 8003786:	f7fe fc97 	bl	80020b8 <HAL_GetTick>
 800378a:	0002      	movs	r2, r0
 800378c:	68fb      	ldr	r3, [r7, #12]
 800378e:	1ad3      	subs	r3, r2, r3
 8003790:	683a      	ldr	r2, [r7, #0]
 8003792:	429a      	cmp	r2, r3
 8003794:	d302      	bcc.n	800379c <CRYP_WaitOnCCFlag+0x30>
 8003796:	683b      	ldr	r3, [r7, #0]
 8003798:	2b00      	cmp	r3, #0
 800379a:	d101      	bne.n	80037a0 <CRYP_WaitOnCCFlag+0x34>
      {
        return HAL_ERROR;
 800379c:	2301      	movs	r3, #1
 800379e:	e006      	b.n	80037ae <CRYP_WaitOnCCFlag+0x42>
  while (HAL_IS_BIT_CLR(hcryp->Instance->SR, AES_SR_CCF))
 80037a0:	687b      	ldr	r3, [r7, #4]
 80037a2:	681b      	ldr	r3, [r3, #0]
 80037a4:	685b      	ldr	r3, [r3, #4]
 80037a6:	2201      	movs	r2, #1
 80037a8:	4013      	ands	r3, r2
 80037aa:	d0e9      	beq.n	8003780 <CRYP_WaitOnCCFlag+0x14>
      }
    }
  }
  return HAL_OK;
 80037ac:	2300      	movs	r3, #0
}
 80037ae:	0018      	movs	r0, r3
 80037b0:	46bd      	mov	sp, r7
 80037b2:	b004      	add	sp, #16
 80037b4:	bd80      	pop	{r7, pc}
	...

080037b8 <HAL_FLASH_Program>:
  *               are stored the data for the row fast program.
  *
  * @retval HAL_StatusTypeDef HAL Status
  */
HAL_StatusTypeDef HAL_FLASH_Program(uint32_t TypeProgram, uint32_t Address, uint64_t Data)
{
 80037b8:	b5b0      	push	{r4, r5, r7, lr}
 80037ba:	b086      	sub	sp, #24
 80037bc:	af00      	add	r7, sp, #0
 80037be:	60f8      	str	r0, [r7, #12]
 80037c0:	60b9      	str	r1, [r7, #8]
 80037c2:	603a      	str	r2, [r7, #0]
 80037c4:	607b      	str	r3, [r7, #4]

  /* Check the parameters */
  assert_param(IS_FLASH_TYPEPROGRAM(TypeProgram));

  /* Process Locked */
  __HAL_LOCK(&pFlash);
 80037c6:	4b22      	ldr	r3, [pc, #136]	; (8003850 <HAL_FLASH_Program+0x98>)
 80037c8:	781b      	ldrb	r3, [r3, #0]
 80037ca:	2b01      	cmp	r3, #1
 80037cc:	d101      	bne.n	80037d2 <HAL_FLASH_Program+0x1a>
 80037ce:	2302      	movs	r3, #2
 80037d0:	e03a      	b.n	8003848 <HAL_FLASH_Program+0x90>
 80037d2:	4b1f      	ldr	r3, [pc, #124]	; (8003850 <HAL_FLASH_Program+0x98>)
 80037d4:	2201      	movs	r2, #1
 80037d6:	701a      	strb	r2, [r3, #0]

  /* Reset error code */
  pFlash.ErrorCode = HAL_FLASH_ERROR_NONE;
 80037d8:	4b1d      	ldr	r3, [pc, #116]	; (8003850 <HAL_FLASH_Program+0x98>)
 80037da:	2200      	movs	r2, #0
 80037dc:	605a      	str	r2, [r3, #4]

  /* Wait for last operation to be completed */
  status = FLASH_WaitForLastOperation(FLASH_TIMEOUT_VALUE);
 80037de:	2517      	movs	r5, #23
 80037e0:	197c      	adds	r4, r7, r5
 80037e2:	23fa      	movs	r3, #250	; 0xfa
 80037e4:	009b      	lsls	r3, r3, #2
 80037e6:	0018      	movs	r0, r3
 80037e8:	f000 f876 	bl	80038d8 <FLASH_WaitForLastOperation>
 80037ec:	0003      	movs	r3, r0
 80037ee:	7023      	strb	r3, [r4, #0]

  if (status == HAL_OK)
 80037f0:	197b      	adds	r3, r7, r5
 80037f2:	781b      	ldrb	r3, [r3, #0]
 80037f4:	2b00      	cmp	r3, #0
 80037f6:	d121      	bne.n	800383c <HAL_FLASH_Program+0x84>
  {
    if (TypeProgram == FLASH_TYPEPROGRAM_DOUBLEWORD)
 80037f8:	68fb      	ldr	r3, [r7, #12]
 80037fa:	2b01      	cmp	r3, #1
 80037fc:	d108      	bne.n	8003810 <HAL_FLASH_Program+0x58>
    {
      /* Check the parameters */
      assert_param(IS_FLASH_PROGRAM_ADDRESS(Address));

      /* Program double-word (64-bit) at a specified address */
      FLASH_Program_DoubleWord(Address, Data);
 80037fe:	683b      	ldr	r3, [r7, #0]
 8003800:	687c      	ldr	r4, [r7, #4]
 8003802:	68b9      	ldr	r1, [r7, #8]
 8003804:	001a      	movs	r2, r3
 8003806:	0023      	movs	r3, r4
 8003808:	0008      	movs	r0, r1
 800380a:	f000 f8b3 	bl	8003974 <FLASH_Program_DoubleWord>
 800380e:	e005      	b.n	800381c <HAL_FLASH_Program+0x64>
    {
      /* Check the parameters */
      assert_param(IS_FLASH_FAST_PROGRAM_ADDRESS(Address));

      /* Fast program a 32 row double-word (64-bit) at a specified address */
      FLASH_Program_Fast(Address, (uint32_t)Data);
 8003810:	683a      	ldr	r2, [r7, #0]
 8003812:	68bb      	ldr	r3, [r7, #8]
 8003814:	0011      	movs	r1, r2
 8003816:	0018      	movs	r0, r3
 8003818:	f005 fd8e 	bl	8009338 <__FLASH_Program_Fast_veneer>
    }

    /* Wait for last operation to be completed */
    status = FLASH_WaitForLastOperation(FLASH_TIMEOUT_VALUE);
 800381c:	2317      	movs	r3, #23
 800381e:	18fc      	adds	r4, r7, r3
 8003820:	23fa      	movs	r3, #250	; 0xfa
 8003822:	009b      	lsls	r3, r3, #2
 8003824:	0018      	movs	r0, r3
 8003826:	f000 f857 	bl	80038d8 <FLASH_WaitForLastOperation>
 800382a:	0003      	movs	r3, r0
 800382c:	7023      	strb	r3, [r4, #0]

    /* If the program operation is completed, disable the PG or FSTPG Bit */
    CLEAR_BIT(FLASH->CR, TypeProgram);
 800382e:	4b09      	ldr	r3, [pc, #36]	; (8003854 <HAL_FLASH_Program+0x9c>)
 8003830:	695a      	ldr	r2, [r3, #20]
 8003832:	68fb      	ldr	r3, [r7, #12]
 8003834:	43d9      	mvns	r1, r3
 8003836:	4b07      	ldr	r3, [pc, #28]	; (8003854 <HAL_FLASH_Program+0x9c>)
 8003838:	400a      	ands	r2, r1
 800383a:	615a      	str	r2, [r3, #20]
  }

  /* Process Unlocked */
  __HAL_UNLOCK(&pFlash);
 800383c:	4b04      	ldr	r3, [pc, #16]	; (8003850 <HAL_FLASH_Program+0x98>)
 800383e:	2200      	movs	r2, #0
 8003840:	701a      	strb	r2, [r3, #0]

  /* return status */
  return status;
 8003842:	2317      	movs	r3, #23
 8003844:	18fb      	adds	r3, r7, r3
 8003846:	781b      	ldrb	r3, [r3, #0]
}
 8003848:	0018      	movs	r0, r3
 800384a:	46bd      	mov	sp, r7
 800384c:	b006      	add	sp, #24
 800384e:	bdb0      	pop	{r4, r5, r7, pc}
 8003850:	20000528 	.word	0x20000528
 8003854:	40022000 	.word	0x40022000

08003858 <HAL_FLASH_Unlock>:
/**
  * @brief  Unlock the FLASH control register access.
  * @retval HAL Status
  */
HAL_StatusTypeDef HAL_FLASH_Unlock(void)
{
 8003858:	b580      	push	{r7, lr}
 800385a:	b082      	sub	sp, #8
 800385c:	af00      	add	r7, sp, #0
  HAL_StatusTypeDef status = HAL_OK;
 800385e:	1dfb      	adds	r3, r7, #7
 8003860:	2200      	movs	r2, #0
 8003862:	701a      	strb	r2, [r3, #0]

  if (READ_BIT(FLASH->CR, FLASH_CR_LOCK) != 0x00U)
 8003864:	4b0b      	ldr	r3, [pc, #44]	; (8003894 <HAL_FLASH_Unlock+0x3c>)
 8003866:	695b      	ldr	r3, [r3, #20]
 8003868:	2b00      	cmp	r3, #0
 800386a:	da0c      	bge.n	8003886 <HAL_FLASH_Unlock+0x2e>
  {
    /* Authorize the FLASH Registers access */
    WRITE_REG(FLASH->KEYR, FLASH_KEY1);
 800386c:	4b09      	ldr	r3, [pc, #36]	; (8003894 <HAL_FLASH_Unlock+0x3c>)
 800386e:	4a0a      	ldr	r2, [pc, #40]	; (8003898 <HAL_FLASH_Unlock+0x40>)
 8003870:	609a      	str	r2, [r3, #8]
    WRITE_REG(FLASH->KEYR, FLASH_KEY2);
 8003872:	4b08      	ldr	r3, [pc, #32]	; (8003894 <HAL_FLASH_Unlock+0x3c>)
 8003874:	4a09      	ldr	r2, [pc, #36]	; (800389c <HAL_FLASH_Unlock+0x44>)
 8003876:	609a      	str	r2, [r3, #8]

    /* verify Flash is unlock */
    if (READ_BIT(FLASH->CR, FLASH_CR_LOCK) != 0x00U)
 8003878:	4b06      	ldr	r3, [pc, #24]	; (8003894 <HAL_FLASH_Unlock+0x3c>)
 800387a:	695b      	ldr	r3, [r3, #20]
 800387c:	2b00      	cmp	r3, #0
 800387e:	da02      	bge.n	8003886 <HAL_FLASH_Unlock+0x2e>
    {
      status = HAL_ERROR;
 8003880:	1dfb      	adds	r3, r7, #7
 8003882:	2201      	movs	r2, #1
 8003884:	701a      	strb	r2, [r3, #0]
    }
  }

  return status;
 8003886:	1dfb      	adds	r3, r7, #7
 8003888:	781b      	ldrb	r3, [r3, #0]
}
 800388a:	0018      	movs	r0, r3
 800388c:	46bd      	mov	sp, r7
 800388e:	b002      	add	sp, #8
 8003890:	bd80      	pop	{r7, pc}
 8003892:	46c0      	nop			; (mov r8, r8)
 8003894:	40022000 	.word	0x40022000
 8003898:	45670123 	.word	0x45670123
 800389c:	cdef89ab 	.word	0xcdef89ab

080038a0 <HAL_FLASH_Lock>:
/**
  * @brief  Lock the FLASH control register access.
  * @retval HAL Status
  */
HAL_StatusTypeDef HAL_FLASH_Lock(void)
{
 80038a0:	b580      	push	{r7, lr}
 80038a2:	b082      	sub	sp, #8
 80038a4:	af00      	add	r7, sp, #0
  HAL_StatusTypeDef status = HAL_ERROR;
 80038a6:	1dfb      	adds	r3, r7, #7
 80038a8:	2201      	movs	r2, #1
 80038aa:	701a      	strb	r2, [r3, #0]

  /* Set the LOCK Bit to lock the FLASH Registers access */
  SET_BIT(FLASH->CR, FLASH_CR_LOCK);
 80038ac:	4b09      	ldr	r3, [pc, #36]	; (80038d4 <HAL_FLASH_Lock+0x34>)
 80038ae:	695a      	ldr	r2, [r3, #20]
 80038b0:	4b08      	ldr	r3, [pc, #32]	; (80038d4 <HAL_FLASH_Lock+0x34>)
 80038b2:	2180      	movs	r1, #128	; 0x80
 80038b4:	0609      	lsls	r1, r1, #24
 80038b6:	430a      	orrs	r2, r1
 80038b8:	615a      	str	r2, [r3, #20]

  /* verify Flash is locked */
  if (READ_BIT(FLASH->CR, FLASH_CR_LOCK) != 0x00u)
 80038ba:	4b06      	ldr	r3, [pc, #24]	; (80038d4 <HAL_FLASH_Lock+0x34>)
 80038bc:	695b      	ldr	r3, [r3, #20]
 80038be:	2b00      	cmp	r3, #0
 80038c0:	da02      	bge.n	80038c8 <HAL_FLASH_Lock+0x28>
  {
    status = HAL_OK;
 80038c2:	1dfb      	adds	r3, r7, #7
 80038c4:	2200      	movs	r2, #0
 80038c6:	701a      	strb	r2, [r3, #0]
  }

  return status;
 80038c8:	1dfb      	adds	r3, r7, #7
 80038ca:	781b      	ldrb	r3, [r3, #0]
}
 80038cc:	0018      	movs	r0, r3
 80038ce:	46bd      	mov	sp, r7
 80038d0:	b002      	add	sp, #8
 80038d2:	bd80      	pop	{r7, pc}
 80038d4:	40022000 	.word	0x40022000

080038d8 <FLASH_WaitForLastOperation>:
  * @brief  Wait for a FLASH operation to complete.
  * @param  Timeout maximum flash operation timeout
  * @retval HAL_StatusTypeDef HAL Status
  */
HAL_StatusTypeDef FLASH_WaitForLastOperation(uint32_t Timeout)
{
 80038d8:	b580      	push	{r7, lr}
 80038da:	b084      	sub	sp, #16
 80038dc:	af00      	add	r7, sp, #0
 80038de:	6078      	str	r0, [r7, #4]
  uint32_t error;
  /* Wait for the FLASH operation to complete by polling on BUSY flag to be reset.
     Even if the FLASH operation fails, the BUSY flag will be reset and an error
     flag will be set */
  uint32_t timeout = HAL_GetTick() + Timeout;
 80038e0:	f7fe fbea 	bl	80020b8 <HAL_GetTick>
 80038e4:	0002      	movs	r2, r0
 80038e6:	687b      	ldr	r3, [r7, #4]
 80038e8:	189b      	adds	r3, r3, r2
 80038ea:	60fb      	str	r3, [r7, #12]

  /* Wait if any operation is ongoing */
#if defined(FLASH_DBANK_SUPPORT)
  error = (FLASH_SR_BSY1 | FLASH_SR_BSY2);
#else
  error = FLASH_SR_BSY1;
 80038ec:	2380      	movs	r3, #128	; 0x80
 80038ee:	025b      	lsls	r3, r3, #9
 80038f0:	60bb      	str	r3, [r7, #8]
#endif

  while ((FLASH->SR & error) != 0x00U)
 80038f2:	e007      	b.n	8003904 <FLASH_WaitForLastOperation+0x2c>
  {
    if (HAL_GetTick() >= timeout)
 80038f4:	f7fe fbe0 	bl	80020b8 <HAL_GetTick>
 80038f8:	0002      	movs	r2, r0
 80038fa:	68fb      	ldr	r3, [r7, #12]
 80038fc:	4293      	cmp	r3, r2
 80038fe:	d801      	bhi.n	8003904 <FLASH_WaitForLastOperation+0x2c>
    {
      return HAL_TIMEOUT;
 8003900:	2303      	movs	r3, #3
 8003902:	e02a      	b.n	800395a <FLASH_WaitForLastOperation+0x82>
  while ((FLASH->SR & error) != 0x00U)
 8003904:	4b17      	ldr	r3, [pc, #92]	; (8003964 <FLASH_WaitForLastOperation+0x8c>)
 8003906:	691b      	ldr	r3, [r3, #16]
 8003908:	68ba      	ldr	r2, [r7, #8]
 800390a:	4013      	ands	r3, r2
 800390c:	d1f2      	bne.n	80038f4 <FLASH_WaitForLastOperation+0x1c>
    }
  }

  /* check flash errors */
  error = (FLASH->SR & FLASH_SR_ERRORS);
 800390e:	4b15      	ldr	r3, [pc, #84]	; (8003964 <FLASH_WaitForLastOperation+0x8c>)
 8003910:	691b      	ldr	r3, [r3, #16]
 8003912:	4a15      	ldr	r2, [pc, #84]	; (8003968 <FLASH_WaitForLastOperation+0x90>)
 8003914:	4013      	ands	r3, r2
 8003916:	60bb      	str	r3, [r7, #8]

  /* Clear SR register */
  FLASH->SR = FLASH_SR_CLEAR;
 8003918:	4b12      	ldr	r3, [pc, #72]	; (8003964 <FLASH_WaitForLastOperation+0x8c>)
 800391a:	4a14      	ldr	r2, [pc, #80]	; (800396c <FLASH_WaitForLastOperation+0x94>)
 800391c:	611a      	str	r2, [r3, #16]

  if (error != 0x00U)
 800391e:	68bb      	ldr	r3, [r7, #8]
 8003920:	2b00      	cmp	r3, #0
 8003922:	d004      	beq.n	800392e <FLASH_WaitForLastOperation+0x56>
  {
    /*Save the error code*/
    pFlash.ErrorCode = error;
 8003924:	4b12      	ldr	r3, [pc, #72]	; (8003970 <FLASH_WaitForLastOperation+0x98>)
 8003926:	68ba      	ldr	r2, [r7, #8]
 8003928:	605a      	str	r2, [r3, #4]
    return HAL_ERROR;
 800392a:	2301      	movs	r3, #1
 800392c:	e015      	b.n	800395a <FLASH_WaitForLastOperation+0x82>
  }

  /* Wait for control register to be written */
  timeout = HAL_GetTick() + Timeout;
 800392e:	f7fe fbc3 	bl	80020b8 <HAL_GetTick>
 8003932:	0002      	movs	r2, r0
 8003934:	687b      	ldr	r3, [r7, #4]
 8003936:	189b      	adds	r3, r3, r2
 8003938:	60fb      	str	r3, [r7, #12]

  while ((FLASH->SR & FLASH_SR_CFGBSY) != 0x00U)
 800393a:	e007      	b.n	800394c <FLASH_WaitForLastOperation+0x74>
  {
    if (HAL_GetTick() >= timeout)
 800393c:	f7fe fbbc 	bl	80020b8 <HAL_GetTick>
 8003940:	0002      	movs	r2, r0
 8003942:	68fb      	ldr	r3, [r7, #12]
 8003944:	4293      	cmp	r3, r2
 8003946:	d801      	bhi.n	800394c <FLASH_WaitForLastOperation+0x74>
    {
      return HAL_TIMEOUT;
 8003948:	2303      	movs	r3, #3
 800394a:	e006      	b.n	800395a <FLASH_WaitForLastOperation+0x82>
  while ((FLASH->SR & FLASH_SR_CFGBSY) != 0x00U)
 800394c:	4b05      	ldr	r3, [pc, #20]	; (8003964 <FLASH_WaitForLastOperation+0x8c>)
 800394e:	691a      	ldr	r2, [r3, #16]
 8003950:	2380      	movs	r3, #128	; 0x80
 8003952:	02db      	lsls	r3, r3, #11
 8003954:	4013      	ands	r3, r2
 8003956:	d1f1      	bne.n	800393c <FLASH_WaitForLastOperation+0x64>
    }
  }

  return HAL_OK;
 8003958:	2300      	movs	r3, #0
}
 800395a:	0018      	movs	r0, r3
 800395c:	46bd      	mov	sp, r7
 800395e:	b004      	add	sp, #16
 8003960:	bd80      	pop	{r7, pc}
 8003962:	46c0      	nop			; (mov r8, r8)
 8003964:	40022000 	.word	0x40022000
 8003968:	0000c3fa 	.word	0x0000c3fa
 800396c:	0000c3fb 	.word	0x0000c3fb
 8003970:	20000528 	.word	0x20000528

08003974 <FLASH_Program_DoubleWord>:
  * @param  Address Specifies the address to be programmed.
  * @param  Data Specifies the data to be programmed.
  * @retval None
  */
static void FLASH_Program_DoubleWord(uint32_t Address, uint64_t Data)
{
 8003974:	b5b0      	push	{r4, r5, r7, lr}
 8003976:	b084      	sub	sp, #16
 8003978:	af00      	add	r7, sp, #0
 800397a:	60f8      	str	r0, [r7, #12]
 800397c:	603a      	str	r2, [r7, #0]
 800397e:	607b      	str	r3, [r7, #4]
  /* Set PG bit */
  SET_BIT(FLASH->CR, FLASH_CR_PG);
 8003980:	4b0b      	ldr	r3, [pc, #44]	; (80039b0 <FLASH_Program_DoubleWord+0x3c>)
 8003982:	695a      	ldr	r2, [r3, #20]
 8003984:	4b0a      	ldr	r3, [pc, #40]	; (80039b0 <FLASH_Program_DoubleWord+0x3c>)
 8003986:	2101      	movs	r1, #1
 8003988:	430a      	orrs	r2, r1
 800398a:	615a      	str	r2, [r3, #20]

  /* Program first word */
  *(uint32_t *)Address = (uint32_t)Data;
 800398c:	68fb      	ldr	r3, [r7, #12]
 800398e:	683a      	ldr	r2, [r7, #0]
 8003990:	601a      	str	r2, [r3, #0]
           so that all instructions following the ISB are fetched from cache or memory,
           after the instruction has been completed.
 */
__STATIC_FORCEINLINE void __ISB(void)
{
  __ASM volatile ("isb 0xF":::"memory");
 8003992:	f3bf 8f6f 	isb	sy
  /* Barrier to ensure programming is performed in 2 steps, in right order
    (independently of compiler optimization behavior) */
  __ISB();

  /* Program second word */
  *(uint32_t *)(Address + 4U) = (uint32_t)(Data >> 32U);
 8003996:	687b      	ldr	r3, [r7, #4]
 8003998:	001c      	movs	r4, r3
 800399a:	2300      	movs	r3, #0
 800399c:	001d      	movs	r5, r3
 800399e:	68fb      	ldr	r3, [r7, #12]
 80039a0:	3304      	adds	r3, #4
 80039a2:	0022      	movs	r2, r4
 80039a4:	601a      	str	r2, [r3, #0]
}
 80039a6:	46c0      	nop			; (mov r8, r8)
 80039a8:	46bd      	mov	sp, r7
 80039aa:	b004      	add	sp, #16
 80039ac:	bdb0      	pop	{r4, r5, r7, pc}
 80039ae:	46c0      	nop			; (mov r8, r8)
 80039b0:	40022000 	.word	0x40022000

080039b4 <HAL_FLASHEx_Erase>:
  *         information on faulty page in case of error (0xFFFFFFFF means that all
  *         the pages have been correctly erased)
  * @retval HAL Status
  */
HAL_StatusTypeDef HAL_FLASHEx_Erase(FLASH_EraseInitTypeDef *pEraseInit, uint32_t *PageError)
{
 80039b4:	b5b0      	push	{r4, r5, r7, lr}
 80039b6:	b084      	sub	sp, #16
 80039b8:	af00      	add	r7, sp, #0
 80039ba:	6078      	str	r0, [r7, #4]
 80039bc:	6039      	str	r1, [r7, #0]

  /* Check the parameters */
  assert_param(IS_FLASH_TYPEERASE(pEraseInit->TypeErase));

  /* Process Locked */
  __HAL_LOCK(&pFlash);
 80039be:	4b35      	ldr	r3, [pc, #212]	; (8003a94 <HAL_FLASHEx_Erase+0xe0>)
 80039c0:	781b      	ldrb	r3, [r3, #0]
 80039c2:	2b01      	cmp	r3, #1
 80039c4:	d101      	bne.n	80039ca <HAL_FLASHEx_Erase+0x16>
 80039c6:	2302      	movs	r3, #2
 80039c8:	e05f      	b.n	8003a8a <HAL_FLASHEx_Erase+0xd6>
 80039ca:	4b32      	ldr	r3, [pc, #200]	; (8003a94 <HAL_FLASHEx_Erase+0xe0>)
 80039cc:	2201      	movs	r2, #1
 80039ce:	701a      	strb	r2, [r3, #0]

  /* Reset error code */
  pFlash.ErrorCode = HAL_FLASH_ERROR_NONE;
 80039d0:	4b30      	ldr	r3, [pc, #192]	; (8003a94 <HAL_FLASHEx_Erase+0xe0>)
 80039d2:	2200      	movs	r2, #0
 80039d4:	605a      	str	r2, [r3, #4]

  /* Wait for last operation to be completed */
  status = FLASH_WaitForLastOperation(FLASH_TIMEOUT_VALUE);
 80039d6:	250f      	movs	r5, #15
 80039d8:	197c      	adds	r4, r7, r5
 80039da:	23fa      	movs	r3, #250	; 0xfa
 80039dc:	009b      	lsls	r3, r3, #2
 80039de:	0018      	movs	r0, r3
 80039e0:	f7ff ff7a 	bl	80038d8 <FLASH_WaitForLastOperation>
 80039e4:	0003      	movs	r3, r0
 80039e6:	7023      	strb	r3, [r4, #0]

  if (status == HAL_OK)
 80039e8:	197b      	adds	r3, r7, r5
 80039ea:	781b      	ldrb	r3, [r3, #0]
 80039ec:	2b00      	cmp	r3, #0
 80039ee:	d146      	bne.n	8003a7e <HAL_FLASHEx_Erase+0xca>
  {
#if !defined(FLASH_DBANK_SUPPORT)
    /* For single bank product force Banks to Bank 1 */
    pEraseInit->Banks = FLASH_BANK_1;
 80039f0:	687b      	ldr	r3, [r7, #4]
 80039f2:	2204      	movs	r2, #4
 80039f4:	605a      	str	r2, [r3, #4]
#endif

    if (pEraseInit->TypeErase == FLASH_TYPEERASE_MASS)
 80039f6:	687b      	ldr	r3, [r7, #4]
 80039f8:	681b      	ldr	r3, [r3, #0]
 80039fa:	2b04      	cmp	r3, #4
 80039fc:	d10e      	bne.n	8003a1c <HAL_FLASHEx_Erase+0x68>
    {
      /* Proceed to Mass Erase */
      FLASH_MassErase(pEraseInit->Banks);
 80039fe:	687b      	ldr	r3, [r7, #4]
 8003a00:	685b      	ldr	r3, [r3, #4]
 8003a02:	0018      	movs	r0, r3
 8003a04:	f000 f84a 	bl	8003a9c <FLASH_MassErase>

      /* Wait for last operation to be completed */
      status = FLASH_WaitForLastOperation(FLASH_TIMEOUT_VALUE);
 8003a08:	230f      	movs	r3, #15
 8003a0a:	18fc      	adds	r4, r7, r3
 8003a0c:	23fa      	movs	r3, #250	; 0xfa
 8003a0e:	009b      	lsls	r3, r3, #2
 8003a10:	0018      	movs	r0, r3
 8003a12:	f7ff ff61 	bl	80038d8 <FLASH_WaitForLastOperation>
 8003a16:	0003      	movs	r3, r0
 8003a18:	7023      	strb	r3, [r4, #0]
 8003a1a:	e030      	b.n	8003a7e <HAL_FLASHEx_Erase+0xca>
    }
    else
    {
      /*Initialization of PageError variable*/
      *PageError = 0xFFFFFFFFU;
 8003a1c:	683b      	ldr	r3, [r7, #0]
 8003a1e:	2201      	movs	r2, #1
 8003a20:	4252      	negs	r2, r2
 8003a22:	601a      	str	r2, [r3, #0]

      for (index = pEraseInit->Page; index < (pEraseInit->Page + pEraseInit->NbPages); index++)
 8003a24:	687b      	ldr	r3, [r7, #4]
 8003a26:	689b      	ldr	r3, [r3, #8]
 8003a28:	60bb      	str	r3, [r7, #8]
 8003a2a:	e01a      	b.n	8003a62 <HAL_FLASHEx_Erase+0xae>
      {
        /* Start erase page */
        FLASH_PageErase(pEraseInit->Banks, index);
 8003a2c:	687b      	ldr	r3, [r7, #4]
 8003a2e:	685b      	ldr	r3, [r3, #4]
 8003a30:	68ba      	ldr	r2, [r7, #8]
 8003a32:	0011      	movs	r1, r2
 8003a34:	0018      	movs	r0, r3
 8003a36:	f000 f845 	bl	8003ac4 <FLASH_PageErase>

        /* Wait for last operation to be completed */
        status = FLASH_WaitForLastOperation(FLASH_TIMEOUT_VALUE);
 8003a3a:	250f      	movs	r5, #15
 8003a3c:	197c      	adds	r4, r7, r5
 8003a3e:	23fa      	movs	r3, #250	; 0xfa
 8003a40:	009b      	lsls	r3, r3, #2
 8003a42:	0018      	movs	r0, r3
 8003a44:	f7ff ff48 	bl	80038d8 <FLASH_WaitForLastOperation>
 8003a48:	0003      	movs	r3, r0
 8003a4a:	7023      	strb	r3, [r4, #0]

        if (status != HAL_OK)
 8003a4c:	197b      	adds	r3, r7, r5
 8003a4e:	781b      	ldrb	r3, [r3, #0]
 8003a50:	2b00      	cmp	r3, #0
 8003a52:	d003      	beq.n	8003a5c <HAL_FLASHEx_Erase+0xa8>
        {
          /* In case of error, stop erase procedure and return the faulty address */
          *PageError = index;
 8003a54:	683b      	ldr	r3, [r7, #0]
 8003a56:	68ba      	ldr	r2, [r7, #8]
 8003a58:	601a      	str	r2, [r3, #0]
          break;
 8003a5a:	e00a      	b.n	8003a72 <HAL_FLASHEx_Erase+0xbe>
      for (index = pEraseInit->Page; index < (pEraseInit->Page + pEraseInit->NbPages); index++)
 8003a5c:	68bb      	ldr	r3, [r7, #8]
 8003a5e:	3301      	adds	r3, #1
 8003a60:	60bb      	str	r3, [r7, #8]
 8003a62:	687b      	ldr	r3, [r7, #4]
 8003a64:	689a      	ldr	r2, [r3, #8]
 8003a66:	687b      	ldr	r3, [r7, #4]
 8003a68:	68db      	ldr	r3, [r3, #12]
 8003a6a:	18d3      	adds	r3, r2, r3
 8003a6c:	68ba      	ldr	r2, [r7, #8]
 8003a6e:	429a      	cmp	r2, r3
 8003a70:	d3dc      	bcc.n	8003a2c <HAL_FLASHEx_Erase+0x78>
        }
      }

      /* If operation is completed or interrupted, disable the Page Erase Bit */
      CLEAR_BIT(FLASH->CR, FLASH_CR_PER);
 8003a72:	4b09      	ldr	r3, [pc, #36]	; (8003a98 <HAL_FLASHEx_Erase+0xe4>)
 8003a74:	695a      	ldr	r2, [r3, #20]
 8003a76:	4b08      	ldr	r3, [pc, #32]	; (8003a98 <HAL_FLASHEx_Erase+0xe4>)
 8003a78:	2102      	movs	r1, #2
 8003a7a:	438a      	bics	r2, r1
 8003a7c:	615a      	str	r2, [r3, #20]
    }
  }

  /* Process Unlocked */
  __HAL_UNLOCK(&pFlash);
 8003a7e:	4b05      	ldr	r3, [pc, #20]	; (8003a94 <HAL_FLASHEx_Erase+0xe0>)
 8003a80:	2200      	movs	r2, #0
 8003a82:	701a      	strb	r2, [r3, #0]

  /* return status */
  return status;
 8003a84:	230f      	movs	r3, #15
 8003a86:	18fb      	adds	r3, r7, r3
 8003a88:	781b      	ldrb	r3, [r3, #0]
}
 8003a8a:	0018      	movs	r0, r3
 8003a8c:	46bd      	mov	sp, r7
 8003a8e:	b004      	add	sp, #16
 8003a90:	bdb0      	pop	{r4, r5, r7, pc}
 8003a92:	46c0      	nop			; (mov r8, r8)
 8003a94:	20000528 	.word	0x20000528
 8003a98:	40022000 	.word	0x40022000

08003a9c <FLASH_MassErase>:
  *            @arg FLASH_BANK_2: Bank2 to be erased*
  * @note (*) availability depends on devices
  * @retval None
  */
static void FLASH_MassErase(uint32_t Banks)
{
 8003a9c:	b580      	push	{r7, lr}
 8003a9e:	b082      	sub	sp, #8
 8003aa0:	af00      	add	r7, sp, #0
 8003aa2:	6078      	str	r0, [r7, #4]
  /* Check the parameters */
  assert_param(IS_FLASH_BANK(Banks));

  /* Set the Mass Erase Bit and start bit */
  FLASH->CR |= (FLASH_CR_STRT | Banks);
 8003aa4:	4b06      	ldr	r3, [pc, #24]	; (8003ac0 <FLASH_MassErase+0x24>)
 8003aa6:	695a      	ldr	r2, [r3, #20]
 8003aa8:	687b      	ldr	r3, [r7, #4]
 8003aaa:	431a      	orrs	r2, r3
 8003aac:	4b04      	ldr	r3, [pc, #16]	; (8003ac0 <FLASH_MassErase+0x24>)
 8003aae:	2180      	movs	r1, #128	; 0x80
 8003ab0:	0249      	lsls	r1, r1, #9
 8003ab2:	430a      	orrs	r2, r1
 8003ab4:	615a      	str	r2, [r3, #20]
}
 8003ab6:	46c0      	nop			; (mov r8, r8)
 8003ab8:	46bd      	mov	sp, r7
 8003aba:	b002      	add	sp, #8
 8003abc:	bd80      	pop	{r7, pc}
 8003abe:	46c0      	nop			; (mov r8, r8)
 8003ac0:	40022000 	.word	0x40022000

08003ac4 <FLASH_PageErase>:
  *         This parameter must be a value between 0 and (max number of pages in Flash - 1)
  * @note (*) availability depends on devices
  * @retval None
  */
void FLASH_PageErase(uint32_t Banks, uint32_t Page)
{
 8003ac4:	b580      	push	{r7, lr}
 8003ac6:	b084      	sub	sp, #16
 8003ac8:	af00      	add	r7, sp, #0
 8003aca:	6078      	str	r0, [r7, #4]
 8003acc:	6039      	str	r1, [r7, #0]
  /* Check the parameters */
  assert_param(IS_FLASH_BANK(Banks));
  assert_param(IS_FLASH_PAGE(Page));

  /* Get configuration register, then clear page number */
  tmp = (FLASH->CR & ~FLASH_CR_PNB);
 8003ace:	4b08      	ldr	r3, [pc, #32]	; (8003af0 <FLASH_PageErase+0x2c>)
 8003ad0:	695b      	ldr	r3, [r3, #20]
 8003ad2:	4a08      	ldr	r2, [pc, #32]	; (8003af4 <FLASH_PageErase+0x30>)
 8003ad4:	4013      	ands	r3, r2
 8003ad6:	60fb      	str	r3, [r7, #12]
    tmp &= ~FLASH_CR_BKER;
  }
#endif

  /* Set page number, Page Erase bit & Start bit */
  FLASH->CR = (tmp | (FLASH_CR_STRT | (Page <<  FLASH_CR_PNB_Pos) | FLASH_CR_PER));
 8003ad8:	683b      	ldr	r3, [r7, #0]
 8003ada:	00da      	lsls	r2, r3, #3
 8003adc:	68fb      	ldr	r3, [r7, #12]
 8003ade:	431a      	orrs	r2, r3
 8003ae0:	4b03      	ldr	r3, [pc, #12]	; (8003af0 <FLASH_PageErase+0x2c>)
 8003ae2:	4905      	ldr	r1, [pc, #20]	; (8003af8 <FLASH_PageErase+0x34>)
 8003ae4:	430a      	orrs	r2, r1
 8003ae6:	615a      	str	r2, [r3, #20]
}
 8003ae8:	46c0      	nop			; (mov r8, r8)
 8003aea:	46bd      	mov	sp, r7
 8003aec:	b004      	add	sp, #16
 8003aee:	bd80      	pop	{r7, pc}
 8003af0:	40022000 	.word	0x40022000
 8003af4:	fffffe07 	.word	0xfffffe07
 8003af8:	00010002 	.word	0x00010002

08003afc <HAL_GPIO_Init>:
  * @param  GPIO_Init pointer to a GPIO_InitTypeDef structure that contains
  *         the configuration information for the specified GPIO peripheral.
  * @retval None
  */
void HAL_GPIO_Init(GPIO_TypeDef  *GPIOx, GPIO_InitTypeDef *GPIO_Init)
{
 8003afc:	b580      	push	{r7, lr}
 8003afe:	b086      	sub	sp, #24
 8003b00:	af00      	add	r7, sp, #0
 8003b02:	6078      	str	r0, [r7, #4]
 8003b04:	6039      	str	r1, [r7, #0]
  uint32_t position = 0x00u;
 8003b06:	2300      	movs	r3, #0
 8003b08:	617b      	str	r3, [r7, #20]
  assert_param(IS_GPIO_PIN(GPIO_Init->Pin));
  assert_param(IS_GPIO_MODE(GPIO_Init->Mode));
  assert_param(IS_GPIO_PULL(GPIO_Init->Pull));

  /* Configure the port pins */
  while (((GPIO_Init->Pin) >> position) != 0x00u)
 8003b0a:	e147      	b.n	8003d9c <HAL_GPIO_Init+0x2a0>
  {
    /* Get current io position */
    iocurrent = (GPIO_Init->Pin) & (1uL << position);
 8003b0c:	683b      	ldr	r3, [r7, #0]
 8003b0e:	681b      	ldr	r3, [r3, #0]
 8003b10:	2101      	movs	r1, #1
 8003b12:	697a      	ldr	r2, [r7, #20]
 8003b14:	4091      	lsls	r1, r2
 8003b16:	000a      	movs	r2, r1
 8003b18:	4013      	ands	r3, r2
 8003b1a:	60fb      	str	r3, [r7, #12]

    if (iocurrent != 0x00u)
 8003b1c:	68fb      	ldr	r3, [r7, #12]
 8003b1e:	2b00      	cmp	r3, #0
 8003b20:	d100      	bne.n	8003b24 <HAL_GPIO_Init+0x28>
 8003b22:	e138      	b.n	8003d96 <HAL_GPIO_Init+0x29a>
    {
      /*--------------------- GPIO Mode Configuration ------------------------*/
      /* In case of Output or Alternate function mode selection */
      if ((GPIO_Init->Mode == GPIO_MODE_OUTPUT_PP) || (GPIO_Init->Mode == GPIO_MODE_AF_PP) ||
 8003b24:	683b      	ldr	r3, [r7, #0]
 8003b26:	685b      	ldr	r3, [r3, #4]
 8003b28:	2b01      	cmp	r3, #1
 8003b2a:	d00b      	beq.n	8003b44 <HAL_GPIO_Init+0x48>
 8003b2c:	683b      	ldr	r3, [r7, #0]
 8003b2e:	685b      	ldr	r3, [r3, #4]
 8003b30:	2b02      	cmp	r3, #2
 8003b32:	d007      	beq.n	8003b44 <HAL_GPIO_Init+0x48>
          (GPIO_Init->Mode == GPIO_MODE_OUTPUT_OD) || (GPIO_Init->Mode == GPIO_MODE_AF_OD))
 8003b34:	683b      	ldr	r3, [r7, #0]
 8003b36:	685b      	ldr	r3, [r3, #4]
      if ((GPIO_Init->Mode == GPIO_MODE_OUTPUT_PP) || (GPIO_Init->Mode == GPIO_MODE_AF_PP) ||
 8003b38:	2b11      	cmp	r3, #17
 8003b3a:	d003      	beq.n	8003b44 <HAL_GPIO_Init+0x48>
          (GPIO_Init->Mode == GPIO_MODE_OUTPUT_OD) || (GPIO_Init->Mode == GPIO_MODE_AF_OD))
 8003b3c:	683b      	ldr	r3, [r7, #0]
 8003b3e:	685b      	ldr	r3, [r3, #4]
 8003b40:	2b12      	cmp	r3, #18
 8003b42:	d130      	bne.n	8003ba6 <HAL_GPIO_Init+0xaa>
      {
        /* Check the Speed parameter */
        assert_param(IS_GPIO_SPEED(GPIO_Init->Speed));
        /* Configure the IO Speed */
        temp = GPIOx->OSPEEDR;
 8003b44:	687b      	ldr	r3, [r7, #4]
 8003b46:	689b      	ldr	r3, [r3, #8]
 8003b48:	613b      	str	r3, [r7, #16]
        temp &= ~(GPIO_OSPEEDR_OSPEED0 << (position * 2u));
 8003b4a:	697b      	ldr	r3, [r7, #20]
 8003b4c:	005b      	lsls	r3, r3, #1
 8003b4e:	2203      	movs	r2, #3
 8003b50:	409a      	lsls	r2, r3
 8003b52:	0013      	movs	r3, r2
 8003b54:	43da      	mvns	r2, r3
 8003b56:	693b      	ldr	r3, [r7, #16]
 8003b58:	4013      	ands	r3, r2
 8003b5a:	613b      	str	r3, [r7, #16]
        temp |= (GPIO_Init->Speed << (position * 2u));
 8003b5c:	683b      	ldr	r3, [r7, #0]
 8003b5e:	68da      	ldr	r2, [r3, #12]
 8003b60:	697b      	ldr	r3, [r7, #20]
 8003b62:	005b      	lsls	r3, r3, #1
 8003b64:	409a      	lsls	r2, r3
 8003b66:	0013      	movs	r3, r2
 8003b68:	693a      	ldr	r2, [r7, #16]
 8003b6a:	4313      	orrs	r3, r2
 8003b6c:	613b      	str	r3, [r7, #16]
        GPIOx->OSPEEDR = temp;
 8003b6e:	687b      	ldr	r3, [r7, #4]
 8003b70:	693a      	ldr	r2, [r7, #16]
 8003b72:	609a      	str	r2, [r3, #8]

        /* Configure the IO Output Type */
        temp = GPIOx->OTYPER;
 8003b74:	687b      	ldr	r3, [r7, #4]
 8003b76:	685b      	ldr	r3, [r3, #4]
 8003b78:	613b      	str	r3, [r7, #16]
        temp &= ~(GPIO_OTYPER_OT0 << position) ;
 8003b7a:	2201      	movs	r2, #1
 8003b7c:	697b      	ldr	r3, [r7, #20]
 8003b7e:	409a      	lsls	r2, r3
 8003b80:	0013      	movs	r3, r2
 8003b82:	43da      	mvns	r2, r3
 8003b84:	693b      	ldr	r3, [r7, #16]
 8003b86:	4013      	ands	r3, r2
 8003b88:	613b      	str	r3, [r7, #16]
        temp |= (((GPIO_Init->Mode & GPIO_OUTPUT_TYPE) >> 4u) << position);
 8003b8a:	683b      	ldr	r3, [r7, #0]
 8003b8c:	685b      	ldr	r3, [r3, #4]
 8003b8e:	091b      	lsrs	r3, r3, #4
 8003b90:	2201      	movs	r2, #1
 8003b92:	401a      	ands	r2, r3
 8003b94:	697b      	ldr	r3, [r7, #20]
 8003b96:	409a      	lsls	r2, r3
 8003b98:	0013      	movs	r3, r2
 8003b9a:	693a      	ldr	r2, [r7, #16]
 8003b9c:	4313      	orrs	r3, r2
 8003b9e:	613b      	str	r3, [r7, #16]
        GPIOx->OTYPER = temp;
 8003ba0:	687b      	ldr	r3, [r7, #4]
 8003ba2:	693a      	ldr	r2, [r7, #16]
 8003ba4:	605a      	str	r2, [r3, #4]
      }

      /* Activate the Pull-up or Pull down resistor for the current IO */
      temp = GPIOx->PUPDR;
 8003ba6:	687b      	ldr	r3, [r7, #4]
 8003ba8:	68db      	ldr	r3, [r3, #12]
 8003baa:	613b      	str	r3, [r7, #16]
      temp &= ~(GPIO_PUPDR_PUPD0 << (position * 2u));
 8003bac:	697b      	ldr	r3, [r7, #20]
 8003bae:	005b      	lsls	r3, r3, #1
 8003bb0:	2203      	movs	r2, #3
 8003bb2:	409a      	lsls	r2, r3
 8003bb4:	0013      	movs	r3, r2
 8003bb6:	43da      	mvns	r2, r3
 8003bb8:	693b      	ldr	r3, [r7, #16]
 8003bba:	4013      	ands	r3, r2
 8003bbc:	613b      	str	r3, [r7, #16]
      temp |= ((GPIO_Init->Pull) << (position * 2u));
 8003bbe:	683b      	ldr	r3, [r7, #0]
 8003bc0:	689a      	ldr	r2, [r3, #8]
 8003bc2:	697b      	ldr	r3, [r7, #20]
 8003bc4:	005b      	lsls	r3, r3, #1
 8003bc6:	409a      	lsls	r2, r3
 8003bc8:	0013      	movs	r3, r2
 8003bca:	693a      	ldr	r2, [r7, #16]
 8003bcc:	4313      	orrs	r3, r2
 8003bce:	613b      	str	r3, [r7, #16]
      GPIOx->PUPDR = temp;
 8003bd0:	687b      	ldr	r3, [r7, #4]
 8003bd2:	693a      	ldr	r2, [r7, #16]
 8003bd4:	60da      	str	r2, [r3, #12]

      /* In case of Alternate function mode selection */
      if ((GPIO_Init->Mode == GPIO_MODE_AF_PP) || (GPIO_Init->Mode == GPIO_MODE_AF_OD))
 8003bd6:	683b      	ldr	r3, [r7, #0]
 8003bd8:	685b      	ldr	r3, [r3, #4]
 8003bda:	2b02      	cmp	r3, #2
 8003bdc:	d003      	beq.n	8003be6 <HAL_GPIO_Init+0xea>
 8003bde:	683b      	ldr	r3, [r7, #0]
 8003be0:	685b      	ldr	r3, [r3, #4]
 8003be2:	2b12      	cmp	r3, #18
 8003be4:	d123      	bne.n	8003c2e <HAL_GPIO_Init+0x132>
        /* Check the Alternate function parameters */
        assert_param(IS_GPIO_AF_INSTANCE(GPIOx));
        assert_param(IS_GPIO_AF(GPIO_Init->Alternate));

        /* Configure Alternate function mapped with the current IO */
        temp = GPIOx->AFR[position >> 3u];
 8003be6:	697b      	ldr	r3, [r7, #20]
 8003be8:	08da      	lsrs	r2, r3, #3
 8003bea:	687b      	ldr	r3, [r7, #4]
 8003bec:	3208      	adds	r2, #8
 8003bee:	0092      	lsls	r2, r2, #2
 8003bf0:	58d3      	ldr	r3, [r2, r3]
 8003bf2:	613b      	str	r3, [r7, #16]
        temp &= ~(0xFu << ((position & 0x07u) * 4u));
 8003bf4:	697b      	ldr	r3, [r7, #20]
 8003bf6:	2207      	movs	r2, #7
 8003bf8:	4013      	ands	r3, r2
 8003bfa:	009b      	lsls	r3, r3, #2
 8003bfc:	220f      	movs	r2, #15
 8003bfe:	409a      	lsls	r2, r3
 8003c00:	0013      	movs	r3, r2
 8003c02:	43da      	mvns	r2, r3
 8003c04:	693b      	ldr	r3, [r7, #16]
 8003c06:	4013      	ands	r3, r2
 8003c08:	613b      	str	r3, [r7, #16]
        temp |= ((GPIO_Init->Alternate) << ((position & 0x07u) * 4u));
 8003c0a:	683b      	ldr	r3, [r7, #0]
 8003c0c:	691a      	ldr	r2, [r3, #16]
 8003c0e:	697b      	ldr	r3, [r7, #20]
 8003c10:	2107      	movs	r1, #7
 8003c12:	400b      	ands	r3, r1
 8003c14:	009b      	lsls	r3, r3, #2
 8003c16:	409a      	lsls	r2, r3
 8003c18:	0013      	movs	r3, r2
 8003c1a:	693a      	ldr	r2, [r7, #16]
 8003c1c:	4313      	orrs	r3, r2
 8003c1e:	613b      	str	r3, [r7, #16]
        GPIOx->AFR[position >> 3u] = temp;
 8003c20:	697b      	ldr	r3, [r7, #20]
 8003c22:	08da      	lsrs	r2, r3, #3
 8003c24:	687b      	ldr	r3, [r7, #4]
 8003c26:	3208      	adds	r2, #8
 8003c28:	0092      	lsls	r2, r2, #2
 8003c2a:	6939      	ldr	r1, [r7, #16]
 8003c2c:	50d1      	str	r1, [r2, r3]
      }

      /* Configure IO Direction mode (Input, Output, Alternate or Analog) */
      temp = GPIOx->MODER;
 8003c2e:	687b      	ldr	r3, [r7, #4]
 8003c30:	681b      	ldr	r3, [r3, #0]
 8003c32:	613b      	str	r3, [r7, #16]
      temp &= ~(GPIO_MODER_MODE0 << (position * 2u));
 8003c34:	697b      	ldr	r3, [r7, #20]
 8003c36:	005b      	lsls	r3, r3, #1
 8003c38:	2203      	movs	r2, #3
 8003c3a:	409a      	lsls	r2, r3
 8003c3c:	0013      	movs	r3, r2
 8003c3e:	43da      	mvns	r2, r3
 8003c40:	693b      	ldr	r3, [r7, #16]
 8003c42:	4013      	ands	r3, r2
 8003c44:	613b      	str	r3, [r7, #16]
      temp |= ((GPIO_Init->Mode & GPIO_MODE) << (position * 2u));
 8003c46:	683b      	ldr	r3, [r7, #0]
 8003c48:	685b      	ldr	r3, [r3, #4]
 8003c4a:	2203      	movs	r2, #3
 8003c4c:	401a      	ands	r2, r3
 8003c4e:	697b      	ldr	r3, [r7, #20]
 8003c50:	005b      	lsls	r3, r3, #1
 8003c52:	409a      	lsls	r2, r3
 8003c54:	0013      	movs	r3, r2
 8003c56:	693a      	ldr	r2, [r7, #16]
 8003c58:	4313      	orrs	r3, r2
 8003c5a:	613b      	str	r3, [r7, #16]
      GPIOx->MODER = temp;
 8003c5c:	687b      	ldr	r3, [r7, #4]
 8003c5e:	693a      	ldr	r2, [r7, #16]
 8003c60:	601a      	str	r2, [r3, #0]

      /*--------------------- EXTI Mode Configuration ------------------------*/
      /* Configure the External Interrupt or event for the current IO */
      if ((GPIO_Init->Mode & EXTI_MODE) == EXTI_MODE)
 8003c62:	683b      	ldr	r3, [r7, #0]
 8003c64:	685a      	ldr	r2, [r3, #4]
 8003c66:	2380      	movs	r3, #128	; 0x80
 8003c68:	055b      	lsls	r3, r3, #21
 8003c6a:	4013      	ands	r3, r2
 8003c6c:	d100      	bne.n	8003c70 <HAL_GPIO_Init+0x174>
 8003c6e:	e092      	b.n	8003d96 <HAL_GPIO_Init+0x29a>
      {
        temp = EXTI->EXTICR[position >> 2u];
 8003c70:	4a50      	ldr	r2, [pc, #320]	; (8003db4 <HAL_GPIO_Init+0x2b8>)
 8003c72:	697b      	ldr	r3, [r7, #20]
 8003c74:	089b      	lsrs	r3, r3, #2
 8003c76:	3318      	adds	r3, #24
 8003c78:	009b      	lsls	r3, r3, #2
 8003c7a:	589b      	ldr	r3, [r3, r2]
 8003c7c:	613b      	str	r3, [r7, #16]
        temp &= ~(0x0FuL << (8u * (position & 0x03u)));
 8003c7e:	697b      	ldr	r3, [r7, #20]
 8003c80:	2203      	movs	r2, #3
 8003c82:	4013      	ands	r3, r2
 8003c84:	00db      	lsls	r3, r3, #3
 8003c86:	220f      	movs	r2, #15
 8003c88:	409a      	lsls	r2, r3
 8003c8a:	0013      	movs	r3, r2
 8003c8c:	43da      	mvns	r2, r3
 8003c8e:	693b      	ldr	r3, [r7, #16]
 8003c90:	4013      	ands	r3, r2
 8003c92:	613b      	str	r3, [r7, #16]
        temp |= (GPIO_GET_INDEX(GPIOx) << (8u * (position & 0x03u)));
 8003c94:	687a      	ldr	r2, [r7, #4]
 8003c96:	23a0      	movs	r3, #160	; 0xa0
 8003c98:	05db      	lsls	r3, r3, #23
 8003c9a:	429a      	cmp	r2, r3
 8003c9c:	d013      	beq.n	8003cc6 <HAL_GPIO_Init+0x1ca>
 8003c9e:	687b      	ldr	r3, [r7, #4]
 8003ca0:	4a45      	ldr	r2, [pc, #276]	; (8003db8 <HAL_GPIO_Init+0x2bc>)
 8003ca2:	4293      	cmp	r3, r2
 8003ca4:	d00d      	beq.n	8003cc2 <HAL_GPIO_Init+0x1c6>
 8003ca6:	687b      	ldr	r3, [r7, #4]
 8003ca8:	4a44      	ldr	r2, [pc, #272]	; (8003dbc <HAL_GPIO_Init+0x2c0>)
 8003caa:	4293      	cmp	r3, r2
 8003cac:	d007      	beq.n	8003cbe <HAL_GPIO_Init+0x1c2>
 8003cae:	687b      	ldr	r3, [r7, #4]
 8003cb0:	4a43      	ldr	r2, [pc, #268]	; (8003dc0 <HAL_GPIO_Init+0x2c4>)
 8003cb2:	4293      	cmp	r3, r2
 8003cb4:	d101      	bne.n	8003cba <HAL_GPIO_Init+0x1be>
 8003cb6:	2303      	movs	r3, #3
 8003cb8:	e006      	b.n	8003cc8 <HAL_GPIO_Init+0x1cc>
 8003cba:	2305      	movs	r3, #5
 8003cbc:	e004      	b.n	8003cc8 <HAL_GPIO_Init+0x1cc>
 8003cbe:	2302      	movs	r3, #2
 8003cc0:	e002      	b.n	8003cc8 <HAL_GPIO_Init+0x1cc>
 8003cc2:	2301      	movs	r3, #1
 8003cc4:	e000      	b.n	8003cc8 <HAL_GPIO_Init+0x1cc>
 8003cc6:	2300      	movs	r3, #0
 8003cc8:	697a      	ldr	r2, [r7, #20]
 8003cca:	2103      	movs	r1, #3
 8003ccc:	400a      	ands	r2, r1
 8003cce:	00d2      	lsls	r2, r2, #3
 8003cd0:	4093      	lsls	r3, r2
 8003cd2:	693a      	ldr	r2, [r7, #16]
 8003cd4:	4313      	orrs	r3, r2
 8003cd6:	613b      	str	r3, [r7, #16]
        EXTI->EXTICR[position >> 2u] = temp;
 8003cd8:	4936      	ldr	r1, [pc, #216]	; (8003db4 <HAL_GPIO_Init+0x2b8>)
 8003cda:	697b      	ldr	r3, [r7, #20]
 8003cdc:	089b      	lsrs	r3, r3, #2
 8003cde:	3318      	adds	r3, #24
 8003ce0:	009b      	lsls	r3, r3, #2
 8003ce2:	693a      	ldr	r2, [r7, #16]
 8003ce4:	505a      	str	r2, [r3, r1]

        /* Clear EXTI line configuration */
        temp = EXTI->IMR1;
 8003ce6:	4a33      	ldr	r2, [pc, #204]	; (8003db4 <HAL_GPIO_Init+0x2b8>)
 8003ce8:	2380      	movs	r3, #128	; 0x80
 8003cea:	58d3      	ldr	r3, [r2, r3]
 8003cec:	613b      	str	r3, [r7, #16]
        temp &= ~(iocurrent);
 8003cee:	68fb      	ldr	r3, [r7, #12]
 8003cf0:	43da      	mvns	r2, r3
 8003cf2:	693b      	ldr	r3, [r7, #16]
 8003cf4:	4013      	ands	r3, r2
 8003cf6:	613b      	str	r3, [r7, #16]
        if ((GPIO_Init->Mode & GPIO_MODE_IT) == GPIO_MODE_IT)
 8003cf8:	683b      	ldr	r3, [r7, #0]
 8003cfa:	685a      	ldr	r2, [r3, #4]
 8003cfc:	2380      	movs	r3, #128	; 0x80
 8003cfe:	025b      	lsls	r3, r3, #9
 8003d00:	4013      	ands	r3, r2
 8003d02:	d003      	beq.n	8003d0c <HAL_GPIO_Init+0x210>
        {
          temp |= iocurrent;
 8003d04:	693a      	ldr	r2, [r7, #16]
 8003d06:	68fb      	ldr	r3, [r7, #12]
 8003d08:	4313      	orrs	r3, r2
 8003d0a:	613b      	str	r3, [r7, #16]
        }
        EXTI->IMR1 = temp;
 8003d0c:	4929      	ldr	r1, [pc, #164]	; (8003db4 <HAL_GPIO_Init+0x2b8>)
 8003d0e:	2280      	movs	r2, #128	; 0x80
 8003d10:	693b      	ldr	r3, [r7, #16]
 8003d12:	508b      	str	r3, [r1, r2]

        temp = EXTI->EMR1;
 8003d14:	4a27      	ldr	r2, [pc, #156]	; (8003db4 <HAL_GPIO_Init+0x2b8>)
 8003d16:	2384      	movs	r3, #132	; 0x84
 8003d18:	58d3      	ldr	r3, [r2, r3]
 8003d1a:	613b      	str	r3, [r7, #16]
        temp &= ~(iocurrent);
 8003d1c:	68fb      	ldr	r3, [r7, #12]
 8003d1e:	43da      	mvns	r2, r3
 8003d20:	693b      	ldr	r3, [r7, #16]
 8003d22:	4013      	ands	r3, r2
 8003d24:	613b      	str	r3, [r7, #16]
        if ((GPIO_Init->Mode & GPIO_MODE_EVT) == GPIO_MODE_EVT)
 8003d26:	683b      	ldr	r3, [r7, #0]
 8003d28:	685a      	ldr	r2, [r3, #4]
 8003d2a:	2380      	movs	r3, #128	; 0x80
 8003d2c:	029b      	lsls	r3, r3, #10
 8003d2e:	4013      	ands	r3, r2
 8003d30:	d003      	beq.n	8003d3a <HAL_GPIO_Init+0x23e>
        {
          temp |= iocurrent;
 8003d32:	693a      	ldr	r2, [r7, #16]
 8003d34:	68fb      	ldr	r3, [r7, #12]
 8003d36:	4313      	orrs	r3, r2
 8003d38:	613b      	str	r3, [r7, #16]
        }
        EXTI->EMR1 = temp;
 8003d3a:	491e      	ldr	r1, [pc, #120]	; (8003db4 <HAL_GPIO_Init+0x2b8>)
 8003d3c:	2284      	movs	r2, #132	; 0x84
 8003d3e:	693b      	ldr	r3, [r7, #16]
 8003d40:	508b      	str	r3, [r1, r2]

        /* Clear Rising Falling edge configuration */
        temp = EXTI->RTSR1;
 8003d42:	4b1c      	ldr	r3, [pc, #112]	; (8003db4 <HAL_GPIO_Init+0x2b8>)
 8003d44:	681b      	ldr	r3, [r3, #0]
 8003d46:	613b      	str	r3, [r7, #16]
        temp &= ~(iocurrent);
 8003d48:	68fb      	ldr	r3, [r7, #12]
 8003d4a:	43da      	mvns	r2, r3
 8003d4c:	693b      	ldr	r3, [r7, #16]
 8003d4e:	4013      	ands	r3, r2
 8003d50:	613b      	str	r3, [r7, #16]
        if ((GPIO_Init->Mode & RISING_EDGE) == RISING_EDGE)
 8003d52:	683b      	ldr	r3, [r7, #0]
 8003d54:	685a      	ldr	r2, [r3, #4]
 8003d56:	2380      	movs	r3, #128	; 0x80
 8003d58:	035b      	lsls	r3, r3, #13
 8003d5a:	4013      	ands	r3, r2
 8003d5c:	d003      	beq.n	8003d66 <HAL_GPIO_Init+0x26a>
        {
          temp |= iocurrent;
 8003d5e:	693a      	ldr	r2, [r7, #16]
 8003d60:	68fb      	ldr	r3, [r7, #12]
 8003d62:	4313      	orrs	r3, r2
 8003d64:	613b      	str	r3, [r7, #16]
        }
        EXTI->RTSR1 = temp;
 8003d66:	4b13      	ldr	r3, [pc, #76]	; (8003db4 <HAL_GPIO_Init+0x2b8>)
 8003d68:	693a      	ldr	r2, [r7, #16]
 8003d6a:	601a      	str	r2, [r3, #0]

        temp = EXTI->FTSR1;
 8003d6c:	4b11      	ldr	r3, [pc, #68]	; (8003db4 <HAL_GPIO_Init+0x2b8>)
 8003d6e:	685b      	ldr	r3, [r3, #4]
 8003d70:	613b      	str	r3, [r7, #16]
        temp &= ~(iocurrent);
 8003d72:	68fb      	ldr	r3, [r7, #12]
 8003d74:	43da      	mvns	r2, r3
 8003d76:	693b      	ldr	r3, [r7, #16]
 8003d78:	4013      	ands	r3, r2
 8003d7a:	613b      	str	r3, [r7, #16]
        if ((GPIO_Init->Mode & FALLING_EDGE) == FALLING_EDGE)
 8003d7c:	683b      	ldr	r3, [r7, #0]
 8003d7e:	685a      	ldr	r2, [r3, #4]
 8003d80:	2380      	movs	r3, #128	; 0x80
 8003d82:	039b      	lsls	r3, r3, #14
 8003d84:	4013      	ands	r3, r2
 8003d86:	d003      	beq.n	8003d90 <HAL_GPIO_Init+0x294>
        {
          temp |= iocurrent;
 8003d88:	693a      	ldr	r2, [r7, #16]
 8003d8a:	68fb      	ldr	r3, [r7, #12]
 8003d8c:	4313      	orrs	r3, r2
 8003d8e:	613b      	str	r3, [r7, #16]
        }
        EXTI->FTSR1 = temp;
 8003d90:	4b08      	ldr	r3, [pc, #32]	; (8003db4 <HAL_GPIO_Init+0x2b8>)
 8003d92:	693a      	ldr	r2, [r7, #16]
 8003d94:	605a      	str	r2, [r3, #4]
      }
    }

    position++;
 8003d96:	697b      	ldr	r3, [r7, #20]
 8003d98:	3301      	adds	r3, #1
 8003d9a:	617b      	str	r3, [r7, #20]
  while (((GPIO_Init->Pin) >> position) != 0x00u)
 8003d9c:	683b      	ldr	r3, [r7, #0]
 8003d9e:	681a      	ldr	r2, [r3, #0]
 8003da0:	697b      	ldr	r3, [r7, #20]
 8003da2:	40da      	lsrs	r2, r3
 8003da4:	1e13      	subs	r3, r2, #0
 8003da6:	d000      	beq.n	8003daa <HAL_GPIO_Init+0x2ae>
 8003da8:	e6b0      	b.n	8003b0c <HAL_GPIO_Init+0x10>
  }
}
 8003daa:	46c0      	nop			; (mov r8, r8)
 8003dac:	46bd      	mov	sp, r7
 8003dae:	b006      	add	sp, #24
 8003db0:	bd80      	pop	{r7, pc}
 8003db2:	46c0      	nop			; (mov r8, r8)
 8003db4:	40021800 	.word	0x40021800
 8003db8:	50000400 	.word	0x50000400
 8003dbc:	50000800 	.word	0x50000800
 8003dc0:	50000c00 	.word	0x50000c00

08003dc4 <HAL_GPIO_ReadPin>:
  * @param  GPIO_Pin specifies the port bit to read.
  *         This parameter can be any combination of GPIO_Pin_x where x can be (0..15).
  * @retval The input port pin value.
  */
GPIO_PinState HAL_GPIO_ReadPin(GPIO_TypeDef *GPIOx, uint16_t GPIO_Pin)
{
 8003dc4:	b580      	push	{r7, lr}
 8003dc6:	b084      	sub	sp, #16
 8003dc8:	af00      	add	r7, sp, #0
 8003dca:	6078      	str	r0, [r7, #4]
 8003dcc:	000a      	movs	r2, r1
 8003dce:	1cbb      	adds	r3, r7, #2
 8003dd0:	801a      	strh	r2, [r3, #0]
  GPIO_PinState bitstatus;

  /* Check the parameters */
  assert_param(IS_GPIO_PIN(GPIO_Pin));

  if ((GPIOx->IDR & GPIO_Pin) != 0x00u)
 8003dd2:	687b      	ldr	r3, [r7, #4]
 8003dd4:	691b      	ldr	r3, [r3, #16]
 8003dd6:	1cba      	adds	r2, r7, #2
 8003dd8:	8812      	ldrh	r2, [r2, #0]
 8003dda:	4013      	ands	r3, r2
 8003ddc:	d004      	beq.n	8003de8 <HAL_GPIO_ReadPin+0x24>
  {
    bitstatus = GPIO_PIN_SET;
 8003dde:	230f      	movs	r3, #15
 8003de0:	18fb      	adds	r3, r7, r3
 8003de2:	2201      	movs	r2, #1
 8003de4:	701a      	strb	r2, [r3, #0]
 8003de6:	e003      	b.n	8003df0 <HAL_GPIO_ReadPin+0x2c>
  }
  else
  {
    bitstatus = GPIO_PIN_RESET;
 8003de8:	230f      	movs	r3, #15
 8003dea:	18fb      	adds	r3, r7, r3
 8003dec:	2200      	movs	r2, #0
 8003dee:	701a      	strb	r2, [r3, #0]
  }
  return bitstatus;
 8003df0:	230f      	movs	r3, #15
 8003df2:	18fb      	adds	r3, r7, r3
 8003df4:	781b      	ldrb	r3, [r3, #0]
}
 8003df6:	0018      	movs	r0, r3
 8003df8:	46bd      	mov	sp, r7
 8003dfa:	b004      	add	sp, #16
 8003dfc:	bd80      	pop	{r7, pc}

08003dfe <HAL_GPIO_WritePin>:
  *            @arg GPIO_PIN_RESET: to clear the port pin
  *            @arg GPIO_PIN_SET: to set the port pin
  * @retval None
  */
void HAL_GPIO_WritePin(GPIO_TypeDef *GPIOx, uint16_t GPIO_Pin, GPIO_PinState PinState)
{
 8003dfe:	b580      	push	{r7, lr}
 8003e00:	b082      	sub	sp, #8
 8003e02:	af00      	add	r7, sp, #0
 8003e04:	6078      	str	r0, [r7, #4]
 8003e06:	0008      	movs	r0, r1
 8003e08:	0011      	movs	r1, r2
 8003e0a:	1cbb      	adds	r3, r7, #2
 8003e0c:	1c02      	adds	r2, r0, #0
 8003e0e:	801a      	strh	r2, [r3, #0]
 8003e10:	1c7b      	adds	r3, r7, #1
 8003e12:	1c0a      	adds	r2, r1, #0
 8003e14:	701a      	strb	r2, [r3, #0]
  /* Check the parameters */
  assert_param(IS_GPIO_PIN(GPIO_Pin));
  assert_param(IS_GPIO_PIN_ACTION(PinState));

  if (PinState != GPIO_PIN_RESET)
 8003e16:	1c7b      	adds	r3, r7, #1
 8003e18:	781b      	ldrb	r3, [r3, #0]
 8003e1a:	2b00      	cmp	r3, #0
 8003e1c:	d004      	beq.n	8003e28 <HAL_GPIO_WritePin+0x2a>
  {
    GPIOx->BSRR = (uint32_t)GPIO_Pin;
 8003e1e:	1cbb      	adds	r3, r7, #2
 8003e20:	881a      	ldrh	r2, [r3, #0]
 8003e22:	687b      	ldr	r3, [r7, #4]
 8003e24:	619a      	str	r2, [r3, #24]
  }
  else
  {
    GPIOx->BRR = (uint32_t)GPIO_Pin;
  }
}
 8003e26:	e003      	b.n	8003e30 <HAL_GPIO_WritePin+0x32>
    GPIOx->BRR = (uint32_t)GPIO_Pin;
 8003e28:	1cbb      	adds	r3, r7, #2
 8003e2a:	881a      	ldrh	r2, [r3, #0]
 8003e2c:	687b      	ldr	r3, [r7, #4]
 8003e2e:	629a      	str	r2, [r3, #40]	; 0x28
}
 8003e30:	46c0      	nop			; (mov r8, r8)
 8003e32:	46bd      	mov	sp, r7
 8003e34:	b002      	add	sp, #8
 8003e36:	bd80      	pop	{r7, pc}

08003e38 <HAL_GPIO_TogglePin>:
  * @param  GPIO_Pin specifies the pin to be toggled.
  *         This parameter can be any combination of GPIO_Pin_x where x can be (0..15).
  * @retval None
  */
void HAL_GPIO_TogglePin(GPIO_TypeDef *GPIOx, uint16_t GPIO_Pin)
{
 8003e38:	b580      	push	{r7, lr}
 8003e3a:	b084      	sub	sp, #16
 8003e3c:	af00      	add	r7, sp, #0
 8003e3e:	6078      	str	r0, [r7, #4]
 8003e40:	000a      	movs	r2, r1
 8003e42:	1cbb      	adds	r3, r7, #2
 8003e44:	801a      	strh	r2, [r3, #0]

  /* Check the parameters */
  assert_param(IS_GPIO_PIN(GPIO_Pin));

  /* get current Output Data Register value */
  odr = GPIOx->ODR;
 8003e46:	687b      	ldr	r3, [r7, #4]
 8003e48:	695b      	ldr	r3, [r3, #20]
 8003e4a:	60fb      	str	r3, [r7, #12]

  /* Set selected pins that were at low level, and reset ones that were high */
  GPIOx->BSRR = ((odr & GPIO_Pin) << GPIO_NUMBER) | (~odr & GPIO_Pin);
 8003e4c:	1cbb      	adds	r3, r7, #2
 8003e4e:	881b      	ldrh	r3, [r3, #0]
 8003e50:	68fa      	ldr	r2, [r7, #12]
 8003e52:	4013      	ands	r3, r2
 8003e54:	041a      	lsls	r2, r3, #16
 8003e56:	68fb      	ldr	r3, [r7, #12]
 8003e58:	43db      	mvns	r3, r3
 8003e5a:	1cb9      	adds	r1, r7, #2
 8003e5c:	8809      	ldrh	r1, [r1, #0]
 8003e5e:	400b      	ands	r3, r1
 8003e60:	431a      	orrs	r2, r3
 8003e62:	687b      	ldr	r3, [r7, #4]
 8003e64:	619a      	str	r2, [r3, #24]
}
 8003e66:	46c0      	nop			; (mov r8, r8)
 8003e68:	46bd      	mov	sp, r7
 8003e6a:	b004      	add	sp, #16
 8003e6c:	bd80      	pop	{r7, pc}
	...

08003e70 <HAL_GPIO_EXTI_IRQHandler>:
  * @brief  Handle EXTI interrupt request.
  * @param  GPIO_Pin Specifies the port pin connected to corresponding EXTI line.
  * @retval None
  */
void HAL_GPIO_EXTI_IRQHandler(uint16_t GPIO_Pin)
{
 8003e70:	b580      	push	{r7, lr}
 8003e72:	b082      	sub	sp, #8
 8003e74:	af00      	add	r7, sp, #0
 8003e76:	0002      	movs	r2, r0
 8003e78:	1dbb      	adds	r3, r7, #6
 8003e7a:	801a      	strh	r2, [r3, #0]
  /* EXTI line interrupt detected */
  if (__HAL_GPIO_EXTI_GET_RISING_IT(GPIO_Pin) != 0x00u)
 8003e7c:	4b10      	ldr	r3, [pc, #64]	; (8003ec0 <HAL_GPIO_EXTI_IRQHandler+0x50>)
 8003e7e:	68db      	ldr	r3, [r3, #12]
 8003e80:	1dba      	adds	r2, r7, #6
 8003e82:	8812      	ldrh	r2, [r2, #0]
 8003e84:	4013      	ands	r3, r2
 8003e86:	d008      	beq.n	8003e9a <HAL_GPIO_EXTI_IRQHandler+0x2a>
  {
    __HAL_GPIO_EXTI_CLEAR_RISING_IT(GPIO_Pin);
 8003e88:	4b0d      	ldr	r3, [pc, #52]	; (8003ec0 <HAL_GPIO_EXTI_IRQHandler+0x50>)
 8003e8a:	1dba      	adds	r2, r7, #6
 8003e8c:	8812      	ldrh	r2, [r2, #0]
 8003e8e:	60da      	str	r2, [r3, #12]
    HAL_GPIO_EXTI_Rising_Callback(GPIO_Pin);
 8003e90:	1dbb      	adds	r3, r7, #6
 8003e92:	881b      	ldrh	r3, [r3, #0]
 8003e94:	0018      	movs	r0, r3
 8003e96:	f7fc ff81 	bl	8000d9c <HAL_GPIO_EXTI_Rising_Callback>
  }

  if (__HAL_GPIO_EXTI_GET_FALLING_IT(GPIO_Pin) != 0x00u)
 8003e9a:	4b09      	ldr	r3, [pc, #36]	; (8003ec0 <HAL_GPIO_EXTI_IRQHandler+0x50>)
 8003e9c:	691b      	ldr	r3, [r3, #16]
 8003e9e:	1dba      	adds	r2, r7, #6
 8003ea0:	8812      	ldrh	r2, [r2, #0]
 8003ea2:	4013      	ands	r3, r2
 8003ea4:	d008      	beq.n	8003eb8 <HAL_GPIO_EXTI_IRQHandler+0x48>
  {
    __HAL_GPIO_EXTI_CLEAR_FALLING_IT(GPIO_Pin);
 8003ea6:	4b06      	ldr	r3, [pc, #24]	; (8003ec0 <HAL_GPIO_EXTI_IRQHandler+0x50>)
 8003ea8:	1dba      	adds	r2, r7, #6
 8003eaa:	8812      	ldrh	r2, [r2, #0]
 8003eac:	611a      	str	r2, [r3, #16]
    HAL_GPIO_EXTI_Falling_Callback(GPIO_Pin);
 8003eae:	1dbb      	adds	r3, r7, #6
 8003eb0:	881b      	ldrh	r3, [r3, #0]
 8003eb2:	0018      	movs	r0, r3
 8003eb4:	f7fc ff3c 	bl	8000d30 <HAL_GPIO_EXTI_Falling_Callback>
  }
}
 8003eb8:	46c0      	nop			; (mov r8, r8)
 8003eba:	46bd      	mov	sp, r7
 8003ebc:	b002      	add	sp, #8
 8003ebe:	bd80      	pop	{r7, pc}
 8003ec0:	40021800 	.word	0x40021800

08003ec4 <HAL_PWREx_ControlVoltageScaling>:
  *        cleared before returning the status. If the flag is not cleared within
  *        6 microseconds, HAL_TIMEOUT status is reported.
  * @retval HAL Status
  */
HAL_StatusTypeDef HAL_PWREx_ControlVoltageScaling(uint32_t VoltageScaling)
{
 8003ec4:	b580      	push	{r7, lr}
 8003ec6:	b084      	sub	sp, #16
 8003ec8:	af00      	add	r7, sp, #0
 8003eca:	6078      	str	r0, [r7, #4]
  uint32_t wait_loop_index;

  assert_param(IS_PWR_VOLTAGE_SCALING_RANGE(VoltageScaling));

  /* Modify voltage scaling range */
  MODIFY_REG(PWR->CR1, PWR_CR1_VOS, VoltageScaling);
 8003ecc:	4b19      	ldr	r3, [pc, #100]	; (8003f34 <HAL_PWREx_ControlVoltageScaling+0x70>)
 8003ece:	681b      	ldr	r3, [r3, #0]
 8003ed0:	4a19      	ldr	r2, [pc, #100]	; (8003f38 <HAL_PWREx_ControlVoltageScaling+0x74>)
 8003ed2:	4013      	ands	r3, r2
 8003ed4:	0019      	movs	r1, r3
 8003ed6:	4b17      	ldr	r3, [pc, #92]	; (8003f34 <HAL_PWREx_ControlVoltageScaling+0x70>)
 8003ed8:	687a      	ldr	r2, [r7, #4]
 8003eda:	430a      	orrs	r2, r1
 8003edc:	601a      	str	r2, [r3, #0]

  /* In case of Range 1 selected, we need to ensure that main regulator reaches new value */
  if(VoltageScaling == PWR_REGULATOR_VOLTAGE_SCALE1)
 8003ede:	687a      	ldr	r2, [r7, #4]
 8003ee0:	2380      	movs	r3, #128	; 0x80
 8003ee2:	009b      	lsls	r3, r3, #2
 8003ee4:	429a      	cmp	r2, r3
 8003ee6:	d11f      	bne.n	8003f28 <HAL_PWREx_ControlVoltageScaling+0x64>
  {
    /* Set timeout value */
    wait_loop_index = ((PWR_VOSF_SETTING_DELAY_6_US * SystemCoreClock ) / 1000000U) + 1U;
 8003ee8:	4b14      	ldr	r3, [pc, #80]	; (8003f3c <HAL_PWREx_ControlVoltageScaling+0x78>)
 8003eea:	681a      	ldr	r2, [r3, #0]
 8003eec:	0013      	movs	r3, r2
 8003eee:	005b      	lsls	r3, r3, #1
 8003ef0:	189b      	adds	r3, r3, r2
 8003ef2:	005b      	lsls	r3, r3, #1
 8003ef4:	4912      	ldr	r1, [pc, #72]	; (8003f40 <HAL_PWREx_ControlVoltageScaling+0x7c>)
 8003ef6:	0018      	movs	r0, r3
 8003ef8:	f7fc f906 	bl	8000108 <__udivsi3>
 8003efc:	0003      	movs	r3, r0
 8003efe:	3301      	adds	r3, #1
 8003f00:	60fb      	str	r3, [r7, #12]

    /* Wait until VOSF is reset */
    while(HAL_IS_BIT_SET(PWR->SR2, PWR_SR2_VOSF))
 8003f02:	e008      	b.n	8003f16 <HAL_PWREx_ControlVoltageScaling+0x52>
    {
      if(wait_loop_index != 0U)
 8003f04:	68fb      	ldr	r3, [r7, #12]
 8003f06:	2b00      	cmp	r3, #0
 8003f08:	d003      	beq.n	8003f12 <HAL_PWREx_ControlVoltageScaling+0x4e>
      {
        wait_loop_index--;
 8003f0a:	68fb      	ldr	r3, [r7, #12]
 8003f0c:	3b01      	subs	r3, #1
 8003f0e:	60fb      	str	r3, [r7, #12]
 8003f10:	e001      	b.n	8003f16 <HAL_PWREx_ControlVoltageScaling+0x52>
      }
      else
      {
        return HAL_TIMEOUT;
 8003f12:	2303      	movs	r3, #3
 8003f14:	e009      	b.n	8003f2a <HAL_PWREx_ControlVoltageScaling+0x66>
    while(HAL_IS_BIT_SET(PWR->SR2, PWR_SR2_VOSF))
 8003f16:	4b07      	ldr	r3, [pc, #28]	; (8003f34 <HAL_PWREx_ControlVoltageScaling+0x70>)
 8003f18:	695a      	ldr	r2, [r3, #20]
 8003f1a:	2380      	movs	r3, #128	; 0x80
 8003f1c:	00db      	lsls	r3, r3, #3
 8003f1e:	401a      	ands	r2, r3
 8003f20:	2380      	movs	r3, #128	; 0x80
 8003f22:	00db      	lsls	r3, r3, #3
 8003f24:	429a      	cmp	r2, r3
 8003f26:	d0ed      	beq.n	8003f04 <HAL_PWREx_ControlVoltageScaling+0x40>
      }
    }
  }

  return HAL_OK;
 8003f28:	2300      	movs	r3, #0
}
 8003f2a:	0018      	movs	r0, r3
 8003f2c:	46bd      	mov	sp, r7
 8003f2e:	b004      	add	sp, #16
 8003f30:	bd80      	pop	{r7, pc}
 8003f32:	46c0      	nop			; (mov r8, r8)
 8003f34:	40007000 	.word	0x40007000
 8003f38:	fffff9ff 	.word	0xfffff9ff
 8003f3c:	20000000 	.word	0x20000000
 8003f40:	000f4240 	.word	0x000f4240

08003f44 <HAL_RCC_OscConfig>:
  *         supported by this function. User should request a transition to LSE Off
  *         first and then to LSE On or LSE Bypass.
  * @retval HAL status
  */
HAL_StatusTypeDef HAL_RCC_OscConfig(RCC_OscInitTypeDef  *RCC_OscInitStruct)
{
 8003f44:	b580      	push	{r7, lr}
 8003f46:	b088      	sub	sp, #32
 8003f48:	af00      	add	r7, sp, #0
 8003f4a:	6078      	str	r0, [r7, #4]
  uint32_t tickstart;
  uint32_t temp_sysclksrc;
  uint32_t temp_pllckcfg;

  /* Check Null pointer */
  if (RCC_OscInitStruct == NULL)
 8003f4c:	687b      	ldr	r3, [r7, #4]
 8003f4e:	2b00      	cmp	r3, #0
 8003f50:	d101      	bne.n	8003f56 <HAL_RCC_OscConfig+0x12>
  {
    return HAL_ERROR;
 8003f52:	2301      	movs	r3, #1
 8003f54:	e304      	b.n	8004560 <HAL_RCC_OscConfig+0x61c>

  /* Check the parameters */
  assert_param(IS_RCC_OSCILLATORTYPE(RCC_OscInitStruct->OscillatorType));

  /*------------------------------- HSE Configuration ------------------------*/
  if (((RCC_OscInitStruct->OscillatorType) & RCC_OSCILLATORTYPE_HSE) == RCC_OSCILLATORTYPE_HSE)
 8003f56:	687b      	ldr	r3, [r7, #4]
 8003f58:	681b      	ldr	r3, [r3, #0]
 8003f5a:	2201      	movs	r2, #1
 8003f5c:	4013      	ands	r3, r2
 8003f5e:	d100      	bne.n	8003f62 <HAL_RCC_OscConfig+0x1e>
 8003f60:	e07c      	b.n	800405c <HAL_RCC_OscConfig+0x118>
  {
    /* Check the parameters */
    assert_param(IS_RCC_HSE(RCC_OscInitStruct->HSEState));

    temp_sysclksrc = __HAL_RCC_GET_SYSCLK_SOURCE();
 8003f62:	4bc3      	ldr	r3, [pc, #780]	; (8004270 <HAL_RCC_OscConfig+0x32c>)
 8003f64:	689b      	ldr	r3, [r3, #8]
 8003f66:	2238      	movs	r2, #56	; 0x38
 8003f68:	4013      	ands	r3, r2
 8003f6a:	61bb      	str	r3, [r7, #24]
    temp_pllckcfg = __HAL_RCC_GET_PLL_OSCSOURCE();
 8003f6c:	4bc0      	ldr	r3, [pc, #768]	; (8004270 <HAL_RCC_OscConfig+0x32c>)
 8003f6e:	68db      	ldr	r3, [r3, #12]
 8003f70:	2203      	movs	r2, #3
 8003f72:	4013      	ands	r3, r2
 8003f74:	617b      	str	r3, [r7, #20]

    /* When the HSE is used as system clock or clock source for PLL in these cases it is not allowed to be disabled */
    if (((temp_sysclksrc == RCC_SYSCLKSOURCE_STATUS_PLLCLK) && (temp_pllckcfg == RCC_PLLSOURCE_HSE)) || (temp_sysclksrc == RCC_SYSCLKSOURCE_STATUS_HSE))
 8003f76:	69bb      	ldr	r3, [r7, #24]
 8003f78:	2b10      	cmp	r3, #16
 8003f7a:	d102      	bne.n	8003f82 <HAL_RCC_OscConfig+0x3e>
 8003f7c:	697b      	ldr	r3, [r7, #20]
 8003f7e:	2b03      	cmp	r3, #3
 8003f80:	d002      	beq.n	8003f88 <HAL_RCC_OscConfig+0x44>
 8003f82:	69bb      	ldr	r3, [r7, #24]
 8003f84:	2b08      	cmp	r3, #8
 8003f86:	d10b      	bne.n	8003fa0 <HAL_RCC_OscConfig+0x5c>
    {
      if ((READ_BIT(RCC->CR, RCC_CR_HSERDY) != 0U) && (RCC_OscInitStruct->HSEState == RCC_HSE_OFF))
 8003f88:	4bb9      	ldr	r3, [pc, #740]	; (8004270 <HAL_RCC_OscConfig+0x32c>)
 8003f8a:	681a      	ldr	r2, [r3, #0]
 8003f8c:	2380      	movs	r3, #128	; 0x80
 8003f8e:	029b      	lsls	r3, r3, #10
 8003f90:	4013      	ands	r3, r2
 8003f92:	d062      	beq.n	800405a <HAL_RCC_OscConfig+0x116>
 8003f94:	687b      	ldr	r3, [r7, #4]
 8003f96:	685b      	ldr	r3, [r3, #4]
 8003f98:	2b00      	cmp	r3, #0
 8003f9a:	d15e      	bne.n	800405a <HAL_RCC_OscConfig+0x116>
      {
        return HAL_ERROR;
 8003f9c:	2301      	movs	r3, #1
 8003f9e:	e2df      	b.n	8004560 <HAL_RCC_OscConfig+0x61c>
      }
    }
    else
    {
      /* Set the new HSE configuration ---------------------------------------*/
      __HAL_RCC_HSE_CONFIG(RCC_OscInitStruct->HSEState);
 8003fa0:	687b      	ldr	r3, [r7, #4]
 8003fa2:	685a      	ldr	r2, [r3, #4]
 8003fa4:	2380      	movs	r3, #128	; 0x80
 8003fa6:	025b      	lsls	r3, r3, #9
 8003fa8:	429a      	cmp	r2, r3
 8003faa:	d107      	bne.n	8003fbc <HAL_RCC_OscConfig+0x78>
 8003fac:	4bb0      	ldr	r3, [pc, #704]	; (8004270 <HAL_RCC_OscConfig+0x32c>)
 8003fae:	681a      	ldr	r2, [r3, #0]
 8003fb0:	4baf      	ldr	r3, [pc, #700]	; (8004270 <HAL_RCC_OscConfig+0x32c>)
 8003fb2:	2180      	movs	r1, #128	; 0x80
 8003fb4:	0249      	lsls	r1, r1, #9
 8003fb6:	430a      	orrs	r2, r1
 8003fb8:	601a      	str	r2, [r3, #0]
 8003fba:	e020      	b.n	8003ffe <HAL_RCC_OscConfig+0xba>
 8003fbc:	687b      	ldr	r3, [r7, #4]
 8003fbe:	685a      	ldr	r2, [r3, #4]
 8003fc0:	23a0      	movs	r3, #160	; 0xa0
 8003fc2:	02db      	lsls	r3, r3, #11
 8003fc4:	429a      	cmp	r2, r3
 8003fc6:	d10e      	bne.n	8003fe6 <HAL_RCC_OscConfig+0xa2>
 8003fc8:	4ba9      	ldr	r3, [pc, #676]	; (8004270 <HAL_RCC_OscConfig+0x32c>)
 8003fca:	681a      	ldr	r2, [r3, #0]
 8003fcc:	4ba8      	ldr	r3, [pc, #672]	; (8004270 <HAL_RCC_OscConfig+0x32c>)
 8003fce:	2180      	movs	r1, #128	; 0x80
 8003fd0:	02c9      	lsls	r1, r1, #11
 8003fd2:	430a      	orrs	r2, r1
 8003fd4:	601a      	str	r2, [r3, #0]
 8003fd6:	4ba6      	ldr	r3, [pc, #664]	; (8004270 <HAL_RCC_OscConfig+0x32c>)
 8003fd8:	681a      	ldr	r2, [r3, #0]
 8003fda:	4ba5      	ldr	r3, [pc, #660]	; (8004270 <HAL_RCC_OscConfig+0x32c>)
 8003fdc:	2180      	movs	r1, #128	; 0x80
 8003fde:	0249      	lsls	r1, r1, #9
 8003fe0:	430a      	orrs	r2, r1
 8003fe2:	601a      	str	r2, [r3, #0]
 8003fe4:	e00b      	b.n	8003ffe <HAL_RCC_OscConfig+0xba>
 8003fe6:	4ba2      	ldr	r3, [pc, #648]	; (8004270 <HAL_RCC_OscConfig+0x32c>)
 8003fe8:	681a      	ldr	r2, [r3, #0]
 8003fea:	4ba1      	ldr	r3, [pc, #644]	; (8004270 <HAL_RCC_OscConfig+0x32c>)
 8003fec:	49a1      	ldr	r1, [pc, #644]	; (8004274 <HAL_RCC_OscConfig+0x330>)
 8003fee:	400a      	ands	r2, r1
 8003ff0:	601a      	str	r2, [r3, #0]
 8003ff2:	4b9f      	ldr	r3, [pc, #636]	; (8004270 <HAL_RCC_OscConfig+0x32c>)
 8003ff4:	681a      	ldr	r2, [r3, #0]
 8003ff6:	4b9e      	ldr	r3, [pc, #632]	; (8004270 <HAL_RCC_OscConfig+0x32c>)
 8003ff8:	499f      	ldr	r1, [pc, #636]	; (8004278 <HAL_RCC_OscConfig+0x334>)
 8003ffa:	400a      	ands	r2, r1
 8003ffc:	601a      	str	r2, [r3, #0]

      /* Check the HSE State */
      if (RCC_OscInitStruct->HSEState != RCC_HSE_OFF)
 8003ffe:	687b      	ldr	r3, [r7, #4]
 8004000:	685b      	ldr	r3, [r3, #4]
 8004002:	2b00      	cmp	r3, #0
 8004004:	d014      	beq.n	8004030 <HAL_RCC_OscConfig+0xec>
      {
        /* Get Start Tick*/
        tickstart = HAL_GetTick();
 8004006:	f7fe f857 	bl	80020b8 <HAL_GetTick>
 800400a:	0003      	movs	r3, r0
 800400c:	613b      	str	r3, [r7, #16]

        /* Wait till HSE is ready */
        while (READ_BIT(RCC->CR, RCC_CR_HSERDY) == 0U)
 800400e:	e008      	b.n	8004022 <HAL_RCC_OscConfig+0xde>
        {
          if ((HAL_GetTick() - tickstart) > HSE_TIMEOUT_VALUE)
 8004010:	f7fe f852 	bl	80020b8 <HAL_GetTick>
 8004014:	0002      	movs	r2, r0
 8004016:	693b      	ldr	r3, [r7, #16]
 8004018:	1ad3      	subs	r3, r2, r3
 800401a:	2b64      	cmp	r3, #100	; 0x64
 800401c:	d901      	bls.n	8004022 <HAL_RCC_OscConfig+0xde>
          {
            return HAL_TIMEOUT;
 800401e:	2303      	movs	r3, #3
 8004020:	e29e      	b.n	8004560 <HAL_RCC_OscConfig+0x61c>
        while (READ_BIT(RCC->CR, RCC_CR_HSERDY) == 0U)
 8004022:	4b93      	ldr	r3, [pc, #588]	; (8004270 <HAL_RCC_OscConfig+0x32c>)
 8004024:	681a      	ldr	r2, [r3, #0]
 8004026:	2380      	movs	r3, #128	; 0x80
 8004028:	029b      	lsls	r3, r3, #10
 800402a:	4013      	ands	r3, r2
 800402c:	d0f0      	beq.n	8004010 <HAL_RCC_OscConfig+0xcc>
 800402e:	e015      	b.n	800405c <HAL_RCC_OscConfig+0x118>
        }
      }
      else
      {
        /* Get Start Tick*/
        tickstart = HAL_GetTick();
 8004030:	f7fe f842 	bl	80020b8 <HAL_GetTick>
 8004034:	0003      	movs	r3, r0
 8004036:	613b      	str	r3, [r7, #16]

        /* Wait till HSE is disabled */
        while (READ_BIT(RCC->CR, RCC_CR_HSERDY) != 0U)
 8004038:	e008      	b.n	800404c <HAL_RCC_OscConfig+0x108>
        {
          if ((HAL_GetTick() - tickstart) > HSE_TIMEOUT_VALUE)
 800403a:	f7fe f83d 	bl	80020b8 <HAL_GetTick>
 800403e:	0002      	movs	r2, r0
 8004040:	693b      	ldr	r3, [r7, #16]
 8004042:	1ad3      	subs	r3, r2, r3
 8004044:	2b64      	cmp	r3, #100	; 0x64
 8004046:	d901      	bls.n	800404c <HAL_RCC_OscConfig+0x108>
          {
            return HAL_TIMEOUT;
 8004048:	2303      	movs	r3, #3
 800404a:	e289      	b.n	8004560 <HAL_RCC_OscConfig+0x61c>
        while (READ_BIT(RCC->CR, RCC_CR_HSERDY) != 0U)
 800404c:	4b88      	ldr	r3, [pc, #544]	; (8004270 <HAL_RCC_OscConfig+0x32c>)
 800404e:	681a      	ldr	r2, [r3, #0]
 8004050:	2380      	movs	r3, #128	; 0x80
 8004052:	029b      	lsls	r3, r3, #10
 8004054:	4013      	ands	r3, r2
 8004056:	d1f0      	bne.n	800403a <HAL_RCC_OscConfig+0xf6>
 8004058:	e000      	b.n	800405c <HAL_RCC_OscConfig+0x118>
      if ((READ_BIT(RCC->CR, RCC_CR_HSERDY) != 0U) && (RCC_OscInitStruct->HSEState == RCC_HSE_OFF))
 800405a:	46c0      	nop			; (mov r8, r8)
        }
      }
    }
  }
  /*----------------------------- HSI Configuration --------------------------*/
  if (((RCC_OscInitStruct->OscillatorType) & RCC_OSCILLATORTYPE_HSI) == RCC_OSCILLATORTYPE_HSI)
 800405c:	687b      	ldr	r3, [r7, #4]
 800405e:	681b      	ldr	r3, [r3, #0]
 8004060:	2202      	movs	r2, #2
 8004062:	4013      	ands	r3, r2
 8004064:	d100      	bne.n	8004068 <HAL_RCC_OscConfig+0x124>
 8004066:	e099      	b.n	800419c <HAL_RCC_OscConfig+0x258>
    assert_param(IS_RCC_HSI(RCC_OscInitStruct->HSIState));
    assert_param(IS_RCC_HSI_CALIBRATION_VALUE(RCC_OscInitStruct->HSICalibrationValue));
    assert_param(IS_RCC_HSIDIV(RCC_OscInitStruct->HSIDiv));

    /* Check if HSI16 is used as system clock or as PLL source when PLL is selected as system clock */
    temp_sysclksrc = __HAL_RCC_GET_SYSCLK_SOURCE();
 8004068:	4b81      	ldr	r3, [pc, #516]	; (8004270 <HAL_RCC_OscConfig+0x32c>)
 800406a:	689b      	ldr	r3, [r3, #8]
 800406c:	2238      	movs	r2, #56	; 0x38
 800406e:	4013      	ands	r3, r2
 8004070:	61bb      	str	r3, [r7, #24]
    temp_pllckcfg = __HAL_RCC_GET_PLL_OSCSOURCE();
 8004072:	4b7f      	ldr	r3, [pc, #508]	; (8004270 <HAL_RCC_OscConfig+0x32c>)
 8004074:	68db      	ldr	r3, [r3, #12]
 8004076:	2203      	movs	r2, #3
 8004078:	4013      	ands	r3, r2
 800407a:	617b      	str	r3, [r7, #20]
    if (((temp_sysclksrc == RCC_SYSCLKSOURCE_STATUS_PLLCLK) && (temp_pllckcfg == RCC_PLLSOURCE_HSI)) || (temp_sysclksrc == RCC_SYSCLKSOURCE_STATUS_HSI))
 800407c:	69bb      	ldr	r3, [r7, #24]
 800407e:	2b10      	cmp	r3, #16
 8004080:	d102      	bne.n	8004088 <HAL_RCC_OscConfig+0x144>
 8004082:	697b      	ldr	r3, [r7, #20]
 8004084:	2b02      	cmp	r3, #2
 8004086:	d002      	beq.n	800408e <HAL_RCC_OscConfig+0x14a>
 8004088:	69bb      	ldr	r3, [r7, #24]
 800408a:	2b00      	cmp	r3, #0
 800408c:	d135      	bne.n	80040fa <HAL_RCC_OscConfig+0x1b6>
    {
      /* When HSI is used as system clock or as PLL input clock it can not be disabled */
      if ((READ_BIT(RCC->CR, RCC_CR_HSIRDY) != 0U) && (RCC_OscInitStruct->HSIState == RCC_HSI_OFF))
 800408e:	4b78      	ldr	r3, [pc, #480]	; (8004270 <HAL_RCC_OscConfig+0x32c>)
 8004090:	681a      	ldr	r2, [r3, #0]
 8004092:	2380      	movs	r3, #128	; 0x80
 8004094:	00db      	lsls	r3, r3, #3
 8004096:	4013      	ands	r3, r2
 8004098:	d005      	beq.n	80040a6 <HAL_RCC_OscConfig+0x162>
 800409a:	687b      	ldr	r3, [r7, #4]
 800409c:	68db      	ldr	r3, [r3, #12]
 800409e:	2b00      	cmp	r3, #0
 80040a0:	d101      	bne.n	80040a6 <HAL_RCC_OscConfig+0x162>
      {
        return HAL_ERROR;
 80040a2:	2301      	movs	r3, #1
 80040a4:	e25c      	b.n	8004560 <HAL_RCC_OscConfig+0x61c>
      }
      /* Otherwise, just the calibration is allowed */
      else
      {
        /* Adjusts the Internal High Speed oscillator (HSI) calibration value.*/
        __HAL_RCC_HSI_CALIBRATIONVALUE_ADJUST(RCC_OscInitStruct->HSICalibrationValue);
 80040a6:	4b72      	ldr	r3, [pc, #456]	; (8004270 <HAL_RCC_OscConfig+0x32c>)
 80040a8:	685b      	ldr	r3, [r3, #4]
 80040aa:	4a74      	ldr	r2, [pc, #464]	; (800427c <HAL_RCC_OscConfig+0x338>)
 80040ac:	4013      	ands	r3, r2
 80040ae:	0019      	movs	r1, r3
 80040b0:	687b      	ldr	r3, [r7, #4]
 80040b2:	695b      	ldr	r3, [r3, #20]
 80040b4:	021a      	lsls	r2, r3, #8
 80040b6:	4b6e      	ldr	r3, [pc, #440]	; (8004270 <HAL_RCC_OscConfig+0x32c>)
 80040b8:	430a      	orrs	r2, r1
 80040ba:	605a      	str	r2, [r3, #4]

        if (temp_sysclksrc == RCC_SYSCLKSOURCE_STATUS_HSI)
 80040bc:	69bb      	ldr	r3, [r7, #24]
 80040be:	2b00      	cmp	r3, #0
 80040c0:	d112      	bne.n	80040e8 <HAL_RCC_OscConfig+0x1a4>
        {
          /* Adjust the HSI16 division factor */
          __HAL_RCC_HSI_CONFIG(RCC_OscInitStruct->HSIDiv);
 80040c2:	4b6b      	ldr	r3, [pc, #428]	; (8004270 <HAL_RCC_OscConfig+0x32c>)
 80040c4:	681b      	ldr	r3, [r3, #0]
 80040c6:	4a6e      	ldr	r2, [pc, #440]	; (8004280 <HAL_RCC_OscConfig+0x33c>)
 80040c8:	4013      	ands	r3, r2
 80040ca:	0019      	movs	r1, r3
 80040cc:	687b      	ldr	r3, [r7, #4]
 80040ce:	691a      	ldr	r2, [r3, #16]
 80040d0:	4b67      	ldr	r3, [pc, #412]	; (8004270 <HAL_RCC_OscConfig+0x32c>)
 80040d2:	430a      	orrs	r2, r1
 80040d4:	601a      	str	r2, [r3, #0]

          /* Update the SystemCoreClock global variable with HSISYS value  */
          SystemCoreClock = (HSI_VALUE / (1UL << ((READ_BIT(RCC->CR, RCC_CR_HSIDIV)) >> RCC_CR_HSIDIV_Pos)));
 80040d6:	4b66      	ldr	r3, [pc, #408]	; (8004270 <HAL_RCC_OscConfig+0x32c>)
 80040d8:	681b      	ldr	r3, [r3, #0]
 80040da:	0adb      	lsrs	r3, r3, #11
 80040dc:	2207      	movs	r2, #7
 80040de:	4013      	ands	r3, r2
 80040e0:	4a68      	ldr	r2, [pc, #416]	; (8004284 <HAL_RCC_OscConfig+0x340>)
 80040e2:	40da      	lsrs	r2, r3
 80040e4:	4b68      	ldr	r3, [pc, #416]	; (8004288 <HAL_RCC_OscConfig+0x344>)
 80040e6:	601a      	str	r2, [r3, #0]
        }

        /* Adapt Systick interrupt period */
        if (HAL_InitTick(uwTickPrio) != HAL_OK)
 80040e8:	4b68      	ldr	r3, [pc, #416]	; (800428c <HAL_RCC_OscConfig+0x348>)
 80040ea:	681b      	ldr	r3, [r3, #0]
 80040ec:	0018      	movs	r0, r3
 80040ee:	f7fd ff87 	bl	8002000 <HAL_InitTick>
 80040f2:	1e03      	subs	r3, r0, #0
 80040f4:	d051      	beq.n	800419a <HAL_RCC_OscConfig+0x256>
        {
          return HAL_ERROR;
 80040f6:	2301      	movs	r3, #1
 80040f8:	e232      	b.n	8004560 <HAL_RCC_OscConfig+0x61c>
      }
    }
    else
    {
      /* Check the HSI State */
      if (RCC_OscInitStruct->HSIState != RCC_HSI_OFF)
 80040fa:	687b      	ldr	r3, [r7, #4]
 80040fc:	68db      	ldr	r3, [r3, #12]
 80040fe:	2b00      	cmp	r3, #0
 8004100:	d030      	beq.n	8004164 <HAL_RCC_OscConfig+0x220>
      {
        /* Configure the HSI16 division factor */
        __HAL_RCC_HSI_CONFIG(RCC_OscInitStruct->HSIDiv);
 8004102:	4b5b      	ldr	r3, [pc, #364]	; (8004270 <HAL_RCC_OscConfig+0x32c>)
 8004104:	681b      	ldr	r3, [r3, #0]
 8004106:	4a5e      	ldr	r2, [pc, #376]	; (8004280 <HAL_RCC_OscConfig+0x33c>)
 8004108:	4013      	ands	r3, r2
 800410a:	0019      	movs	r1, r3
 800410c:	687b      	ldr	r3, [r7, #4]
 800410e:	691a      	ldr	r2, [r3, #16]
 8004110:	4b57      	ldr	r3, [pc, #348]	; (8004270 <HAL_RCC_OscConfig+0x32c>)
 8004112:	430a      	orrs	r2, r1
 8004114:	601a      	str	r2, [r3, #0]

        /* Enable the Internal High Speed oscillator (HSI16). */
        __HAL_RCC_HSI_ENABLE();
 8004116:	4b56      	ldr	r3, [pc, #344]	; (8004270 <HAL_RCC_OscConfig+0x32c>)
 8004118:	681a      	ldr	r2, [r3, #0]
 800411a:	4b55      	ldr	r3, [pc, #340]	; (8004270 <HAL_RCC_OscConfig+0x32c>)
 800411c:	2180      	movs	r1, #128	; 0x80
 800411e:	0049      	lsls	r1, r1, #1
 8004120:	430a      	orrs	r2, r1
 8004122:	601a      	str	r2, [r3, #0]

        /* Get Start Tick*/
        tickstart = HAL_GetTick();
 8004124:	f7fd ffc8 	bl	80020b8 <HAL_GetTick>
 8004128:	0003      	movs	r3, r0
 800412a:	613b      	str	r3, [r7, #16]

        /* Wait till HSI is ready */
        while (READ_BIT(RCC->CR, RCC_CR_HSIRDY) == 0U)
 800412c:	e008      	b.n	8004140 <HAL_RCC_OscConfig+0x1fc>
        {
          if ((HAL_GetTick() - tickstart) > HSI_TIMEOUT_VALUE)
 800412e:	f7fd ffc3 	bl	80020b8 <HAL_GetTick>
 8004132:	0002      	movs	r2, r0
 8004134:	693b      	ldr	r3, [r7, #16]
 8004136:	1ad3      	subs	r3, r2, r3
 8004138:	2b02      	cmp	r3, #2
 800413a:	d901      	bls.n	8004140 <HAL_RCC_OscConfig+0x1fc>
          {
            return HAL_TIMEOUT;
 800413c:	2303      	movs	r3, #3
 800413e:	e20f      	b.n	8004560 <HAL_RCC_OscConfig+0x61c>
        while (READ_BIT(RCC->CR, RCC_CR_HSIRDY) == 0U)
 8004140:	4b4b      	ldr	r3, [pc, #300]	; (8004270 <HAL_RCC_OscConfig+0x32c>)
 8004142:	681a      	ldr	r2, [r3, #0]
 8004144:	2380      	movs	r3, #128	; 0x80
 8004146:	00db      	lsls	r3, r3, #3
 8004148:	4013      	ands	r3, r2
 800414a:	d0f0      	beq.n	800412e <HAL_RCC_OscConfig+0x1ea>
          }
        }

        /* Adjusts the Internal High Speed oscillator (HSI) calibration value.*/
        __HAL_RCC_HSI_CALIBRATIONVALUE_ADJUST(RCC_OscInitStruct->HSICalibrationValue);
 800414c:	4b48      	ldr	r3, [pc, #288]	; (8004270 <HAL_RCC_OscConfig+0x32c>)
 800414e:	685b      	ldr	r3, [r3, #4]
 8004150:	4a4a      	ldr	r2, [pc, #296]	; (800427c <HAL_RCC_OscConfig+0x338>)
 8004152:	4013      	ands	r3, r2
 8004154:	0019      	movs	r1, r3
 8004156:	687b      	ldr	r3, [r7, #4]
 8004158:	695b      	ldr	r3, [r3, #20]
 800415a:	021a      	lsls	r2, r3, #8
 800415c:	4b44      	ldr	r3, [pc, #272]	; (8004270 <HAL_RCC_OscConfig+0x32c>)
 800415e:	430a      	orrs	r2, r1
 8004160:	605a      	str	r2, [r3, #4]
 8004162:	e01b      	b.n	800419c <HAL_RCC_OscConfig+0x258>
      }
      else
      {
        /* Disable the Internal High Speed oscillator (HSI16). */
        __HAL_RCC_HSI_DISABLE();
 8004164:	4b42      	ldr	r3, [pc, #264]	; (8004270 <HAL_RCC_OscConfig+0x32c>)
 8004166:	681a      	ldr	r2, [r3, #0]
 8004168:	4b41      	ldr	r3, [pc, #260]	; (8004270 <HAL_RCC_OscConfig+0x32c>)
 800416a:	4949      	ldr	r1, [pc, #292]	; (8004290 <HAL_RCC_OscConfig+0x34c>)
 800416c:	400a      	ands	r2, r1
 800416e:	601a      	str	r2, [r3, #0]

        /* Get Start Tick*/
        tickstart = HAL_GetTick();
 8004170:	f7fd ffa2 	bl	80020b8 <HAL_GetTick>
 8004174:	0003      	movs	r3, r0
 8004176:	613b      	str	r3, [r7, #16]

        /* Wait till HSI is disabled */
        while (READ_BIT(RCC->CR, RCC_CR_HSIRDY) != 0U)
 8004178:	e008      	b.n	800418c <HAL_RCC_OscConfig+0x248>
        {
          if ((HAL_GetTick() - tickstart) > HSI_TIMEOUT_VALUE)
 800417a:	f7fd ff9d 	bl	80020b8 <HAL_GetTick>
 800417e:	0002      	movs	r2, r0
 8004180:	693b      	ldr	r3, [r7, #16]
 8004182:	1ad3      	subs	r3, r2, r3
 8004184:	2b02      	cmp	r3, #2
 8004186:	d901      	bls.n	800418c <HAL_RCC_OscConfig+0x248>
          {
            return HAL_TIMEOUT;
 8004188:	2303      	movs	r3, #3
 800418a:	e1e9      	b.n	8004560 <HAL_RCC_OscConfig+0x61c>
        while (READ_BIT(RCC->CR, RCC_CR_HSIRDY) != 0U)
 800418c:	4b38      	ldr	r3, [pc, #224]	; (8004270 <HAL_RCC_OscConfig+0x32c>)
 800418e:	681a      	ldr	r2, [r3, #0]
 8004190:	2380      	movs	r3, #128	; 0x80
 8004192:	00db      	lsls	r3, r3, #3
 8004194:	4013      	ands	r3, r2
 8004196:	d1f0      	bne.n	800417a <HAL_RCC_OscConfig+0x236>
 8004198:	e000      	b.n	800419c <HAL_RCC_OscConfig+0x258>
      if ((READ_BIT(RCC->CR, RCC_CR_HSIRDY) != 0U) && (RCC_OscInitStruct->HSIState == RCC_HSI_OFF))
 800419a:	46c0      	nop			; (mov r8, r8)
        }
      }
    }
  }
  /*------------------------------ LSI Configuration -------------------------*/
  if (((RCC_OscInitStruct->OscillatorType) & RCC_OSCILLATORTYPE_LSI) == RCC_OSCILLATORTYPE_LSI)
 800419c:	687b      	ldr	r3, [r7, #4]
 800419e:	681b      	ldr	r3, [r3, #0]
 80041a0:	2208      	movs	r2, #8
 80041a2:	4013      	ands	r3, r2
 80041a4:	d047      	beq.n	8004236 <HAL_RCC_OscConfig+0x2f2>
  {
    /* Check the parameters */
    assert_param(IS_RCC_LSI(RCC_OscInitStruct->LSIState));

    /* Check if LSI is used as system clock */
    if (__HAL_RCC_GET_SYSCLK_SOURCE() == RCC_SYSCLKSOURCE_STATUS_LSI)
 80041a6:	4b32      	ldr	r3, [pc, #200]	; (8004270 <HAL_RCC_OscConfig+0x32c>)
 80041a8:	689b      	ldr	r3, [r3, #8]
 80041aa:	2238      	movs	r2, #56	; 0x38
 80041ac:	4013      	ands	r3, r2
 80041ae:	2b18      	cmp	r3, #24
 80041b0:	d10a      	bne.n	80041c8 <HAL_RCC_OscConfig+0x284>
    {
      /* When LSI is used as system clock it will not be disabled */
      if ((((RCC->CSR) & RCC_CSR_LSIRDY) != 0U) && (RCC_OscInitStruct->LSIState == RCC_LSI_OFF))
 80041b2:	4b2f      	ldr	r3, [pc, #188]	; (8004270 <HAL_RCC_OscConfig+0x32c>)
 80041b4:	6e1b      	ldr	r3, [r3, #96]	; 0x60
 80041b6:	2202      	movs	r2, #2
 80041b8:	4013      	ands	r3, r2
 80041ba:	d03c      	beq.n	8004236 <HAL_RCC_OscConfig+0x2f2>
 80041bc:	687b      	ldr	r3, [r7, #4]
 80041be:	699b      	ldr	r3, [r3, #24]
 80041c0:	2b00      	cmp	r3, #0
 80041c2:	d138      	bne.n	8004236 <HAL_RCC_OscConfig+0x2f2>
      {
        return HAL_ERROR;
 80041c4:	2301      	movs	r3, #1
 80041c6:	e1cb      	b.n	8004560 <HAL_RCC_OscConfig+0x61c>
      }
    }
    else
    {
      /* Check the LSI State */
      if (RCC_OscInitStruct->LSIState != RCC_LSI_OFF)
 80041c8:	687b      	ldr	r3, [r7, #4]
 80041ca:	699b      	ldr	r3, [r3, #24]
 80041cc:	2b00      	cmp	r3, #0
 80041ce:	d019      	beq.n	8004204 <HAL_RCC_OscConfig+0x2c0>
      {
        /* Enable the Internal Low Speed oscillator (LSI). */
        __HAL_RCC_LSI_ENABLE();
 80041d0:	4b27      	ldr	r3, [pc, #156]	; (8004270 <HAL_RCC_OscConfig+0x32c>)
 80041d2:	6e1a      	ldr	r2, [r3, #96]	; 0x60
 80041d4:	4b26      	ldr	r3, [pc, #152]	; (8004270 <HAL_RCC_OscConfig+0x32c>)
 80041d6:	2101      	movs	r1, #1
 80041d8:	430a      	orrs	r2, r1
 80041da:	661a      	str	r2, [r3, #96]	; 0x60

        /* Get Start Tick*/
        tickstart = HAL_GetTick();
 80041dc:	f7fd ff6c 	bl	80020b8 <HAL_GetTick>
 80041e0:	0003      	movs	r3, r0
 80041e2:	613b      	str	r3, [r7, #16]

        /* Wait till LSI is ready */
        while (READ_BIT(RCC->CSR, RCC_CSR_LSIRDY) == 0U)
 80041e4:	e008      	b.n	80041f8 <HAL_RCC_OscConfig+0x2b4>
        {
          if ((HAL_GetTick() - tickstart) > LSI_TIMEOUT_VALUE)
 80041e6:	f7fd ff67 	bl	80020b8 <HAL_GetTick>
 80041ea:	0002      	movs	r2, r0
 80041ec:	693b      	ldr	r3, [r7, #16]
 80041ee:	1ad3      	subs	r3, r2, r3
 80041f0:	2b02      	cmp	r3, #2
 80041f2:	d901      	bls.n	80041f8 <HAL_RCC_OscConfig+0x2b4>
          {
            return HAL_TIMEOUT;
 80041f4:	2303      	movs	r3, #3
 80041f6:	e1b3      	b.n	8004560 <HAL_RCC_OscConfig+0x61c>
        while (READ_BIT(RCC->CSR, RCC_CSR_LSIRDY) == 0U)
 80041f8:	4b1d      	ldr	r3, [pc, #116]	; (8004270 <HAL_RCC_OscConfig+0x32c>)
 80041fa:	6e1b      	ldr	r3, [r3, #96]	; 0x60
 80041fc:	2202      	movs	r2, #2
 80041fe:	4013      	ands	r3, r2
 8004200:	d0f1      	beq.n	80041e6 <HAL_RCC_OscConfig+0x2a2>
 8004202:	e018      	b.n	8004236 <HAL_RCC_OscConfig+0x2f2>
        }
      }
      else
      {
        /* Disable the Internal Low Speed oscillator (LSI). */
        __HAL_RCC_LSI_DISABLE();
 8004204:	4b1a      	ldr	r3, [pc, #104]	; (8004270 <HAL_RCC_OscConfig+0x32c>)
 8004206:	6e1a      	ldr	r2, [r3, #96]	; 0x60
 8004208:	4b19      	ldr	r3, [pc, #100]	; (8004270 <HAL_RCC_OscConfig+0x32c>)
 800420a:	2101      	movs	r1, #1
 800420c:	438a      	bics	r2, r1
 800420e:	661a      	str	r2, [r3, #96]	; 0x60

        /* Get Start Tick*/
        tickstart = HAL_GetTick();
 8004210:	f7fd ff52 	bl	80020b8 <HAL_GetTick>
 8004214:	0003      	movs	r3, r0
 8004216:	613b      	str	r3, [r7, #16]

        /* Wait till LSI is disabled */
        while (READ_BIT(RCC->CSR, RCC_CSR_LSIRDY) != 0U)
 8004218:	e008      	b.n	800422c <HAL_RCC_OscConfig+0x2e8>
        {
          if ((HAL_GetTick() - tickstart) > LSI_TIMEOUT_VALUE)
 800421a:	f7fd ff4d 	bl	80020b8 <HAL_GetTick>
 800421e:	0002      	movs	r2, r0
 8004220:	693b      	ldr	r3, [r7, #16]
 8004222:	1ad3      	subs	r3, r2, r3
 8004224:	2b02      	cmp	r3, #2
 8004226:	d901      	bls.n	800422c <HAL_RCC_OscConfig+0x2e8>
          {
            return HAL_TIMEOUT;
 8004228:	2303      	movs	r3, #3
 800422a:	e199      	b.n	8004560 <HAL_RCC_OscConfig+0x61c>
        while (READ_BIT(RCC->CSR, RCC_CSR_LSIRDY) != 0U)
 800422c:	4b10      	ldr	r3, [pc, #64]	; (8004270 <HAL_RCC_OscConfig+0x32c>)
 800422e:	6e1b      	ldr	r3, [r3, #96]	; 0x60
 8004230:	2202      	movs	r2, #2
 8004232:	4013      	ands	r3, r2
 8004234:	d1f1      	bne.n	800421a <HAL_RCC_OscConfig+0x2d6>
        }
      }
    }
  }
  /*------------------------------ LSE Configuration -------------------------*/
  if (((RCC_OscInitStruct->OscillatorType) & RCC_OSCILLATORTYPE_LSE) == RCC_OSCILLATORTYPE_LSE)
 8004236:	687b      	ldr	r3, [r7, #4]
 8004238:	681b      	ldr	r3, [r3, #0]
 800423a:	2204      	movs	r2, #4
 800423c:	4013      	ands	r3, r2
 800423e:	d100      	bne.n	8004242 <HAL_RCC_OscConfig+0x2fe>
 8004240:	e0c6      	b.n	80043d0 <HAL_RCC_OscConfig+0x48c>
  {
    FlagStatus       pwrclkchanged = RESET;
 8004242:	231f      	movs	r3, #31
 8004244:	18fb      	adds	r3, r7, r3
 8004246:	2200      	movs	r2, #0
 8004248:	701a      	strb	r2, [r3, #0]

    /* Check the parameters */
    assert_param(IS_RCC_LSE(RCC_OscInitStruct->LSEState));

    /* When the LSE is used as system clock, it is not allowed disable it */
    if (__HAL_RCC_GET_SYSCLK_SOURCE() == RCC_SYSCLKSOURCE_STATUS_LSE)
 800424a:	4b09      	ldr	r3, [pc, #36]	; (8004270 <HAL_RCC_OscConfig+0x32c>)
 800424c:	689b      	ldr	r3, [r3, #8]
 800424e:	2238      	movs	r2, #56	; 0x38
 8004250:	4013      	ands	r3, r2
 8004252:	2b20      	cmp	r3, #32
 8004254:	d11e      	bne.n	8004294 <HAL_RCC_OscConfig+0x350>
    {
      if ((((RCC->BDCR) & RCC_BDCR_LSERDY) != 0U) && (RCC_OscInitStruct->LSEState == RCC_LSE_OFF))
 8004256:	4b06      	ldr	r3, [pc, #24]	; (8004270 <HAL_RCC_OscConfig+0x32c>)
 8004258:	6ddb      	ldr	r3, [r3, #92]	; 0x5c
 800425a:	2202      	movs	r2, #2
 800425c:	4013      	ands	r3, r2
 800425e:	d100      	bne.n	8004262 <HAL_RCC_OscConfig+0x31e>
 8004260:	e0b6      	b.n	80043d0 <HAL_RCC_OscConfig+0x48c>
 8004262:	687b      	ldr	r3, [r7, #4]
 8004264:	689b      	ldr	r3, [r3, #8]
 8004266:	2b00      	cmp	r3, #0
 8004268:	d000      	beq.n	800426c <HAL_RCC_OscConfig+0x328>
 800426a:	e0b1      	b.n	80043d0 <HAL_RCC_OscConfig+0x48c>
      {
        return HAL_ERROR;
 800426c:	2301      	movs	r3, #1
 800426e:	e177      	b.n	8004560 <HAL_RCC_OscConfig+0x61c>
 8004270:	40021000 	.word	0x40021000
 8004274:	fffeffff 	.word	0xfffeffff
 8004278:	fffbffff 	.word	0xfffbffff
 800427c:	ffff80ff 	.word	0xffff80ff
 8004280:	ffffc7ff 	.word	0xffffc7ff
 8004284:	00f42400 	.word	0x00f42400
 8004288:	20000000 	.word	0x20000000
 800428c:	20000004 	.word	0x20000004
 8004290:	fffffeff 	.word	0xfffffeff
    }
    else
    {
      /* Update LSE configuration in Backup Domain control register    */
      /* Requires to enable write access to Backup Domain of necessary */
      if (__HAL_RCC_PWR_IS_CLK_DISABLED() != 0U)
 8004294:	4bb4      	ldr	r3, [pc, #720]	; (8004568 <HAL_RCC_OscConfig+0x624>)
 8004296:	6bda      	ldr	r2, [r3, #60]	; 0x3c
 8004298:	2380      	movs	r3, #128	; 0x80
 800429a:	055b      	lsls	r3, r3, #21
 800429c:	4013      	ands	r3, r2
 800429e:	d101      	bne.n	80042a4 <HAL_RCC_OscConfig+0x360>
 80042a0:	2301      	movs	r3, #1
 80042a2:	e000      	b.n	80042a6 <HAL_RCC_OscConfig+0x362>
 80042a4:	2300      	movs	r3, #0
 80042a6:	2b00      	cmp	r3, #0
 80042a8:	d011      	beq.n	80042ce <HAL_RCC_OscConfig+0x38a>
      {
        __HAL_RCC_PWR_CLK_ENABLE();
 80042aa:	4baf      	ldr	r3, [pc, #700]	; (8004568 <HAL_RCC_OscConfig+0x624>)
 80042ac:	6bda      	ldr	r2, [r3, #60]	; 0x3c
 80042ae:	4bae      	ldr	r3, [pc, #696]	; (8004568 <HAL_RCC_OscConfig+0x624>)
 80042b0:	2180      	movs	r1, #128	; 0x80
 80042b2:	0549      	lsls	r1, r1, #21
 80042b4:	430a      	orrs	r2, r1
 80042b6:	63da      	str	r2, [r3, #60]	; 0x3c
 80042b8:	4bab      	ldr	r3, [pc, #684]	; (8004568 <HAL_RCC_OscConfig+0x624>)
 80042ba:	6bda      	ldr	r2, [r3, #60]	; 0x3c
 80042bc:	2380      	movs	r3, #128	; 0x80
 80042be:	055b      	lsls	r3, r3, #21
 80042c0:	4013      	ands	r3, r2
 80042c2:	60fb      	str	r3, [r7, #12]
 80042c4:	68fb      	ldr	r3, [r7, #12]
        pwrclkchanged = SET;
 80042c6:	231f      	movs	r3, #31
 80042c8:	18fb      	adds	r3, r7, r3
 80042ca:	2201      	movs	r2, #1
 80042cc:	701a      	strb	r2, [r3, #0]
      }

      if (HAL_IS_BIT_CLR(PWR->CR1, PWR_CR1_DBP))
 80042ce:	4ba7      	ldr	r3, [pc, #668]	; (800456c <HAL_RCC_OscConfig+0x628>)
 80042d0:	681a      	ldr	r2, [r3, #0]
 80042d2:	2380      	movs	r3, #128	; 0x80
 80042d4:	005b      	lsls	r3, r3, #1
 80042d6:	4013      	ands	r3, r2
 80042d8:	d11a      	bne.n	8004310 <HAL_RCC_OscConfig+0x3cc>
      {
        /* Enable write access to Backup domain */
        SET_BIT(PWR->CR1, PWR_CR1_DBP);
 80042da:	4ba4      	ldr	r3, [pc, #656]	; (800456c <HAL_RCC_OscConfig+0x628>)
 80042dc:	681a      	ldr	r2, [r3, #0]
 80042de:	4ba3      	ldr	r3, [pc, #652]	; (800456c <HAL_RCC_OscConfig+0x628>)
 80042e0:	2180      	movs	r1, #128	; 0x80
 80042e2:	0049      	lsls	r1, r1, #1
 80042e4:	430a      	orrs	r2, r1
 80042e6:	601a      	str	r2, [r3, #0]

        /* Wait for Backup domain Write protection disable */
        tickstart = HAL_GetTick();
 80042e8:	f7fd fee6 	bl	80020b8 <HAL_GetTick>
 80042ec:	0003      	movs	r3, r0
 80042ee:	613b      	str	r3, [r7, #16]

        while (HAL_IS_BIT_CLR(PWR->CR1, PWR_CR1_DBP))
 80042f0:	e008      	b.n	8004304 <HAL_RCC_OscConfig+0x3c0>
        {
          if ((HAL_GetTick() - tickstart) > RCC_DBP_TIMEOUT_VALUE)
 80042f2:	f7fd fee1 	bl	80020b8 <HAL_GetTick>
 80042f6:	0002      	movs	r2, r0
 80042f8:	693b      	ldr	r3, [r7, #16]
 80042fa:	1ad3      	subs	r3, r2, r3
 80042fc:	2b02      	cmp	r3, #2
 80042fe:	d901      	bls.n	8004304 <HAL_RCC_OscConfig+0x3c0>
          {
            return HAL_TIMEOUT;
 8004300:	2303      	movs	r3, #3
 8004302:	e12d      	b.n	8004560 <HAL_RCC_OscConfig+0x61c>
        while (HAL_IS_BIT_CLR(PWR->CR1, PWR_CR1_DBP))
 8004304:	4b99      	ldr	r3, [pc, #612]	; (800456c <HAL_RCC_OscConfig+0x628>)
 8004306:	681a      	ldr	r2, [r3, #0]
 8004308:	2380      	movs	r3, #128	; 0x80
 800430a:	005b      	lsls	r3, r3, #1
 800430c:	4013      	ands	r3, r2
 800430e:	d0f0      	beq.n	80042f2 <HAL_RCC_OscConfig+0x3ae>
          }
        }
      }

      /* Set the new LSE configuration -----------------------------------------*/
      __HAL_RCC_LSE_CONFIG(RCC_OscInitStruct->LSEState);
 8004310:	687b      	ldr	r3, [r7, #4]
 8004312:	689b      	ldr	r3, [r3, #8]
 8004314:	2b01      	cmp	r3, #1
 8004316:	d106      	bne.n	8004326 <HAL_RCC_OscConfig+0x3e2>
 8004318:	4b93      	ldr	r3, [pc, #588]	; (8004568 <HAL_RCC_OscConfig+0x624>)
 800431a:	6dda      	ldr	r2, [r3, #92]	; 0x5c
 800431c:	4b92      	ldr	r3, [pc, #584]	; (8004568 <HAL_RCC_OscConfig+0x624>)
 800431e:	2101      	movs	r1, #1
 8004320:	430a      	orrs	r2, r1
 8004322:	65da      	str	r2, [r3, #92]	; 0x5c
 8004324:	e01c      	b.n	8004360 <HAL_RCC_OscConfig+0x41c>
 8004326:	687b      	ldr	r3, [r7, #4]
 8004328:	689b      	ldr	r3, [r3, #8]
 800432a:	2b05      	cmp	r3, #5
 800432c:	d10c      	bne.n	8004348 <HAL_RCC_OscConfig+0x404>
 800432e:	4b8e      	ldr	r3, [pc, #568]	; (8004568 <HAL_RCC_OscConfig+0x624>)
 8004330:	6dda      	ldr	r2, [r3, #92]	; 0x5c
 8004332:	4b8d      	ldr	r3, [pc, #564]	; (8004568 <HAL_RCC_OscConfig+0x624>)
 8004334:	2104      	movs	r1, #4
 8004336:	430a      	orrs	r2, r1
 8004338:	65da      	str	r2, [r3, #92]	; 0x5c
 800433a:	4b8b      	ldr	r3, [pc, #556]	; (8004568 <HAL_RCC_OscConfig+0x624>)
 800433c:	6dda      	ldr	r2, [r3, #92]	; 0x5c
 800433e:	4b8a      	ldr	r3, [pc, #552]	; (8004568 <HAL_RCC_OscConfig+0x624>)
 8004340:	2101      	movs	r1, #1
 8004342:	430a      	orrs	r2, r1
 8004344:	65da      	str	r2, [r3, #92]	; 0x5c
 8004346:	e00b      	b.n	8004360 <HAL_RCC_OscConfig+0x41c>
 8004348:	4b87      	ldr	r3, [pc, #540]	; (8004568 <HAL_RCC_OscConfig+0x624>)
 800434a:	6dda      	ldr	r2, [r3, #92]	; 0x5c
 800434c:	4b86      	ldr	r3, [pc, #536]	; (8004568 <HAL_RCC_OscConfig+0x624>)
 800434e:	2101      	movs	r1, #1
 8004350:	438a      	bics	r2, r1
 8004352:	65da      	str	r2, [r3, #92]	; 0x5c
 8004354:	4b84      	ldr	r3, [pc, #528]	; (8004568 <HAL_RCC_OscConfig+0x624>)
 8004356:	6dda      	ldr	r2, [r3, #92]	; 0x5c
 8004358:	4b83      	ldr	r3, [pc, #524]	; (8004568 <HAL_RCC_OscConfig+0x624>)
 800435a:	2104      	movs	r1, #4
 800435c:	438a      	bics	r2, r1
 800435e:	65da      	str	r2, [r3, #92]	; 0x5c

      /* Check the LSE State */
      if (RCC_OscInitStruct->LSEState != RCC_LSE_OFF)
 8004360:	687b      	ldr	r3, [r7, #4]
 8004362:	689b      	ldr	r3, [r3, #8]
 8004364:	2b00      	cmp	r3, #0
 8004366:	d014      	beq.n	8004392 <HAL_RCC_OscConfig+0x44e>
      {
        /* Get Start Tick*/
        tickstart = HAL_GetTick();
 8004368:	f7fd fea6 	bl	80020b8 <HAL_GetTick>
 800436c:	0003      	movs	r3, r0
 800436e:	613b      	str	r3, [r7, #16]

        /* Wait till LSE is ready */
        while (READ_BIT(RCC->BDCR, RCC_BDCR_LSERDY) == 0U)
 8004370:	e009      	b.n	8004386 <HAL_RCC_OscConfig+0x442>
        {
          if ((HAL_GetTick() - tickstart) > RCC_LSE_TIMEOUT_VALUE)
 8004372:	f7fd fea1 	bl	80020b8 <HAL_GetTick>
 8004376:	0002      	movs	r2, r0
 8004378:	693b      	ldr	r3, [r7, #16]
 800437a:	1ad3      	subs	r3, r2, r3
 800437c:	4a7c      	ldr	r2, [pc, #496]	; (8004570 <HAL_RCC_OscConfig+0x62c>)
 800437e:	4293      	cmp	r3, r2
 8004380:	d901      	bls.n	8004386 <HAL_RCC_OscConfig+0x442>
          {
            return HAL_TIMEOUT;
 8004382:	2303      	movs	r3, #3
 8004384:	e0ec      	b.n	8004560 <HAL_RCC_OscConfig+0x61c>
        while (READ_BIT(RCC->BDCR, RCC_BDCR_LSERDY) == 0U)
 8004386:	4b78      	ldr	r3, [pc, #480]	; (8004568 <HAL_RCC_OscConfig+0x624>)
 8004388:	6ddb      	ldr	r3, [r3, #92]	; 0x5c
 800438a:	2202      	movs	r2, #2
 800438c:	4013      	ands	r3, r2
 800438e:	d0f0      	beq.n	8004372 <HAL_RCC_OscConfig+0x42e>
 8004390:	e013      	b.n	80043ba <HAL_RCC_OscConfig+0x476>
        }
      }
      else
      {
        /* Get Start Tick*/
        tickstart = HAL_GetTick();
 8004392:	f7fd fe91 	bl	80020b8 <HAL_GetTick>
 8004396:	0003      	movs	r3, r0
 8004398:	613b      	str	r3, [r7, #16]

        /* Wait till LSE is disabled */
        while (READ_BIT(RCC->BDCR, RCC_BDCR_LSERDY) != 0U)
 800439a:	e009      	b.n	80043b0 <HAL_RCC_OscConfig+0x46c>
        {
          if ((HAL_GetTick() - tickstart) > RCC_LSE_TIMEOUT_VALUE)
 800439c:	f7fd fe8c 	bl	80020b8 <HAL_GetTick>
 80043a0:	0002      	movs	r2, r0
 80043a2:	693b      	ldr	r3, [r7, #16]
 80043a4:	1ad3      	subs	r3, r2, r3
 80043a6:	4a72      	ldr	r2, [pc, #456]	; (8004570 <HAL_RCC_OscConfig+0x62c>)
 80043a8:	4293      	cmp	r3, r2
 80043aa:	d901      	bls.n	80043b0 <HAL_RCC_OscConfig+0x46c>
          {
            return HAL_TIMEOUT;
 80043ac:	2303      	movs	r3, #3
 80043ae:	e0d7      	b.n	8004560 <HAL_RCC_OscConfig+0x61c>
        while (READ_BIT(RCC->BDCR, RCC_BDCR_LSERDY) != 0U)
 80043b0:	4b6d      	ldr	r3, [pc, #436]	; (8004568 <HAL_RCC_OscConfig+0x624>)
 80043b2:	6ddb      	ldr	r3, [r3, #92]	; 0x5c
 80043b4:	2202      	movs	r2, #2
 80043b6:	4013      	ands	r3, r2
 80043b8:	d1f0      	bne.n	800439c <HAL_RCC_OscConfig+0x458>
          }
        }
      }

      /* Restore clock configuration if changed */
      if (pwrclkchanged == SET)
 80043ba:	231f      	movs	r3, #31
 80043bc:	18fb      	adds	r3, r7, r3
 80043be:	781b      	ldrb	r3, [r3, #0]
 80043c0:	2b01      	cmp	r3, #1
 80043c2:	d105      	bne.n	80043d0 <HAL_RCC_OscConfig+0x48c>
      {
        __HAL_RCC_PWR_CLK_DISABLE();
 80043c4:	4b68      	ldr	r3, [pc, #416]	; (8004568 <HAL_RCC_OscConfig+0x624>)
 80043c6:	6bda      	ldr	r2, [r3, #60]	; 0x3c
 80043c8:	4b67      	ldr	r3, [pc, #412]	; (8004568 <HAL_RCC_OscConfig+0x624>)
 80043ca:	496a      	ldr	r1, [pc, #424]	; (8004574 <HAL_RCC_OscConfig+0x630>)
 80043cc:	400a      	ands	r2, r1
 80043ce:	63da      	str	r2, [r3, #60]	; 0x3c
#endif /* RCC_HSI48_SUPPORT */
  /*-------------------------------- PLL Configuration -----------------------*/
  /* Check the parameters */
  assert_param(IS_RCC_PLL(RCC_OscInitStruct->PLL.PLLState));

  if (RCC_OscInitStruct->PLL.PLLState != RCC_PLL_NONE)
 80043d0:	687b      	ldr	r3, [r7, #4]
 80043d2:	69db      	ldr	r3, [r3, #28]
 80043d4:	2b00      	cmp	r3, #0
 80043d6:	d100      	bne.n	80043da <HAL_RCC_OscConfig+0x496>
 80043d8:	e0c1      	b.n	800455e <HAL_RCC_OscConfig+0x61a>
  {
    /* Check if the PLL is used as system clock or not */
    if (__HAL_RCC_GET_SYSCLK_SOURCE() != RCC_SYSCLKSOURCE_STATUS_PLLCLK)
 80043da:	4b63      	ldr	r3, [pc, #396]	; (8004568 <HAL_RCC_OscConfig+0x624>)
 80043dc:	689b      	ldr	r3, [r3, #8]
 80043de:	2238      	movs	r2, #56	; 0x38
 80043e0:	4013      	ands	r3, r2
 80043e2:	2b10      	cmp	r3, #16
 80043e4:	d100      	bne.n	80043e8 <HAL_RCC_OscConfig+0x4a4>
 80043e6:	e081      	b.n	80044ec <HAL_RCC_OscConfig+0x5a8>
    {
      if (RCC_OscInitStruct->PLL.PLLState == RCC_PLL_ON)
 80043e8:	687b      	ldr	r3, [r7, #4]
 80043ea:	69db      	ldr	r3, [r3, #28]
 80043ec:	2b02      	cmp	r3, #2
 80043ee:	d156      	bne.n	800449e <HAL_RCC_OscConfig+0x55a>
        assert_param(IS_RCC_PLLQ_VALUE(RCC_OscInitStruct->PLL.PLLQ));
#endif /* RCC_PLLQ_SUPPORT */
        assert_param(IS_RCC_PLLR_VALUE(RCC_OscInitStruct->PLL.PLLR));

        /* Disable the main PLL. */
        __HAL_RCC_PLL_DISABLE();
 80043f0:	4b5d      	ldr	r3, [pc, #372]	; (8004568 <HAL_RCC_OscConfig+0x624>)
 80043f2:	681a      	ldr	r2, [r3, #0]
 80043f4:	4b5c      	ldr	r3, [pc, #368]	; (8004568 <HAL_RCC_OscConfig+0x624>)
 80043f6:	4960      	ldr	r1, [pc, #384]	; (8004578 <HAL_RCC_OscConfig+0x634>)
 80043f8:	400a      	ands	r2, r1
 80043fa:	601a      	str	r2, [r3, #0]

        /* Get Start Tick*/
        tickstart = HAL_GetTick();
 80043fc:	f7fd fe5c 	bl	80020b8 <HAL_GetTick>
 8004400:	0003      	movs	r3, r0
 8004402:	613b      	str	r3, [r7, #16]

        /* Wait till PLL is ready */
        while (READ_BIT(RCC->CR, RCC_CR_PLLRDY) != 0U)
 8004404:	e008      	b.n	8004418 <HAL_RCC_OscConfig+0x4d4>
        {
          if ((HAL_GetTick() - tickstart) > PLL_TIMEOUT_VALUE)
 8004406:	f7fd fe57 	bl	80020b8 <HAL_GetTick>
 800440a:	0002      	movs	r2, r0
 800440c:	693b      	ldr	r3, [r7, #16]
 800440e:	1ad3      	subs	r3, r2, r3
 8004410:	2b02      	cmp	r3, #2
 8004412:	d901      	bls.n	8004418 <HAL_RCC_OscConfig+0x4d4>
          {
            return HAL_TIMEOUT;
 8004414:	2303      	movs	r3, #3
 8004416:	e0a3      	b.n	8004560 <HAL_RCC_OscConfig+0x61c>
        while (READ_BIT(RCC->CR, RCC_CR_PLLRDY) != 0U)
 8004418:	4b53      	ldr	r3, [pc, #332]	; (8004568 <HAL_RCC_OscConfig+0x624>)
 800441a:	681a      	ldr	r2, [r3, #0]
 800441c:	2380      	movs	r3, #128	; 0x80
 800441e:	049b      	lsls	r3, r3, #18
 8004420:	4013      	ands	r3, r2
 8004422:	d1f0      	bne.n	8004406 <HAL_RCC_OscConfig+0x4c2>
          }
        }

        /* Configure the main PLL clock source, multiplication and division factors. */
        __HAL_RCC_PLL_CONFIG(RCC_OscInitStruct->PLL.PLLSource,
 8004424:	4b50      	ldr	r3, [pc, #320]	; (8004568 <HAL_RCC_OscConfig+0x624>)
 8004426:	68db      	ldr	r3, [r3, #12]
 8004428:	4a54      	ldr	r2, [pc, #336]	; (800457c <HAL_RCC_OscConfig+0x638>)
 800442a:	4013      	ands	r3, r2
 800442c:	0019      	movs	r1, r3
 800442e:	687b      	ldr	r3, [r7, #4]
 8004430:	6a1a      	ldr	r2, [r3, #32]
 8004432:	687b      	ldr	r3, [r7, #4]
 8004434:	6a5b      	ldr	r3, [r3, #36]	; 0x24
 8004436:	431a      	orrs	r2, r3
 8004438:	687b      	ldr	r3, [r7, #4]
 800443a:	6a9b      	ldr	r3, [r3, #40]	; 0x28
 800443c:	021b      	lsls	r3, r3, #8
 800443e:	431a      	orrs	r2, r3
 8004440:	687b      	ldr	r3, [r7, #4]
 8004442:	6adb      	ldr	r3, [r3, #44]	; 0x2c
 8004444:	431a      	orrs	r2, r3
 8004446:	687b      	ldr	r3, [r7, #4]
 8004448:	6b1b      	ldr	r3, [r3, #48]	; 0x30
 800444a:	431a      	orrs	r2, r3
 800444c:	687b      	ldr	r3, [r7, #4]
 800444e:	6b5b      	ldr	r3, [r3, #52]	; 0x34
 8004450:	431a      	orrs	r2, r3
 8004452:	4b45      	ldr	r3, [pc, #276]	; (8004568 <HAL_RCC_OscConfig+0x624>)
 8004454:	430a      	orrs	r2, r1
 8004456:	60da      	str	r2, [r3, #12]
                             RCC_OscInitStruct->PLL.PLLQ,
#endif /* RCC_PLLQ_SUPPORT */
                             RCC_OscInitStruct->PLL.PLLR);

        /* Enable the main PLL. */
        __HAL_RCC_PLL_ENABLE();
 8004458:	4b43      	ldr	r3, [pc, #268]	; (8004568 <HAL_RCC_OscConfig+0x624>)
 800445a:	681a      	ldr	r2, [r3, #0]
 800445c:	4b42      	ldr	r3, [pc, #264]	; (8004568 <HAL_RCC_OscConfig+0x624>)
 800445e:	2180      	movs	r1, #128	; 0x80
 8004460:	0449      	lsls	r1, r1, #17
 8004462:	430a      	orrs	r2, r1
 8004464:	601a      	str	r2, [r3, #0]

        /* Enable PLLR Clock output. */
        __HAL_RCC_PLLCLKOUT_ENABLE(RCC_PLLRCLK);
 8004466:	4b40      	ldr	r3, [pc, #256]	; (8004568 <HAL_RCC_OscConfig+0x624>)
 8004468:	68da      	ldr	r2, [r3, #12]
 800446a:	4b3f      	ldr	r3, [pc, #252]	; (8004568 <HAL_RCC_OscConfig+0x624>)
 800446c:	2180      	movs	r1, #128	; 0x80
 800446e:	0549      	lsls	r1, r1, #21
 8004470:	430a      	orrs	r2, r1
 8004472:	60da      	str	r2, [r3, #12]

        /* Get Start Tick*/
        tickstart = HAL_GetTick();
 8004474:	f7fd fe20 	bl	80020b8 <HAL_GetTick>
 8004478:	0003      	movs	r3, r0
 800447a:	613b      	str	r3, [r7, #16]

        /* Wait till PLL is ready */
        while (READ_BIT(RCC->CR, RCC_CR_PLLRDY) == 0U)
 800447c:	e008      	b.n	8004490 <HAL_RCC_OscConfig+0x54c>
        {
          if ((HAL_GetTick() - tickstart) > PLL_TIMEOUT_VALUE)
 800447e:	f7fd fe1b 	bl	80020b8 <HAL_GetTick>
 8004482:	0002      	movs	r2, r0
 8004484:	693b      	ldr	r3, [r7, #16]
 8004486:	1ad3      	subs	r3, r2, r3
 8004488:	2b02      	cmp	r3, #2
 800448a:	d901      	bls.n	8004490 <HAL_RCC_OscConfig+0x54c>
          {
            return HAL_TIMEOUT;
 800448c:	2303      	movs	r3, #3
 800448e:	e067      	b.n	8004560 <HAL_RCC_OscConfig+0x61c>
        while (READ_BIT(RCC->CR, RCC_CR_PLLRDY) == 0U)
 8004490:	4b35      	ldr	r3, [pc, #212]	; (8004568 <HAL_RCC_OscConfig+0x624>)
 8004492:	681a      	ldr	r2, [r3, #0]
 8004494:	2380      	movs	r3, #128	; 0x80
 8004496:	049b      	lsls	r3, r3, #18
 8004498:	4013      	ands	r3, r2
 800449a:	d0f0      	beq.n	800447e <HAL_RCC_OscConfig+0x53a>
 800449c:	e05f      	b.n	800455e <HAL_RCC_OscConfig+0x61a>
        }
      }
      else
      {
        /* Disable the main PLL. */
        __HAL_RCC_PLL_DISABLE();
 800449e:	4b32      	ldr	r3, [pc, #200]	; (8004568 <HAL_RCC_OscConfig+0x624>)
 80044a0:	681a      	ldr	r2, [r3, #0]
 80044a2:	4b31      	ldr	r3, [pc, #196]	; (8004568 <HAL_RCC_OscConfig+0x624>)
 80044a4:	4934      	ldr	r1, [pc, #208]	; (8004578 <HAL_RCC_OscConfig+0x634>)
 80044a6:	400a      	ands	r2, r1
 80044a8:	601a      	str	r2, [r3, #0]

        /* Disable all PLL outputs to save power */
        MODIFY_REG(RCC->PLLCFGR, RCC_PLLCFGR_PLLSRC, PLLSOURCE_NONE);
 80044aa:	4b2f      	ldr	r3, [pc, #188]	; (8004568 <HAL_RCC_OscConfig+0x624>)
 80044ac:	68da      	ldr	r2, [r3, #12]
 80044ae:	4b2e      	ldr	r3, [pc, #184]	; (8004568 <HAL_RCC_OscConfig+0x624>)
 80044b0:	2103      	movs	r1, #3
 80044b2:	438a      	bics	r2, r1
 80044b4:	60da      	str	r2, [r3, #12]

#if defined(RCC_PLLQ_SUPPORT)
        __HAL_RCC_PLLCLKOUT_DISABLE(RCC_PLLCFGR_PLLPEN | RCC_PLLCFGR_PLLQEN | RCC_PLLCFGR_PLLREN);
 80044b6:	4b2c      	ldr	r3, [pc, #176]	; (8004568 <HAL_RCC_OscConfig+0x624>)
 80044b8:	68da      	ldr	r2, [r3, #12]
 80044ba:	4b2b      	ldr	r3, [pc, #172]	; (8004568 <HAL_RCC_OscConfig+0x624>)
 80044bc:	4930      	ldr	r1, [pc, #192]	; (8004580 <HAL_RCC_OscConfig+0x63c>)
 80044be:	400a      	ands	r2, r1
 80044c0:	60da      	str	r2, [r3, #12]
#else
        __HAL_RCC_PLLCLKOUT_DISABLE(RCC_PLLCFGR_PLLPEN | RCC_PLLCFGR_PLLREN);
#endif /* RCC_PLLQ_SUPPORT */

        /* Get Start Tick*/
        tickstart = HAL_GetTick();
 80044c2:	f7fd fdf9 	bl	80020b8 <HAL_GetTick>
 80044c6:	0003      	movs	r3, r0
 80044c8:	613b      	str	r3, [r7, #16]

        /* Wait till PLL is disabled */
        while (READ_BIT(RCC->CR, RCC_CR_PLLRDY) != 0U)
 80044ca:	e008      	b.n	80044de <HAL_RCC_OscConfig+0x59a>
        {
          if ((HAL_GetTick() - tickstart) > PLL_TIMEOUT_VALUE)
 80044cc:	f7fd fdf4 	bl	80020b8 <HAL_GetTick>
 80044d0:	0002      	movs	r2, r0
 80044d2:	693b      	ldr	r3, [r7, #16]
 80044d4:	1ad3      	subs	r3, r2, r3
 80044d6:	2b02      	cmp	r3, #2
 80044d8:	d901      	bls.n	80044de <HAL_RCC_OscConfig+0x59a>
          {
            return HAL_TIMEOUT;
 80044da:	2303      	movs	r3, #3
 80044dc:	e040      	b.n	8004560 <HAL_RCC_OscConfig+0x61c>
        while (READ_BIT(RCC->CR, RCC_CR_PLLRDY) != 0U)
 80044de:	4b22      	ldr	r3, [pc, #136]	; (8004568 <HAL_RCC_OscConfig+0x624>)
 80044e0:	681a      	ldr	r2, [r3, #0]
 80044e2:	2380      	movs	r3, #128	; 0x80
 80044e4:	049b      	lsls	r3, r3, #18
 80044e6:	4013      	ands	r3, r2
 80044e8:	d1f0      	bne.n	80044cc <HAL_RCC_OscConfig+0x588>
 80044ea:	e038      	b.n	800455e <HAL_RCC_OscConfig+0x61a>
      }
    }
    else
    {
      /* Check if there is a request to disable the PLL used as System clock source */
      if ((RCC_OscInitStruct->PLL.PLLState) == RCC_PLL_OFF)
 80044ec:	687b      	ldr	r3, [r7, #4]
 80044ee:	69db      	ldr	r3, [r3, #28]
 80044f0:	2b01      	cmp	r3, #1
 80044f2:	d101      	bne.n	80044f8 <HAL_RCC_OscConfig+0x5b4>
      {
        return HAL_ERROR;
 80044f4:	2301      	movs	r3, #1
 80044f6:	e033      	b.n	8004560 <HAL_RCC_OscConfig+0x61c>
      }
      else
      {
        /* Do not return HAL_ERROR if request repeats the current configuration */
        temp_pllckcfg = RCC->PLLCFGR;
 80044f8:	4b1b      	ldr	r3, [pc, #108]	; (8004568 <HAL_RCC_OscConfig+0x624>)
 80044fa:	68db      	ldr	r3, [r3, #12]
 80044fc:	617b      	str	r3, [r7, #20]
        if ((READ_BIT(temp_pllckcfg, RCC_PLLCFGR_PLLSRC) != RCC_OscInitStruct->PLL.PLLSource) ||
 80044fe:	697b      	ldr	r3, [r7, #20]
 8004500:	2203      	movs	r2, #3
 8004502:	401a      	ands	r2, r3
 8004504:	687b      	ldr	r3, [r7, #4]
 8004506:	6a1b      	ldr	r3, [r3, #32]
 8004508:	429a      	cmp	r2, r3
 800450a:	d126      	bne.n	800455a <HAL_RCC_OscConfig+0x616>
            (READ_BIT(temp_pllckcfg, RCC_PLLCFGR_PLLM) != RCC_OscInitStruct->PLL.PLLM) ||
 800450c:	697b      	ldr	r3, [r7, #20]
 800450e:	2270      	movs	r2, #112	; 0x70
 8004510:	401a      	ands	r2, r3
 8004512:	687b      	ldr	r3, [r7, #4]
 8004514:	6a5b      	ldr	r3, [r3, #36]	; 0x24
        if ((READ_BIT(temp_pllckcfg, RCC_PLLCFGR_PLLSRC) != RCC_OscInitStruct->PLL.PLLSource) ||
 8004516:	429a      	cmp	r2, r3
 8004518:	d11f      	bne.n	800455a <HAL_RCC_OscConfig+0x616>
            (READ_BIT(temp_pllckcfg, RCC_PLLCFGR_PLLN) != (RCC_OscInitStruct->PLL.PLLN << RCC_PLLCFGR_PLLN_Pos)) ||
 800451a:	697a      	ldr	r2, [r7, #20]
 800451c:	23fe      	movs	r3, #254	; 0xfe
 800451e:	01db      	lsls	r3, r3, #7
 8004520:	401a      	ands	r2, r3
 8004522:	687b      	ldr	r3, [r7, #4]
 8004524:	6a9b      	ldr	r3, [r3, #40]	; 0x28
 8004526:	021b      	lsls	r3, r3, #8
            (READ_BIT(temp_pllckcfg, RCC_PLLCFGR_PLLM) != RCC_OscInitStruct->PLL.PLLM) ||
 8004528:	429a      	cmp	r2, r3
 800452a:	d116      	bne.n	800455a <HAL_RCC_OscConfig+0x616>
            (READ_BIT(temp_pllckcfg, RCC_PLLCFGR_PLLP) != RCC_OscInitStruct->PLL.PLLP) ||
 800452c:	697a      	ldr	r2, [r7, #20]
 800452e:	23f8      	movs	r3, #248	; 0xf8
 8004530:	039b      	lsls	r3, r3, #14
 8004532:	401a      	ands	r2, r3
 8004534:	687b      	ldr	r3, [r7, #4]
 8004536:	6adb      	ldr	r3, [r3, #44]	; 0x2c
            (READ_BIT(temp_pllckcfg, RCC_PLLCFGR_PLLN) != (RCC_OscInitStruct->PLL.PLLN << RCC_PLLCFGR_PLLN_Pos)) ||
 8004538:	429a      	cmp	r2, r3
 800453a:	d10e      	bne.n	800455a <HAL_RCC_OscConfig+0x616>
#if defined (RCC_PLLQ_SUPPORT)
            (READ_BIT(temp_pllckcfg, RCC_PLLCFGR_PLLQ) != RCC_OscInitStruct->PLL.PLLQ) ||
 800453c:	697a      	ldr	r2, [r7, #20]
 800453e:	23e0      	movs	r3, #224	; 0xe0
 8004540:	051b      	lsls	r3, r3, #20
 8004542:	401a      	ands	r2, r3
 8004544:	687b      	ldr	r3, [r7, #4]
 8004546:	6b1b      	ldr	r3, [r3, #48]	; 0x30
            (READ_BIT(temp_pllckcfg, RCC_PLLCFGR_PLLP) != RCC_OscInitStruct->PLL.PLLP) ||
 8004548:	429a      	cmp	r2, r3
 800454a:	d106      	bne.n	800455a <HAL_RCC_OscConfig+0x616>
#endif /* RCC_PLLQ_SUPPORT */
            (READ_BIT(temp_pllckcfg, RCC_PLLCFGR_PLLR) != RCC_OscInitStruct->PLL.PLLR))
 800454c:	697b      	ldr	r3, [r7, #20]
 800454e:	0f5b      	lsrs	r3, r3, #29
 8004550:	075a      	lsls	r2, r3, #29
 8004552:	687b      	ldr	r3, [r7, #4]
 8004554:	6b5b      	ldr	r3, [r3, #52]	; 0x34
            (READ_BIT(temp_pllckcfg, RCC_PLLCFGR_PLLQ) != RCC_OscInitStruct->PLL.PLLQ) ||
 8004556:	429a      	cmp	r2, r3
 8004558:	d001      	beq.n	800455e <HAL_RCC_OscConfig+0x61a>
        {
          return HAL_ERROR;
 800455a:	2301      	movs	r3, #1
 800455c:	e000      	b.n	8004560 <HAL_RCC_OscConfig+0x61c>
        }
      }
    }
  }
  return HAL_OK;
 800455e:	2300      	movs	r3, #0
}
 8004560:	0018      	movs	r0, r3
 8004562:	46bd      	mov	sp, r7
 8004564:	b008      	add	sp, #32
 8004566:	bd80      	pop	{r7, pc}
 8004568:	40021000 	.word	0x40021000
 800456c:	40007000 	.word	0x40007000
 8004570:	00001388 	.word	0x00001388
 8004574:	efffffff 	.word	0xefffffff
 8004578:	feffffff 	.word	0xfeffffff
 800457c:	11c1808c 	.word	0x11c1808c
 8004580:	eefeffff 	.word	0xeefeffff

08004584 <HAL_RCC_ClockConfig>:
  *         HPRE[3:0] bits to ensure that HCLK not exceed the maximum allowed frequency
  *         (for more details refer to section above "Initialization/de-initialization functions")
  * @retval None
  */
HAL_StatusTypeDef HAL_RCC_ClockConfig(RCC_ClkInitTypeDef  *RCC_ClkInitStruct, uint32_t FLatency)
{
 8004584:	b580      	push	{r7, lr}
 8004586:	b084      	sub	sp, #16
 8004588:	af00      	add	r7, sp, #0
 800458a:	6078      	str	r0, [r7, #4]
 800458c:	6039      	str	r1, [r7, #0]
  uint32_t tickstart;

  /* Check Null pointer */
  if (RCC_ClkInitStruct == NULL)
 800458e:	687b      	ldr	r3, [r7, #4]
 8004590:	2b00      	cmp	r3, #0
 8004592:	d101      	bne.n	8004598 <HAL_RCC_ClockConfig+0x14>
  {
    return HAL_ERROR;
 8004594:	2301      	movs	r3, #1
 8004596:	e0e9      	b.n	800476c <HAL_RCC_ClockConfig+0x1e8>
  /* To correctly read data from FLASH memory, the number of wait states (LATENCY)
    must be correctly programmed according to the frequency of the FLASH clock
    (HCLK) and the supply voltage of the device. */

  /* Increasing the number of wait states because of higher CPU frequency */
  if (FLatency > __HAL_FLASH_GET_LATENCY())
 8004598:	4b76      	ldr	r3, [pc, #472]	; (8004774 <HAL_RCC_ClockConfig+0x1f0>)
 800459a:	681b      	ldr	r3, [r3, #0]
 800459c:	2207      	movs	r2, #7
 800459e:	4013      	ands	r3, r2
 80045a0:	683a      	ldr	r2, [r7, #0]
 80045a2:	429a      	cmp	r2, r3
 80045a4:	d91e      	bls.n	80045e4 <HAL_RCC_ClockConfig+0x60>
  {
    /* Program the new number of wait states to the LATENCY bits in the FLASH_ACR register */
    __HAL_FLASH_SET_LATENCY(FLatency);
 80045a6:	4b73      	ldr	r3, [pc, #460]	; (8004774 <HAL_RCC_ClockConfig+0x1f0>)
 80045a8:	681b      	ldr	r3, [r3, #0]
 80045aa:	2207      	movs	r2, #7
 80045ac:	4393      	bics	r3, r2
 80045ae:	0019      	movs	r1, r3
 80045b0:	4b70      	ldr	r3, [pc, #448]	; (8004774 <HAL_RCC_ClockConfig+0x1f0>)
 80045b2:	683a      	ldr	r2, [r7, #0]
 80045b4:	430a      	orrs	r2, r1
 80045b6:	601a      	str	r2, [r3, #0]

    /* Check that the new number of wait states is taken into account to access the Flash
    memory by polling the FLASH_ACR register */
    tickstart = HAL_GetTick();
 80045b8:	f7fd fd7e 	bl	80020b8 <HAL_GetTick>
 80045bc:	0003      	movs	r3, r0
 80045be:	60fb      	str	r3, [r7, #12]

    while ((FLASH->ACR & FLASH_ACR_LATENCY) != FLatency)
 80045c0:	e009      	b.n	80045d6 <HAL_RCC_ClockConfig+0x52>
    {
      if ((HAL_GetTick() - tickstart) > CLOCKSWITCH_TIMEOUT_VALUE)
 80045c2:	f7fd fd79 	bl	80020b8 <HAL_GetTick>
 80045c6:	0002      	movs	r2, r0
 80045c8:	68fb      	ldr	r3, [r7, #12]
 80045ca:	1ad3      	subs	r3, r2, r3
 80045cc:	4a6a      	ldr	r2, [pc, #424]	; (8004778 <HAL_RCC_ClockConfig+0x1f4>)
 80045ce:	4293      	cmp	r3, r2
 80045d0:	d901      	bls.n	80045d6 <HAL_RCC_ClockConfig+0x52>
      {
        return HAL_TIMEOUT;
 80045d2:	2303      	movs	r3, #3
 80045d4:	e0ca      	b.n	800476c <HAL_RCC_ClockConfig+0x1e8>
    while ((FLASH->ACR & FLASH_ACR_LATENCY) != FLatency)
 80045d6:	4b67      	ldr	r3, [pc, #412]	; (8004774 <HAL_RCC_ClockConfig+0x1f0>)
 80045d8:	681b      	ldr	r3, [r3, #0]
 80045da:	2207      	movs	r2, #7
 80045dc:	4013      	ands	r3, r2
 80045de:	683a      	ldr	r2, [r7, #0]
 80045e0:	429a      	cmp	r2, r3
 80045e2:	d1ee      	bne.n	80045c2 <HAL_RCC_ClockConfig+0x3e>
      }
    }
  }

  /*-------------------------- HCLK Configuration --------------------------*/
  if (((RCC_ClkInitStruct->ClockType) & RCC_CLOCKTYPE_HCLK) == RCC_CLOCKTYPE_HCLK)
 80045e4:	687b      	ldr	r3, [r7, #4]
 80045e6:	681b      	ldr	r3, [r3, #0]
 80045e8:	2202      	movs	r2, #2
 80045ea:	4013      	ands	r3, r2
 80045ec:	d015      	beq.n	800461a <HAL_RCC_ClockConfig+0x96>
  {
    /* Set the highest APB divider in order to ensure that we do not go through
       a non-spec phase whatever we decrease or increase HCLK. */
    if (((RCC_ClkInitStruct->ClockType) & RCC_CLOCKTYPE_PCLK1) == RCC_CLOCKTYPE_PCLK1)
 80045ee:	687b      	ldr	r3, [r7, #4]
 80045f0:	681b      	ldr	r3, [r3, #0]
 80045f2:	2204      	movs	r2, #4
 80045f4:	4013      	ands	r3, r2
 80045f6:	d006      	beq.n	8004606 <HAL_RCC_ClockConfig+0x82>
    {
      MODIFY_REG(RCC->CFGR, RCC_CFGR_PPRE, RCC_HCLK_DIV16);
 80045f8:	4b60      	ldr	r3, [pc, #384]	; (800477c <HAL_RCC_ClockConfig+0x1f8>)
 80045fa:	689a      	ldr	r2, [r3, #8]
 80045fc:	4b5f      	ldr	r3, [pc, #380]	; (800477c <HAL_RCC_ClockConfig+0x1f8>)
 80045fe:	21e0      	movs	r1, #224	; 0xe0
 8004600:	01c9      	lsls	r1, r1, #7
 8004602:	430a      	orrs	r2, r1
 8004604:	609a      	str	r2, [r3, #8]
    }

    /* Set the new HCLK clock divider */
    assert_param(IS_RCC_HCLK(RCC_ClkInitStruct->AHBCLKDivider));
    MODIFY_REG(RCC->CFGR, RCC_CFGR_HPRE, RCC_ClkInitStruct->AHBCLKDivider);
 8004606:	4b5d      	ldr	r3, [pc, #372]	; (800477c <HAL_RCC_ClockConfig+0x1f8>)
 8004608:	689b      	ldr	r3, [r3, #8]
 800460a:	4a5d      	ldr	r2, [pc, #372]	; (8004780 <HAL_RCC_ClockConfig+0x1fc>)
 800460c:	4013      	ands	r3, r2
 800460e:	0019      	movs	r1, r3
 8004610:	687b      	ldr	r3, [r7, #4]
 8004612:	689a      	ldr	r2, [r3, #8]
 8004614:	4b59      	ldr	r3, [pc, #356]	; (800477c <HAL_RCC_ClockConfig+0x1f8>)
 8004616:	430a      	orrs	r2, r1
 8004618:	609a      	str	r2, [r3, #8]
  }

  /*------------------------- SYSCLK Configuration ---------------------------*/
  if (((RCC_ClkInitStruct->ClockType) & RCC_CLOCKTYPE_SYSCLK) == RCC_CLOCKTYPE_SYSCLK)
 800461a:	687b      	ldr	r3, [r7, #4]
 800461c:	681b      	ldr	r3, [r3, #0]
 800461e:	2201      	movs	r2, #1
 8004620:	4013      	ands	r3, r2
 8004622:	d057      	beq.n	80046d4 <HAL_RCC_ClockConfig+0x150>
  {
    assert_param(IS_RCC_SYSCLKSOURCE(RCC_ClkInitStruct->SYSCLKSource));

    /* HSE is selected as System Clock Source */
    if (RCC_ClkInitStruct->SYSCLKSource == RCC_SYSCLKSOURCE_HSE)
 8004624:	687b      	ldr	r3, [r7, #4]
 8004626:	685b      	ldr	r3, [r3, #4]
 8004628:	2b01      	cmp	r3, #1
 800462a:	d107      	bne.n	800463c <HAL_RCC_ClockConfig+0xb8>
    {
      /* Check the HSE ready flag */
      if (READ_BIT(RCC->CR, RCC_CR_HSERDY) == 0U)
 800462c:	4b53      	ldr	r3, [pc, #332]	; (800477c <HAL_RCC_ClockConfig+0x1f8>)
 800462e:	681a      	ldr	r2, [r3, #0]
 8004630:	2380      	movs	r3, #128	; 0x80
 8004632:	029b      	lsls	r3, r3, #10
 8004634:	4013      	ands	r3, r2
 8004636:	d12b      	bne.n	8004690 <HAL_RCC_ClockConfig+0x10c>
      {
        return HAL_ERROR;
 8004638:	2301      	movs	r3, #1
 800463a:	e097      	b.n	800476c <HAL_RCC_ClockConfig+0x1e8>
      }
    }
    /* PLL is selected as System Clock Source */
    else if (RCC_ClkInitStruct->SYSCLKSource == RCC_SYSCLKSOURCE_PLLCLK)
 800463c:	687b      	ldr	r3, [r7, #4]
 800463e:	685b      	ldr	r3, [r3, #4]
 8004640:	2b02      	cmp	r3, #2
 8004642:	d107      	bne.n	8004654 <HAL_RCC_ClockConfig+0xd0>
    {
      /* Check the PLL ready flag */
      if (READ_BIT(RCC->CR, RCC_CR_PLLRDY) == 0U)
 8004644:	4b4d      	ldr	r3, [pc, #308]	; (800477c <HAL_RCC_ClockConfig+0x1f8>)
 8004646:	681a      	ldr	r2, [r3, #0]
 8004648:	2380      	movs	r3, #128	; 0x80
 800464a:	049b      	lsls	r3, r3, #18
 800464c:	4013      	ands	r3, r2
 800464e:	d11f      	bne.n	8004690 <HAL_RCC_ClockConfig+0x10c>
      {
        return HAL_ERROR;
 8004650:	2301      	movs	r3, #1
 8004652:	e08b      	b.n	800476c <HAL_RCC_ClockConfig+0x1e8>
      }
    }
    /* HSI is selected as System Clock Source */
    else if (RCC_ClkInitStruct->SYSCLKSource == RCC_SYSCLKSOURCE_HSI)
 8004654:	687b      	ldr	r3, [r7, #4]
 8004656:	685b      	ldr	r3, [r3, #4]
 8004658:	2b00      	cmp	r3, #0
 800465a:	d107      	bne.n	800466c <HAL_RCC_ClockConfig+0xe8>
    {
      /* Check the HSI ready flag */
      if (READ_BIT(RCC->CR, RCC_CR_HSIRDY) == 0U)
 800465c:	4b47      	ldr	r3, [pc, #284]	; (800477c <HAL_RCC_ClockConfig+0x1f8>)
 800465e:	681a      	ldr	r2, [r3, #0]
 8004660:	2380      	movs	r3, #128	; 0x80
 8004662:	00db      	lsls	r3, r3, #3
 8004664:	4013      	ands	r3, r2
 8004666:	d113      	bne.n	8004690 <HAL_RCC_ClockConfig+0x10c>
      {
        return HAL_ERROR;
 8004668:	2301      	movs	r3, #1
 800466a:	e07f      	b.n	800476c <HAL_RCC_ClockConfig+0x1e8>
      }
    }
    /* LSI is selected as System Clock Source */
    else if (RCC_ClkInitStruct->SYSCLKSource == RCC_SYSCLKSOURCE_LSI)
 800466c:	687b      	ldr	r3, [r7, #4]
 800466e:	685b      	ldr	r3, [r3, #4]
 8004670:	2b03      	cmp	r3, #3
 8004672:	d106      	bne.n	8004682 <HAL_RCC_ClockConfig+0xfe>
    {
      /* Check the LSI ready flag */
      if (READ_BIT(RCC->CSR, RCC_CSR_LSIRDY) == 0U)
 8004674:	4b41      	ldr	r3, [pc, #260]	; (800477c <HAL_RCC_ClockConfig+0x1f8>)
 8004676:	6e1b      	ldr	r3, [r3, #96]	; 0x60
 8004678:	2202      	movs	r2, #2
 800467a:	4013      	ands	r3, r2
 800467c:	d108      	bne.n	8004690 <HAL_RCC_ClockConfig+0x10c>
      {
        return HAL_ERROR;
 800467e:	2301      	movs	r3, #1
 8004680:	e074      	b.n	800476c <HAL_RCC_ClockConfig+0x1e8>
    }
    /* LSE is selected as System Clock Source */
    else
    {
      /* Check the LSE ready flag */
      if (READ_BIT(RCC->BDCR, RCC_BDCR_LSERDY) == 0U)
 8004682:	4b3e      	ldr	r3, [pc, #248]	; (800477c <HAL_RCC_ClockConfig+0x1f8>)
 8004684:	6ddb      	ldr	r3, [r3, #92]	; 0x5c
 8004686:	2202      	movs	r2, #2
 8004688:	4013      	ands	r3, r2
 800468a:	d101      	bne.n	8004690 <HAL_RCC_ClockConfig+0x10c>
      {
        return HAL_ERROR;
 800468c:	2301      	movs	r3, #1
 800468e:	e06d      	b.n	800476c <HAL_RCC_ClockConfig+0x1e8>
      }
    }
    MODIFY_REG(RCC->CFGR, RCC_CFGR_SW, RCC_ClkInitStruct->SYSCLKSource);
 8004690:	4b3a      	ldr	r3, [pc, #232]	; (800477c <HAL_RCC_ClockConfig+0x1f8>)
 8004692:	689b      	ldr	r3, [r3, #8]
 8004694:	2207      	movs	r2, #7
 8004696:	4393      	bics	r3, r2
 8004698:	0019      	movs	r1, r3
 800469a:	687b      	ldr	r3, [r7, #4]
 800469c:	685a      	ldr	r2, [r3, #4]
 800469e:	4b37      	ldr	r3, [pc, #220]	; (800477c <HAL_RCC_ClockConfig+0x1f8>)
 80046a0:	430a      	orrs	r2, r1
 80046a2:	609a      	str	r2, [r3, #8]

    /* Get Start Tick*/
    tickstart = HAL_GetTick();
 80046a4:	f7fd fd08 	bl	80020b8 <HAL_GetTick>
 80046a8:	0003      	movs	r3, r0
 80046aa:	60fb      	str	r3, [r7, #12]

    while (__HAL_RCC_GET_SYSCLK_SOURCE() != (RCC_ClkInitStruct->SYSCLKSource << RCC_CFGR_SWS_Pos))
 80046ac:	e009      	b.n	80046c2 <HAL_RCC_ClockConfig+0x13e>
    {
      if ((HAL_GetTick() - tickstart) > CLOCKSWITCH_TIMEOUT_VALUE)
 80046ae:	f7fd fd03 	bl	80020b8 <HAL_GetTick>
 80046b2:	0002      	movs	r2, r0
 80046b4:	68fb      	ldr	r3, [r7, #12]
 80046b6:	1ad3      	subs	r3, r2, r3
 80046b8:	4a2f      	ldr	r2, [pc, #188]	; (8004778 <HAL_RCC_ClockConfig+0x1f4>)
 80046ba:	4293      	cmp	r3, r2
 80046bc:	d901      	bls.n	80046c2 <HAL_RCC_ClockConfig+0x13e>
      {
        return HAL_TIMEOUT;
 80046be:	2303      	movs	r3, #3
 80046c0:	e054      	b.n	800476c <HAL_RCC_ClockConfig+0x1e8>
    while (__HAL_RCC_GET_SYSCLK_SOURCE() != (RCC_ClkInitStruct->SYSCLKSource << RCC_CFGR_SWS_Pos))
 80046c2:	4b2e      	ldr	r3, [pc, #184]	; (800477c <HAL_RCC_ClockConfig+0x1f8>)
 80046c4:	689b      	ldr	r3, [r3, #8]
 80046c6:	2238      	movs	r2, #56	; 0x38
 80046c8:	401a      	ands	r2, r3
 80046ca:	687b      	ldr	r3, [r7, #4]
 80046cc:	685b      	ldr	r3, [r3, #4]
 80046ce:	00db      	lsls	r3, r3, #3
 80046d0:	429a      	cmp	r2, r3
 80046d2:	d1ec      	bne.n	80046ae <HAL_RCC_ClockConfig+0x12a>
      }
    }
  }

  /* Decreasing the number of wait states because of lower CPU frequency */
  if (FLatency < __HAL_FLASH_GET_LATENCY())
 80046d4:	4b27      	ldr	r3, [pc, #156]	; (8004774 <HAL_RCC_ClockConfig+0x1f0>)
 80046d6:	681b      	ldr	r3, [r3, #0]
 80046d8:	2207      	movs	r2, #7
 80046da:	4013      	ands	r3, r2
 80046dc:	683a      	ldr	r2, [r7, #0]
 80046de:	429a      	cmp	r2, r3
 80046e0:	d21e      	bcs.n	8004720 <HAL_RCC_ClockConfig+0x19c>
  {
    /* Program the new number of wait states to the LATENCY bits in the FLASH_ACR register */
    __HAL_FLASH_SET_LATENCY(FLatency);
 80046e2:	4b24      	ldr	r3, [pc, #144]	; (8004774 <HAL_RCC_ClockConfig+0x1f0>)
 80046e4:	681b      	ldr	r3, [r3, #0]
 80046e6:	2207      	movs	r2, #7
 80046e8:	4393      	bics	r3, r2
 80046ea:	0019      	movs	r1, r3
 80046ec:	4b21      	ldr	r3, [pc, #132]	; (8004774 <HAL_RCC_ClockConfig+0x1f0>)
 80046ee:	683a      	ldr	r2, [r7, #0]
 80046f0:	430a      	orrs	r2, r1
 80046f2:	601a      	str	r2, [r3, #0]

    /* Check that the new number of wait states is taken into account to access the Flash
    memory by polling the FLASH_ACR register */
    tickstart = HAL_GetTick();
 80046f4:	f7fd fce0 	bl	80020b8 <HAL_GetTick>
 80046f8:	0003      	movs	r3, r0
 80046fa:	60fb      	str	r3, [r7, #12]

    while ((FLASH->ACR & FLASH_ACR_LATENCY) != FLatency)
 80046fc:	e009      	b.n	8004712 <HAL_RCC_ClockConfig+0x18e>
    {
      if ((HAL_GetTick() - tickstart) > CLOCKSWITCH_TIMEOUT_VALUE)
 80046fe:	f7fd fcdb 	bl	80020b8 <HAL_GetTick>
 8004702:	0002      	movs	r2, r0
 8004704:	68fb      	ldr	r3, [r7, #12]
 8004706:	1ad3      	subs	r3, r2, r3
 8004708:	4a1b      	ldr	r2, [pc, #108]	; (8004778 <HAL_RCC_ClockConfig+0x1f4>)
 800470a:	4293      	cmp	r3, r2
 800470c:	d901      	bls.n	8004712 <HAL_RCC_ClockConfig+0x18e>
      {
        return HAL_TIMEOUT;
 800470e:	2303      	movs	r3, #3
 8004710:	e02c      	b.n	800476c <HAL_RCC_ClockConfig+0x1e8>
    while ((FLASH->ACR & FLASH_ACR_LATENCY) != FLatency)
 8004712:	4b18      	ldr	r3, [pc, #96]	; (8004774 <HAL_RCC_ClockConfig+0x1f0>)
 8004714:	681b      	ldr	r3, [r3, #0]
 8004716:	2207      	movs	r2, #7
 8004718:	4013      	ands	r3, r2
 800471a:	683a      	ldr	r2, [r7, #0]
 800471c:	429a      	cmp	r2, r3
 800471e:	d1ee      	bne.n	80046fe <HAL_RCC_ClockConfig+0x17a>
      }
    }
  }

  /*-------------------------- PCLK1 Configuration ---------------------------*/
  if (((RCC_ClkInitStruct->ClockType) & RCC_CLOCKTYPE_PCLK1) == RCC_CLOCKTYPE_PCLK1)
 8004720:	687b      	ldr	r3, [r7, #4]
 8004722:	681b      	ldr	r3, [r3, #0]
 8004724:	2204      	movs	r2, #4
 8004726:	4013      	ands	r3, r2
 8004728:	d009      	beq.n	800473e <HAL_RCC_ClockConfig+0x1ba>
  {
    assert_param(IS_RCC_PCLK(RCC_ClkInitStruct->APB1CLKDivider));
    MODIFY_REG(RCC->CFGR, RCC_CFGR_PPRE, RCC_ClkInitStruct->APB1CLKDivider);
 800472a:	4b14      	ldr	r3, [pc, #80]	; (800477c <HAL_RCC_ClockConfig+0x1f8>)
 800472c:	689b      	ldr	r3, [r3, #8]
 800472e:	4a15      	ldr	r2, [pc, #84]	; (8004784 <HAL_RCC_ClockConfig+0x200>)
 8004730:	4013      	ands	r3, r2
 8004732:	0019      	movs	r1, r3
 8004734:	687b      	ldr	r3, [r7, #4]
 8004736:	68da      	ldr	r2, [r3, #12]
 8004738:	4b10      	ldr	r3, [pc, #64]	; (800477c <HAL_RCC_ClockConfig+0x1f8>)
 800473a:	430a      	orrs	r2, r1
 800473c:	609a      	str	r2, [r3, #8]
  }

  /* Update the SystemCoreClock global variable */
  SystemCoreClock = (HAL_RCC_GetSysClockFreq() >> ((AHBPrescTable[(RCC->CFGR & RCC_CFGR_HPRE) >> RCC_CFGR_HPRE_Pos]) & 0x1FU));
 800473e:	f000 f829 	bl	8004794 <HAL_RCC_GetSysClockFreq>
 8004742:	0001      	movs	r1, r0
 8004744:	4b0d      	ldr	r3, [pc, #52]	; (800477c <HAL_RCC_ClockConfig+0x1f8>)
 8004746:	689b      	ldr	r3, [r3, #8]
 8004748:	0a1b      	lsrs	r3, r3, #8
 800474a:	220f      	movs	r2, #15
 800474c:	401a      	ands	r2, r3
 800474e:	4b0e      	ldr	r3, [pc, #56]	; (8004788 <HAL_RCC_ClockConfig+0x204>)
 8004750:	0092      	lsls	r2, r2, #2
 8004752:	58d3      	ldr	r3, [r2, r3]
 8004754:	221f      	movs	r2, #31
 8004756:	4013      	ands	r3, r2
 8004758:	000a      	movs	r2, r1
 800475a:	40da      	lsrs	r2, r3
 800475c:	4b0b      	ldr	r3, [pc, #44]	; (800478c <HAL_RCC_ClockConfig+0x208>)
 800475e:	601a      	str	r2, [r3, #0]

  /* Configure the source of time base considering new system clocks settings*/
  return HAL_InitTick(uwTickPrio);
 8004760:	4b0b      	ldr	r3, [pc, #44]	; (8004790 <HAL_RCC_ClockConfig+0x20c>)
 8004762:	681b      	ldr	r3, [r3, #0]
 8004764:	0018      	movs	r0, r3
 8004766:	f7fd fc4b 	bl	8002000 <HAL_InitTick>
 800476a:	0003      	movs	r3, r0
}
 800476c:	0018      	movs	r0, r3
 800476e:	46bd      	mov	sp, r7
 8004770:	b004      	add	sp, #16
 8004772:	bd80      	pop	{r7, pc}
 8004774:	40022000 	.word	0x40022000
 8004778:	00001388 	.word	0x00001388
 800477c:	40021000 	.word	0x40021000
 8004780:	fffff0ff 	.word	0xfffff0ff
 8004784:	ffff8fff 	.word	0xffff8fff
 8004788:	080094c4 	.word	0x080094c4
 800478c:	20000000 	.word	0x20000000
 8004790:	20000004 	.word	0x20000004

08004794 <HAL_RCC_GetSysClockFreq>:
  *
  *
  * @retval SYSCLK frequency
  */
uint32_t HAL_RCC_GetSysClockFreq(void)
{
 8004794:	b580      	push	{r7, lr}
 8004796:	b086      	sub	sp, #24
 8004798:	af00      	add	r7, sp, #0
  uint32_t pllvco, pllsource, pllr, pllm, hsidiv;
  uint32_t sysclockfreq;

  if (__HAL_RCC_GET_SYSCLK_SOURCE() == RCC_SYSCLKSOURCE_STATUS_HSI)
 800479a:	4b3c      	ldr	r3, [pc, #240]	; (800488c <HAL_RCC_GetSysClockFreq+0xf8>)
 800479c:	689b      	ldr	r3, [r3, #8]
 800479e:	2238      	movs	r2, #56	; 0x38
 80047a0:	4013      	ands	r3, r2
 80047a2:	d10f      	bne.n	80047c4 <HAL_RCC_GetSysClockFreq+0x30>
  {
    /* HSISYS can be derived for HSI16 */
    hsidiv = (1UL << ((READ_BIT(RCC->CR, RCC_CR_HSIDIV)) >> RCC_CR_HSIDIV_Pos));
 80047a4:	4b39      	ldr	r3, [pc, #228]	; (800488c <HAL_RCC_GetSysClockFreq+0xf8>)
 80047a6:	681b      	ldr	r3, [r3, #0]
 80047a8:	0adb      	lsrs	r3, r3, #11
 80047aa:	2207      	movs	r2, #7
 80047ac:	4013      	ands	r3, r2
 80047ae:	2201      	movs	r2, #1
 80047b0:	409a      	lsls	r2, r3
 80047b2:	0013      	movs	r3, r2
 80047b4:	603b      	str	r3, [r7, #0]

    /* HSI used as system clock source */
    sysclockfreq = (HSI_VALUE / hsidiv);
 80047b6:	6839      	ldr	r1, [r7, #0]
 80047b8:	4835      	ldr	r0, [pc, #212]	; (8004890 <HAL_RCC_GetSysClockFreq+0xfc>)
 80047ba:	f7fb fca5 	bl	8000108 <__udivsi3>
 80047be:	0003      	movs	r3, r0
 80047c0:	613b      	str	r3, [r7, #16]
 80047c2:	e05d      	b.n	8004880 <HAL_RCC_GetSysClockFreq+0xec>
  }
  else if (__HAL_RCC_GET_SYSCLK_SOURCE() == RCC_SYSCLKSOURCE_STATUS_HSE)
 80047c4:	4b31      	ldr	r3, [pc, #196]	; (800488c <HAL_RCC_GetSysClockFreq+0xf8>)
 80047c6:	689b      	ldr	r3, [r3, #8]
 80047c8:	2238      	movs	r2, #56	; 0x38
 80047ca:	4013      	ands	r3, r2
 80047cc:	2b08      	cmp	r3, #8
 80047ce:	d102      	bne.n	80047d6 <HAL_RCC_GetSysClockFreq+0x42>
  {
    /* HSE used as system clock source */
    sysclockfreq = HSE_VALUE;
 80047d0:	4b30      	ldr	r3, [pc, #192]	; (8004894 <HAL_RCC_GetSysClockFreq+0x100>)
 80047d2:	613b      	str	r3, [r7, #16]
 80047d4:	e054      	b.n	8004880 <HAL_RCC_GetSysClockFreq+0xec>
  }
  else if (__HAL_RCC_GET_SYSCLK_SOURCE() == RCC_SYSCLKSOURCE_STATUS_PLLCLK)
 80047d6:	4b2d      	ldr	r3, [pc, #180]	; (800488c <HAL_RCC_GetSysClockFreq+0xf8>)
 80047d8:	689b      	ldr	r3, [r3, #8]
 80047da:	2238      	movs	r2, #56	; 0x38
 80047dc:	4013      	ands	r3, r2
 80047de:	2b10      	cmp	r3, #16
 80047e0:	d138      	bne.n	8004854 <HAL_RCC_GetSysClockFreq+0xc0>
    /* PLL used as system clock  source */

    /* PLL_VCO = ((HSE_VALUE or HSI_VALUE)/ PLLM) * PLLN
    SYSCLK = PLL_VCO / PLLR
    */
    pllsource = (RCC->PLLCFGR & RCC_PLLCFGR_PLLSRC);
 80047e2:	4b2a      	ldr	r3, [pc, #168]	; (800488c <HAL_RCC_GetSysClockFreq+0xf8>)
 80047e4:	68db      	ldr	r3, [r3, #12]
 80047e6:	2203      	movs	r2, #3
 80047e8:	4013      	ands	r3, r2
 80047ea:	60fb      	str	r3, [r7, #12]
    pllm = ((RCC->PLLCFGR & RCC_PLLCFGR_PLLM) >> RCC_PLLCFGR_PLLM_Pos) + 1U ;
 80047ec:	4b27      	ldr	r3, [pc, #156]	; (800488c <HAL_RCC_GetSysClockFreq+0xf8>)
 80047ee:	68db      	ldr	r3, [r3, #12]
 80047f0:	091b      	lsrs	r3, r3, #4
 80047f2:	2207      	movs	r2, #7
 80047f4:	4013      	ands	r3, r2
 80047f6:	3301      	adds	r3, #1
 80047f8:	60bb      	str	r3, [r7, #8]

    switch (pllsource)
 80047fa:	68fb      	ldr	r3, [r7, #12]
 80047fc:	2b03      	cmp	r3, #3
 80047fe:	d10d      	bne.n	800481c <HAL_RCC_GetSysClockFreq+0x88>
    {
      case RCC_PLLSOURCE_HSE:  /* HSE used as PLL clock source */
        pllvco = (HSE_VALUE / pllm) * ((RCC->PLLCFGR & RCC_PLLCFGR_PLLN) >> RCC_PLLCFGR_PLLN_Pos);
 8004800:	68b9      	ldr	r1, [r7, #8]
 8004802:	4824      	ldr	r0, [pc, #144]	; (8004894 <HAL_RCC_GetSysClockFreq+0x100>)
 8004804:	f7fb fc80 	bl	8000108 <__udivsi3>
 8004808:	0003      	movs	r3, r0
 800480a:	0019      	movs	r1, r3
 800480c:	4b1f      	ldr	r3, [pc, #124]	; (800488c <HAL_RCC_GetSysClockFreq+0xf8>)
 800480e:	68db      	ldr	r3, [r3, #12]
 8004810:	0a1b      	lsrs	r3, r3, #8
 8004812:	227f      	movs	r2, #127	; 0x7f
 8004814:	4013      	ands	r3, r2
 8004816:	434b      	muls	r3, r1
 8004818:	617b      	str	r3, [r7, #20]
        break;
 800481a:	e00d      	b.n	8004838 <HAL_RCC_GetSysClockFreq+0xa4>

      case RCC_PLLSOURCE_HSI:  /* HSI16 used as PLL clock source */
      default:                 /* HSI16 used as PLL clock source */
        pllvco = (HSI_VALUE / pllm) * ((RCC->PLLCFGR & RCC_PLLCFGR_PLLN) >> RCC_PLLCFGR_PLLN_Pos) ;
 800481c:	68b9      	ldr	r1, [r7, #8]
 800481e:	481c      	ldr	r0, [pc, #112]	; (8004890 <HAL_RCC_GetSysClockFreq+0xfc>)
 8004820:	f7fb fc72 	bl	8000108 <__udivsi3>
 8004824:	0003      	movs	r3, r0
 8004826:	0019      	movs	r1, r3
 8004828:	4b18      	ldr	r3, [pc, #96]	; (800488c <HAL_RCC_GetSysClockFreq+0xf8>)
 800482a:	68db      	ldr	r3, [r3, #12]
 800482c:	0a1b      	lsrs	r3, r3, #8
 800482e:	227f      	movs	r2, #127	; 0x7f
 8004830:	4013      	ands	r3, r2
 8004832:	434b      	muls	r3, r1
 8004834:	617b      	str	r3, [r7, #20]
        break;
 8004836:	46c0      	nop			; (mov r8, r8)
    }
    pllr = (((RCC->PLLCFGR & RCC_PLLCFGR_PLLR) >> RCC_PLLCFGR_PLLR_Pos) + 1U);
 8004838:	4b14      	ldr	r3, [pc, #80]	; (800488c <HAL_RCC_GetSysClockFreq+0xf8>)
 800483a:	68db      	ldr	r3, [r3, #12]
 800483c:	0f5b      	lsrs	r3, r3, #29
 800483e:	2207      	movs	r2, #7
 8004840:	4013      	ands	r3, r2
 8004842:	3301      	adds	r3, #1
 8004844:	607b      	str	r3, [r7, #4]
    sysclockfreq = pllvco / pllr;
 8004846:	6879      	ldr	r1, [r7, #4]
 8004848:	6978      	ldr	r0, [r7, #20]
 800484a:	f7fb fc5d 	bl	8000108 <__udivsi3>
 800484e:	0003      	movs	r3, r0
 8004850:	613b      	str	r3, [r7, #16]
 8004852:	e015      	b.n	8004880 <HAL_RCC_GetSysClockFreq+0xec>
  }
  else if (__HAL_RCC_GET_SYSCLK_SOURCE() == RCC_SYSCLKSOURCE_STATUS_LSE)
 8004854:	4b0d      	ldr	r3, [pc, #52]	; (800488c <HAL_RCC_GetSysClockFreq+0xf8>)
 8004856:	689b      	ldr	r3, [r3, #8]
 8004858:	2238      	movs	r2, #56	; 0x38
 800485a:	4013      	ands	r3, r2
 800485c:	2b20      	cmp	r3, #32
 800485e:	d103      	bne.n	8004868 <HAL_RCC_GetSysClockFreq+0xd4>
  {
    /* LSE used as system clock source */
    sysclockfreq = LSE_VALUE;
 8004860:	2380      	movs	r3, #128	; 0x80
 8004862:	021b      	lsls	r3, r3, #8
 8004864:	613b      	str	r3, [r7, #16]
 8004866:	e00b      	b.n	8004880 <HAL_RCC_GetSysClockFreq+0xec>
  }
  else if (__HAL_RCC_GET_SYSCLK_SOURCE() == RCC_SYSCLKSOURCE_STATUS_LSI)
 8004868:	4b08      	ldr	r3, [pc, #32]	; (800488c <HAL_RCC_GetSysClockFreq+0xf8>)
 800486a:	689b      	ldr	r3, [r3, #8]
 800486c:	2238      	movs	r2, #56	; 0x38
 800486e:	4013      	ands	r3, r2
 8004870:	2b18      	cmp	r3, #24
 8004872:	d103      	bne.n	800487c <HAL_RCC_GetSysClockFreq+0xe8>
  {
    /* LSI used as system clock source */
    sysclockfreq = LSI_VALUE;
 8004874:	23fa      	movs	r3, #250	; 0xfa
 8004876:	01db      	lsls	r3, r3, #7
 8004878:	613b      	str	r3, [r7, #16]
 800487a:	e001      	b.n	8004880 <HAL_RCC_GetSysClockFreq+0xec>
  }
  else
  {
    sysclockfreq = 0U;
 800487c:	2300      	movs	r3, #0
 800487e:	613b      	str	r3, [r7, #16]
  }

  return sysclockfreq;
 8004880:	693b      	ldr	r3, [r7, #16]
}
 8004882:	0018      	movs	r0, r3
 8004884:	46bd      	mov	sp, r7
 8004886:	b006      	add	sp, #24
 8004888:	bd80      	pop	{r7, pc}
 800488a:	46c0      	nop			; (mov r8, r8)
 800488c:	40021000 	.word	0x40021000
 8004890:	00f42400 	.word	0x00f42400
 8004894:	007a1200 	.word	0x007a1200

08004898 <HAL_RCCEx_PeriphCLKConfig>:
  *         the RTC clock source: in this case the access to Backup domain is enabled.
  *
  * @retval HAL status
  */
HAL_StatusTypeDef HAL_RCCEx_PeriphCLKConfig(RCC_PeriphCLKInitTypeDef  *PeriphClkInit)
{
 8004898:	b580      	push	{r7, lr}
 800489a:	b086      	sub	sp, #24
 800489c:	af00      	add	r7, sp, #0
 800489e:	6078      	str	r0, [r7, #4]
  uint32_t tmpregister;
  uint32_t tickstart;
  HAL_StatusTypeDef ret    = HAL_OK;   /* Intermediate status */
 80048a0:	2313      	movs	r3, #19
 80048a2:	18fb      	adds	r3, r7, r3
 80048a4:	2200      	movs	r2, #0
 80048a6:	701a      	strb	r2, [r3, #0]
  HAL_StatusTypeDef status = HAL_OK;   /* Final status */
 80048a8:	2312      	movs	r3, #18
 80048aa:	18fb      	adds	r3, r7, r3
 80048ac:	2200      	movs	r2, #0
 80048ae:	701a      	strb	r2, [r3, #0]

  /* Check the parameters */
  assert_param(IS_RCC_PERIPHCLOCK(PeriphClkInit->PeriphClockSelection));

  /*-------------------------- RTC clock source configuration ----------------------*/
  if ((PeriphClkInit->PeriphClockSelection & RCC_PERIPHCLK_RTC) == RCC_PERIPHCLK_RTC)
 80048b0:	687b      	ldr	r3, [r7, #4]
 80048b2:	681a      	ldr	r2, [r3, #0]
 80048b4:	2380      	movs	r3, #128	; 0x80
 80048b6:	029b      	lsls	r3, r3, #10
 80048b8:	4013      	ands	r3, r2
 80048ba:	d100      	bne.n	80048be <HAL_RCCEx_PeriphCLKConfig+0x26>
 80048bc:	e0af      	b.n	8004a1e <HAL_RCCEx_PeriphCLKConfig+0x186>
  {
    FlagStatus       pwrclkchanged = RESET;
 80048be:	2311      	movs	r3, #17
 80048c0:	18fb      	adds	r3, r7, r3
 80048c2:	2200      	movs	r2, #0
 80048c4:	701a      	strb	r2, [r3, #0]

    /* Check for RTC Parameters used to output RTCCLK */
    assert_param(IS_RCC_RTCCLKSOURCE(PeriphClkInit->RTCClockSelection));

    /* Enable Power Clock */
    if (__HAL_RCC_PWR_IS_CLK_DISABLED())
 80048c6:	4b48      	ldr	r3, [pc, #288]	; (80049e8 <HAL_RCCEx_PeriphCLKConfig+0x150>)
 80048c8:	6bda      	ldr	r2, [r3, #60]	; 0x3c
 80048ca:	2380      	movs	r3, #128	; 0x80
 80048cc:	055b      	lsls	r3, r3, #21
 80048ce:	4013      	ands	r3, r2
 80048d0:	d111      	bne.n	80048f6 <HAL_RCCEx_PeriphCLKConfig+0x5e>
    {
      __HAL_RCC_PWR_CLK_ENABLE();
 80048d2:	4b45      	ldr	r3, [pc, #276]	; (80049e8 <HAL_RCCEx_PeriphCLKConfig+0x150>)
 80048d4:	6bda      	ldr	r2, [r3, #60]	; 0x3c
 80048d6:	4b44      	ldr	r3, [pc, #272]	; (80049e8 <HAL_RCCEx_PeriphCLKConfig+0x150>)
 80048d8:	2180      	movs	r1, #128	; 0x80
 80048da:	0549      	lsls	r1, r1, #21
 80048dc:	430a      	orrs	r2, r1
 80048de:	63da      	str	r2, [r3, #60]	; 0x3c
 80048e0:	4b41      	ldr	r3, [pc, #260]	; (80049e8 <HAL_RCCEx_PeriphCLKConfig+0x150>)
 80048e2:	6bda      	ldr	r2, [r3, #60]	; 0x3c
 80048e4:	2380      	movs	r3, #128	; 0x80
 80048e6:	055b      	lsls	r3, r3, #21
 80048e8:	4013      	ands	r3, r2
 80048ea:	60bb      	str	r3, [r7, #8]
 80048ec:	68bb      	ldr	r3, [r7, #8]
      pwrclkchanged = SET;
 80048ee:	2311      	movs	r3, #17
 80048f0:	18fb      	adds	r3, r7, r3
 80048f2:	2201      	movs	r2, #1
 80048f4:	701a      	strb	r2, [r3, #0]
    }

    /* Enable write access to Backup domain */
    SET_BIT(PWR->CR1, PWR_CR1_DBP);
 80048f6:	4b3d      	ldr	r3, [pc, #244]	; (80049ec <HAL_RCCEx_PeriphCLKConfig+0x154>)
 80048f8:	681a      	ldr	r2, [r3, #0]
 80048fa:	4b3c      	ldr	r3, [pc, #240]	; (80049ec <HAL_RCCEx_PeriphCLKConfig+0x154>)
 80048fc:	2180      	movs	r1, #128	; 0x80
 80048fe:	0049      	lsls	r1, r1, #1
 8004900:	430a      	orrs	r2, r1
 8004902:	601a      	str	r2, [r3, #0]

    /* Wait for Backup domain Write protection disable */
    tickstart = HAL_GetTick();
 8004904:	f7fd fbd8 	bl	80020b8 <HAL_GetTick>
 8004908:	0003      	movs	r3, r0
 800490a:	60fb      	str	r3, [r7, #12]

    while ((PWR->CR1 & PWR_CR1_DBP) == 0U)
 800490c:	e00b      	b.n	8004926 <HAL_RCCEx_PeriphCLKConfig+0x8e>
    {
      if ((HAL_GetTick() - tickstart) > RCC_DBP_TIMEOUT_VALUE)
 800490e:	f7fd fbd3 	bl	80020b8 <HAL_GetTick>
 8004912:	0002      	movs	r2, r0
 8004914:	68fb      	ldr	r3, [r7, #12]
 8004916:	1ad3      	subs	r3, r2, r3
 8004918:	2b02      	cmp	r3, #2
 800491a:	d904      	bls.n	8004926 <HAL_RCCEx_PeriphCLKConfig+0x8e>
      {
        ret = HAL_TIMEOUT;
 800491c:	2313      	movs	r3, #19
 800491e:	18fb      	adds	r3, r7, r3
 8004920:	2203      	movs	r2, #3
 8004922:	701a      	strb	r2, [r3, #0]
        break;
 8004924:	e005      	b.n	8004932 <HAL_RCCEx_PeriphCLKConfig+0x9a>
    while ((PWR->CR1 & PWR_CR1_DBP) == 0U)
 8004926:	4b31      	ldr	r3, [pc, #196]	; (80049ec <HAL_RCCEx_PeriphCLKConfig+0x154>)
 8004928:	681a      	ldr	r2, [r3, #0]
 800492a:	2380      	movs	r3, #128	; 0x80
 800492c:	005b      	lsls	r3, r3, #1
 800492e:	4013      	ands	r3, r2
 8004930:	d0ed      	beq.n	800490e <HAL_RCCEx_PeriphCLKConfig+0x76>
      }
    }

    if (ret == HAL_OK)
 8004932:	2313      	movs	r3, #19
 8004934:	18fb      	adds	r3, r7, r3
 8004936:	781b      	ldrb	r3, [r3, #0]
 8004938:	2b00      	cmp	r3, #0
 800493a:	d15f      	bne.n	80049fc <HAL_RCCEx_PeriphCLKConfig+0x164>
    {
      /* Reset the Backup domain only if the RTC Clock source selection is modified from default */
      tmpregister = READ_BIT(RCC->BDCR, RCC_BDCR_RTCSEL);
 800493c:	4b2a      	ldr	r3, [pc, #168]	; (80049e8 <HAL_RCCEx_PeriphCLKConfig+0x150>)
 800493e:	6dda      	ldr	r2, [r3, #92]	; 0x5c
 8004940:	23c0      	movs	r3, #192	; 0xc0
 8004942:	009b      	lsls	r3, r3, #2
 8004944:	4013      	ands	r3, r2
 8004946:	617b      	str	r3, [r7, #20]

      /* Reset the Backup domain only if the RTC Clock source selection is modified */
      if ((tmpregister != RCC_RTCCLKSOURCE_NONE) && (tmpregister != PeriphClkInit->RTCClockSelection))
 8004948:	697b      	ldr	r3, [r7, #20]
 800494a:	2b00      	cmp	r3, #0
 800494c:	d019      	beq.n	8004982 <HAL_RCCEx_PeriphCLKConfig+0xea>
 800494e:	687b      	ldr	r3, [r7, #4]
 8004950:	6b5b      	ldr	r3, [r3, #52]	; 0x34
 8004952:	697a      	ldr	r2, [r7, #20]
 8004954:	429a      	cmp	r2, r3
 8004956:	d014      	beq.n	8004982 <HAL_RCCEx_PeriphCLKConfig+0xea>
      {
        /* Store the content of BDCR register before the reset of Backup Domain */
        tmpregister = READ_BIT(RCC->BDCR, ~(RCC_BDCR_RTCSEL));
 8004958:	4b23      	ldr	r3, [pc, #140]	; (80049e8 <HAL_RCCEx_PeriphCLKConfig+0x150>)
 800495a:	6ddb      	ldr	r3, [r3, #92]	; 0x5c
 800495c:	4a24      	ldr	r2, [pc, #144]	; (80049f0 <HAL_RCCEx_PeriphCLKConfig+0x158>)
 800495e:	4013      	ands	r3, r2
 8004960:	617b      	str	r3, [r7, #20]
        /* RTC Clock selection can be changed only if the Backup Domain is reset */
        __HAL_RCC_BACKUPRESET_FORCE();
 8004962:	4b21      	ldr	r3, [pc, #132]	; (80049e8 <HAL_RCCEx_PeriphCLKConfig+0x150>)
 8004964:	6dda      	ldr	r2, [r3, #92]	; 0x5c
 8004966:	4b20      	ldr	r3, [pc, #128]	; (80049e8 <HAL_RCCEx_PeriphCLKConfig+0x150>)
 8004968:	2180      	movs	r1, #128	; 0x80
 800496a:	0249      	lsls	r1, r1, #9
 800496c:	430a      	orrs	r2, r1
 800496e:	65da      	str	r2, [r3, #92]	; 0x5c
        __HAL_RCC_BACKUPRESET_RELEASE();
 8004970:	4b1d      	ldr	r3, [pc, #116]	; (80049e8 <HAL_RCCEx_PeriphCLKConfig+0x150>)
 8004972:	6dda      	ldr	r2, [r3, #92]	; 0x5c
 8004974:	4b1c      	ldr	r3, [pc, #112]	; (80049e8 <HAL_RCCEx_PeriphCLKConfig+0x150>)
 8004976:	491f      	ldr	r1, [pc, #124]	; (80049f4 <HAL_RCCEx_PeriphCLKConfig+0x15c>)
 8004978:	400a      	ands	r2, r1
 800497a:	65da      	str	r2, [r3, #92]	; 0x5c
        /* Restore the Content of BDCR register */
        RCC->BDCR = tmpregister;
 800497c:	4b1a      	ldr	r3, [pc, #104]	; (80049e8 <HAL_RCCEx_PeriphCLKConfig+0x150>)
 800497e:	697a      	ldr	r2, [r7, #20]
 8004980:	65da      	str	r2, [r3, #92]	; 0x5c
      }

      /* Wait for LSE reactivation if LSE was enable prior to Backup Domain reset */
      if (HAL_IS_BIT_SET(tmpregister, RCC_BDCR_LSEON))
 8004982:	697b      	ldr	r3, [r7, #20]
 8004984:	2201      	movs	r2, #1
 8004986:	4013      	ands	r3, r2
 8004988:	d016      	beq.n	80049b8 <HAL_RCCEx_PeriphCLKConfig+0x120>
      {
        /* Get Start Tick*/
        tickstart = HAL_GetTick();
 800498a:	f7fd fb95 	bl	80020b8 <HAL_GetTick>
 800498e:	0003      	movs	r3, r0
 8004990:	60fb      	str	r3, [r7, #12]

        /* Wait till LSE is ready */
        while (READ_BIT(RCC->BDCR, RCC_BDCR_LSERDY) == 0U)
 8004992:	e00c      	b.n	80049ae <HAL_RCCEx_PeriphCLKConfig+0x116>
        {
          if ((HAL_GetTick() - tickstart) > RCC_LSE_TIMEOUT_VALUE)
 8004994:	f7fd fb90 	bl	80020b8 <HAL_GetTick>
 8004998:	0002      	movs	r2, r0
 800499a:	68fb      	ldr	r3, [r7, #12]
 800499c:	1ad3      	subs	r3, r2, r3
 800499e:	4a16      	ldr	r2, [pc, #88]	; (80049f8 <HAL_RCCEx_PeriphCLKConfig+0x160>)
 80049a0:	4293      	cmp	r3, r2
 80049a2:	d904      	bls.n	80049ae <HAL_RCCEx_PeriphCLKConfig+0x116>
          {
            ret = HAL_TIMEOUT;
 80049a4:	2313      	movs	r3, #19
 80049a6:	18fb      	adds	r3, r7, r3
 80049a8:	2203      	movs	r2, #3
 80049aa:	701a      	strb	r2, [r3, #0]
            break;
 80049ac:	e004      	b.n	80049b8 <HAL_RCCEx_PeriphCLKConfig+0x120>
        while (READ_BIT(RCC->BDCR, RCC_BDCR_LSERDY) == 0U)
 80049ae:	4b0e      	ldr	r3, [pc, #56]	; (80049e8 <HAL_RCCEx_PeriphCLKConfig+0x150>)
 80049b0:	6ddb      	ldr	r3, [r3, #92]	; 0x5c
 80049b2:	2202      	movs	r2, #2
 80049b4:	4013      	ands	r3, r2
 80049b6:	d0ed      	beq.n	8004994 <HAL_RCCEx_PeriphCLKConfig+0xfc>
          }
        }
      }

      if (ret == HAL_OK)
 80049b8:	2313      	movs	r3, #19
 80049ba:	18fb      	adds	r3, r7, r3
 80049bc:	781b      	ldrb	r3, [r3, #0]
 80049be:	2b00      	cmp	r3, #0
 80049c0:	d10a      	bne.n	80049d8 <HAL_RCCEx_PeriphCLKConfig+0x140>
      {
        /* Apply new RTC clock source selection */
        __HAL_RCC_RTC_CONFIG(PeriphClkInit->RTCClockSelection);
 80049c2:	4b09      	ldr	r3, [pc, #36]	; (80049e8 <HAL_RCCEx_PeriphCLKConfig+0x150>)
 80049c4:	6ddb      	ldr	r3, [r3, #92]	; 0x5c
 80049c6:	4a0a      	ldr	r2, [pc, #40]	; (80049f0 <HAL_RCCEx_PeriphCLKConfig+0x158>)
 80049c8:	4013      	ands	r3, r2
 80049ca:	0019      	movs	r1, r3
 80049cc:	687b      	ldr	r3, [r7, #4]
 80049ce:	6b5a      	ldr	r2, [r3, #52]	; 0x34
 80049d0:	4b05      	ldr	r3, [pc, #20]	; (80049e8 <HAL_RCCEx_PeriphCLKConfig+0x150>)
 80049d2:	430a      	orrs	r2, r1
 80049d4:	65da      	str	r2, [r3, #92]	; 0x5c
 80049d6:	e017      	b.n	8004a08 <HAL_RCCEx_PeriphCLKConfig+0x170>
      }
      else
      {
        /* set overall return value */
        status = ret;
 80049d8:	2312      	movs	r3, #18
 80049da:	18fb      	adds	r3, r7, r3
 80049dc:	2213      	movs	r2, #19
 80049de:	18ba      	adds	r2, r7, r2
 80049e0:	7812      	ldrb	r2, [r2, #0]
 80049e2:	701a      	strb	r2, [r3, #0]
 80049e4:	e010      	b.n	8004a08 <HAL_RCCEx_PeriphCLKConfig+0x170>
 80049e6:	46c0      	nop			; (mov r8, r8)
 80049e8:	40021000 	.word	0x40021000
 80049ec:	40007000 	.word	0x40007000
 80049f0:	fffffcff 	.word	0xfffffcff
 80049f4:	fffeffff 	.word	0xfffeffff
 80049f8:	00001388 	.word	0x00001388
      }
    }
    else
    {
      /* set overall return value */
      status = ret;
 80049fc:	2312      	movs	r3, #18
 80049fe:	18fb      	adds	r3, r7, r3
 8004a00:	2213      	movs	r2, #19
 8004a02:	18ba      	adds	r2, r7, r2
 8004a04:	7812      	ldrb	r2, [r2, #0]
 8004a06:	701a      	strb	r2, [r3, #0]
    }

    /* Restore clock configuration if changed */
    if (pwrclkchanged == SET)
 8004a08:	2311      	movs	r3, #17
 8004a0a:	18fb      	adds	r3, r7, r3
 8004a0c:	781b      	ldrb	r3, [r3, #0]
 8004a0e:	2b01      	cmp	r3, #1
 8004a10:	d105      	bne.n	8004a1e <HAL_RCCEx_PeriphCLKConfig+0x186>
    {
      __HAL_RCC_PWR_CLK_DISABLE();
 8004a12:	4b84      	ldr	r3, [pc, #528]	; (8004c24 <HAL_RCCEx_PeriphCLKConfig+0x38c>)
 8004a14:	6bda      	ldr	r2, [r3, #60]	; 0x3c
 8004a16:	4b83      	ldr	r3, [pc, #524]	; (8004c24 <HAL_RCCEx_PeriphCLKConfig+0x38c>)
 8004a18:	4983      	ldr	r1, [pc, #524]	; (8004c28 <HAL_RCCEx_PeriphCLKConfig+0x390>)
 8004a1a:	400a      	ands	r2, r1
 8004a1c:	63da      	str	r2, [r3, #60]	; 0x3c
    }
  }

  /*-------------------------- USART1 clock source configuration -------------------*/
  if (((PeriphClkInit->PeriphClockSelection) & RCC_PERIPHCLK_USART1) == RCC_PERIPHCLK_USART1)
 8004a1e:	687b      	ldr	r3, [r7, #4]
 8004a20:	681b      	ldr	r3, [r3, #0]
 8004a22:	2201      	movs	r2, #1
 8004a24:	4013      	ands	r3, r2
 8004a26:	d009      	beq.n	8004a3c <HAL_RCCEx_PeriphCLKConfig+0x1a4>
  {
    /* Check the parameters */
    assert_param(IS_RCC_USART1CLKSOURCE(PeriphClkInit->Usart1ClockSelection));

    /* Configure the USART1 clock source */
    __HAL_RCC_USART1_CONFIG(PeriphClkInit->Usart1ClockSelection);
 8004a28:	4b7e      	ldr	r3, [pc, #504]	; (8004c24 <HAL_RCCEx_PeriphCLKConfig+0x38c>)
 8004a2a:	6d5b      	ldr	r3, [r3, #84]	; 0x54
 8004a2c:	2203      	movs	r2, #3
 8004a2e:	4393      	bics	r3, r2
 8004a30:	0019      	movs	r1, r3
 8004a32:	687b      	ldr	r3, [r7, #4]
 8004a34:	685a      	ldr	r2, [r3, #4]
 8004a36:	4b7b      	ldr	r3, [pc, #492]	; (8004c24 <HAL_RCCEx_PeriphCLKConfig+0x38c>)
 8004a38:	430a      	orrs	r2, r1
 8004a3a:	655a      	str	r2, [r3, #84]	; 0x54
  }

#if defined(RCC_CCIPR_USART2SEL)
  /*-------------------------- USART2 clock source configuration -------------------*/
  if (((PeriphClkInit->PeriphClockSelection) & RCC_PERIPHCLK_USART2) == RCC_PERIPHCLK_USART2)
 8004a3c:	687b      	ldr	r3, [r7, #4]
 8004a3e:	681b      	ldr	r3, [r3, #0]
 8004a40:	2202      	movs	r2, #2
 8004a42:	4013      	ands	r3, r2
 8004a44:	d009      	beq.n	8004a5a <HAL_RCCEx_PeriphCLKConfig+0x1c2>
  {
    /* Check the parameters */
    assert_param(IS_RCC_USART2CLKSOURCE(PeriphClkInit->Usart2ClockSelection));

    /* Configure the USART2 clock source */
    __HAL_RCC_USART2_CONFIG(PeriphClkInit->Usart2ClockSelection);
 8004a46:	4b77      	ldr	r3, [pc, #476]	; (8004c24 <HAL_RCCEx_PeriphCLKConfig+0x38c>)
 8004a48:	6d5b      	ldr	r3, [r3, #84]	; 0x54
 8004a4a:	220c      	movs	r2, #12
 8004a4c:	4393      	bics	r3, r2
 8004a4e:	0019      	movs	r1, r3
 8004a50:	687b      	ldr	r3, [r7, #4]
 8004a52:	689a      	ldr	r2, [r3, #8]
 8004a54:	4b73      	ldr	r3, [pc, #460]	; (8004c24 <HAL_RCCEx_PeriphCLKConfig+0x38c>)
 8004a56:	430a      	orrs	r2, r1
 8004a58:	655a      	str	r2, [r3, #84]	; 0x54
  }
#endif /* RCC_CCIPR_USART3SEL */

#if defined(LPUART1)
  /*-------------------------- LPUART1 clock source configuration ------------------*/
  if (((PeriphClkInit->PeriphClockSelection) & RCC_PERIPHCLK_LPUART1) == RCC_PERIPHCLK_LPUART1)
 8004a5a:	687b      	ldr	r3, [r7, #4]
 8004a5c:	681b      	ldr	r3, [r3, #0]
 8004a5e:	2210      	movs	r2, #16
 8004a60:	4013      	ands	r3, r2
 8004a62:	d009      	beq.n	8004a78 <HAL_RCCEx_PeriphCLKConfig+0x1e0>
  {
    /* Check the parameters */
    assert_param(IS_RCC_LPUART1CLKSOURCE(PeriphClkInit->Lpuart1ClockSelection));

    /* Configure the LPUART1 clock source */
    __HAL_RCC_LPUART1_CONFIG(PeriphClkInit->Lpuart1ClockSelection);
 8004a64:	4b6f      	ldr	r3, [pc, #444]	; (8004c24 <HAL_RCCEx_PeriphCLKConfig+0x38c>)
 8004a66:	6d5b      	ldr	r3, [r3, #84]	; 0x54
 8004a68:	4a70      	ldr	r2, [pc, #448]	; (8004c2c <HAL_RCCEx_PeriphCLKConfig+0x394>)
 8004a6a:	4013      	ands	r3, r2
 8004a6c:	0019      	movs	r1, r3
 8004a6e:	687b      	ldr	r3, [r7, #4]
 8004a70:	68da      	ldr	r2, [r3, #12]
 8004a72:	4b6c      	ldr	r3, [pc, #432]	; (8004c24 <HAL_RCCEx_PeriphCLKConfig+0x38c>)
 8004a74:	430a      	orrs	r2, r1
 8004a76:	655a      	str	r2, [r3, #84]	; 0x54
  }
#endif /* LPUART2 */

#if defined(RCC_CCIPR_LPTIM1SEL)
  /*-------------------------- LPTIM1 clock source configuration -------------------*/
  if (((PeriphClkInit->PeriphClockSelection) & RCC_PERIPHCLK_LPTIM1) == (RCC_PERIPHCLK_LPTIM1))
 8004a78:	687b      	ldr	r3, [r7, #4]
 8004a7a:	681a      	ldr	r2, [r3, #0]
 8004a7c:	2380      	movs	r3, #128	; 0x80
 8004a7e:	009b      	lsls	r3, r3, #2
 8004a80:	4013      	ands	r3, r2
 8004a82:	d009      	beq.n	8004a98 <HAL_RCCEx_PeriphCLKConfig+0x200>
  {
    assert_param(IS_RCC_LPTIM1CLKSOURCE(PeriphClkInit->Lptim1ClockSelection));
    __HAL_RCC_LPTIM1_CONFIG(PeriphClkInit->Lptim1ClockSelection);
 8004a84:	4b67      	ldr	r3, [pc, #412]	; (8004c24 <HAL_RCCEx_PeriphCLKConfig+0x38c>)
 8004a86:	6d5b      	ldr	r3, [r3, #84]	; 0x54
 8004a88:	4a69      	ldr	r2, [pc, #420]	; (8004c30 <HAL_RCCEx_PeriphCLKConfig+0x398>)
 8004a8a:	4013      	ands	r3, r2
 8004a8c:	0019      	movs	r1, r3
 8004a8e:	687b      	ldr	r3, [r7, #4]
 8004a90:	699a      	ldr	r2, [r3, #24]
 8004a92:	4b64      	ldr	r3, [pc, #400]	; (8004c24 <HAL_RCCEx_PeriphCLKConfig+0x38c>)
 8004a94:	430a      	orrs	r2, r1
 8004a96:	655a      	str	r2, [r3, #84]	; 0x54
  }
#endif /* RCC_CCIPR_LPTIM1SEL */

#if defined(RCC_CCIPR_LPTIM2SEL)
  /*-------------------------- LPTIM2 clock source configuration -------------------*/
  if (((PeriphClkInit->PeriphClockSelection) & RCC_PERIPHCLK_LPTIM2) == (RCC_PERIPHCLK_LPTIM2))
 8004a98:	687b      	ldr	r3, [r7, #4]
 8004a9a:	681a      	ldr	r2, [r3, #0]
 8004a9c:	2380      	movs	r3, #128	; 0x80
 8004a9e:	00db      	lsls	r3, r3, #3
 8004aa0:	4013      	ands	r3, r2
 8004aa2:	d009      	beq.n	8004ab8 <HAL_RCCEx_PeriphCLKConfig+0x220>
  {
    assert_param(IS_RCC_LPTIM2CLKSOURCE(PeriphClkInit->Lptim2ClockSelection));
    __HAL_RCC_LPTIM2_CONFIG(PeriphClkInit->Lptim2ClockSelection);
 8004aa4:	4b5f      	ldr	r3, [pc, #380]	; (8004c24 <HAL_RCCEx_PeriphCLKConfig+0x38c>)
 8004aa6:	6d5b      	ldr	r3, [r3, #84]	; 0x54
 8004aa8:	4a62      	ldr	r2, [pc, #392]	; (8004c34 <HAL_RCCEx_PeriphCLKConfig+0x39c>)
 8004aaa:	4013      	ands	r3, r2
 8004aac:	0019      	movs	r1, r3
 8004aae:	687b      	ldr	r3, [r7, #4]
 8004ab0:	69da      	ldr	r2, [r3, #28]
 8004ab2:	4b5c      	ldr	r3, [pc, #368]	; (8004c24 <HAL_RCCEx_PeriphCLKConfig+0x38c>)
 8004ab4:	430a      	orrs	r2, r1
 8004ab6:	655a      	str	r2, [r3, #84]	; 0x54
  }
#endif /* RCC_CCIPR_LPTIM2SEL */

  /*-------------------------- I2C1 clock source configuration ---------------------*/
  if (((PeriphClkInit->PeriphClockSelection) & RCC_PERIPHCLK_I2C1) == RCC_PERIPHCLK_I2C1)
 8004ab8:	687b      	ldr	r3, [r7, #4]
 8004aba:	681b      	ldr	r3, [r3, #0]
 8004abc:	2220      	movs	r2, #32
 8004abe:	4013      	ands	r3, r2
 8004ac0:	d009      	beq.n	8004ad6 <HAL_RCCEx_PeriphCLKConfig+0x23e>
  {
    /* Check the parameters */
    assert_param(IS_RCC_I2C1CLKSOURCE(PeriphClkInit->I2c1ClockSelection));

    /* Configure the I2C1 clock source */
    __HAL_RCC_I2C1_CONFIG(PeriphClkInit->I2c1ClockSelection);
 8004ac2:	4b58      	ldr	r3, [pc, #352]	; (8004c24 <HAL_RCCEx_PeriphCLKConfig+0x38c>)
 8004ac4:	6d5b      	ldr	r3, [r3, #84]	; 0x54
 8004ac6:	4a5c      	ldr	r2, [pc, #368]	; (8004c38 <HAL_RCCEx_PeriphCLKConfig+0x3a0>)
 8004ac8:	4013      	ands	r3, r2
 8004aca:	0019      	movs	r1, r3
 8004acc:	687b      	ldr	r3, [r7, #4]
 8004ace:	691a      	ldr	r2, [r3, #16]
 8004ad0:	4b54      	ldr	r3, [pc, #336]	; (8004c24 <HAL_RCCEx_PeriphCLKConfig+0x38c>)
 8004ad2:	430a      	orrs	r2, r1
 8004ad4:	655a      	str	r2, [r3, #84]	; 0x54
  }
#endif /* (RCC_CCIPR_I2C2SEL */

#if defined(RNG)
  /*-------------------------- RNG clock source configuration ----------------------*/
  if (((PeriphClkInit->PeriphClockSelection) & RCC_PERIPHCLK_RNG) == (RCC_PERIPHCLK_RNG))
 8004ad6:	687b      	ldr	r3, [r7, #4]
 8004ad8:	681a      	ldr	r2, [r3, #0]
 8004ada:	2380      	movs	r3, #128	; 0x80
 8004adc:	02db      	lsls	r3, r3, #11
 8004ade:	4013      	ands	r3, r2
 8004ae0:	d016      	beq.n	8004b10 <HAL_RCCEx_PeriphCLKConfig+0x278>
  {
    assert_param(IS_RCC_RNGCLKSOURCE(PeriphClkInit->RngClockSelection));
    __HAL_RCC_RNG_CONFIG(PeriphClkInit->RngClockSelection);
 8004ae2:	4b50      	ldr	r3, [pc, #320]	; (8004c24 <HAL_RCCEx_PeriphCLKConfig+0x38c>)
 8004ae4:	6d5b      	ldr	r3, [r3, #84]	; 0x54
 8004ae6:	4a55      	ldr	r2, [pc, #340]	; (8004c3c <HAL_RCCEx_PeriphCLKConfig+0x3a4>)
 8004ae8:	4013      	ands	r3, r2
 8004aea:	0019      	movs	r1, r3
 8004aec:	687b      	ldr	r3, [r7, #4]
 8004aee:	6a1a      	ldr	r2, [r3, #32]
 8004af0:	4b4c      	ldr	r3, [pc, #304]	; (8004c24 <HAL_RCCEx_PeriphCLKConfig+0x38c>)
 8004af2:	430a      	orrs	r2, r1
 8004af4:	655a      	str	r2, [r3, #84]	; 0x54

    if (PeriphClkInit->RngClockSelection == RCC_RNGCLKSOURCE_PLL)
 8004af6:	687b      	ldr	r3, [r7, #4]
 8004af8:	6a1a      	ldr	r2, [r3, #32]
 8004afa:	23c0      	movs	r3, #192	; 0xc0
 8004afc:	051b      	lsls	r3, r3, #20
 8004afe:	429a      	cmp	r2, r3
 8004b00:	d106      	bne.n	8004b10 <HAL_RCCEx_PeriphCLKConfig+0x278>
    {
      /* Enable PLLQCLK output */
      __HAL_RCC_PLLCLKOUT_ENABLE(RCC_PLLQCLK);
 8004b02:	4b48      	ldr	r3, [pc, #288]	; (8004c24 <HAL_RCCEx_PeriphCLKConfig+0x38c>)
 8004b04:	68da      	ldr	r2, [r3, #12]
 8004b06:	4b47      	ldr	r3, [pc, #284]	; (8004c24 <HAL_RCCEx_PeriphCLKConfig+0x38c>)
 8004b08:	2180      	movs	r1, #128	; 0x80
 8004b0a:	0449      	lsls	r1, r1, #17
 8004b0c:	430a      	orrs	r2, r1
 8004b0e:	60da      	str	r2, [r3, #12]
    }
  }
#endif /* RNG */
  /*-------------------------- ADC clock source configuration ----------------------*/
  if (((PeriphClkInit->PeriphClockSelection) & RCC_PERIPHCLK_ADC) == RCC_PERIPHCLK_ADC)
 8004b10:	687b      	ldr	r3, [r7, #4]
 8004b12:	681a      	ldr	r2, [r3, #0]
 8004b14:	2380      	movs	r3, #128	; 0x80
 8004b16:	01db      	lsls	r3, r3, #7
 8004b18:	4013      	ands	r3, r2
 8004b1a:	d015      	beq.n	8004b48 <HAL_RCCEx_PeriphCLKConfig+0x2b0>
  {
    /* Check the parameters */
    assert_param(IS_RCC_ADCCLKSOURCE(PeriphClkInit->AdcClockSelection));

    /* Configure the ADC interface clock source */
    __HAL_RCC_ADC_CONFIG(PeriphClkInit->AdcClockSelection);
 8004b1c:	4b41      	ldr	r3, [pc, #260]	; (8004c24 <HAL_RCCEx_PeriphCLKConfig+0x38c>)
 8004b1e:	6d5b      	ldr	r3, [r3, #84]	; 0x54
 8004b20:	009b      	lsls	r3, r3, #2
 8004b22:	0899      	lsrs	r1, r3, #2
 8004b24:	687b      	ldr	r3, [r7, #4]
 8004b26:	6a5a      	ldr	r2, [r3, #36]	; 0x24
 8004b28:	4b3e      	ldr	r3, [pc, #248]	; (8004c24 <HAL_RCCEx_PeriphCLKConfig+0x38c>)
 8004b2a:	430a      	orrs	r2, r1
 8004b2c:	655a      	str	r2, [r3, #84]	; 0x54

    if (PeriphClkInit->AdcClockSelection == RCC_ADCCLKSOURCE_PLLADC)
 8004b2e:	687b      	ldr	r3, [r7, #4]
 8004b30:	6a5a      	ldr	r2, [r3, #36]	; 0x24
 8004b32:	2380      	movs	r3, #128	; 0x80
 8004b34:	05db      	lsls	r3, r3, #23
 8004b36:	429a      	cmp	r2, r3
 8004b38:	d106      	bne.n	8004b48 <HAL_RCCEx_PeriphCLKConfig+0x2b0>
    {
      /* Enable PLLPCLK output */
      __HAL_RCC_PLLCLKOUT_ENABLE(RCC_PLLPCLK);
 8004b3a:	4b3a      	ldr	r3, [pc, #232]	; (8004c24 <HAL_RCCEx_PeriphCLKConfig+0x38c>)
 8004b3c:	68da      	ldr	r2, [r3, #12]
 8004b3e:	4b39      	ldr	r3, [pc, #228]	; (8004c24 <HAL_RCCEx_PeriphCLKConfig+0x38c>)
 8004b40:	2180      	movs	r1, #128	; 0x80
 8004b42:	0249      	lsls	r1, r1, #9
 8004b44:	430a      	orrs	r2, r1
 8004b46:	60da      	str	r2, [r3, #12]
    }
  }

#if defined(CEC)
  /*-------------------------- CEC clock source configuration ---------------------*/
  if (((PeriphClkInit->PeriphClockSelection) & RCC_PERIPHCLK_CEC) == RCC_PERIPHCLK_CEC)
 8004b48:	687b      	ldr	r3, [r7, #4]
 8004b4a:	681a      	ldr	r2, [r3, #0]
 8004b4c:	2380      	movs	r3, #128	; 0x80
 8004b4e:	031b      	lsls	r3, r3, #12
 8004b50:	4013      	ands	r3, r2
 8004b52:	d009      	beq.n	8004b68 <HAL_RCCEx_PeriphCLKConfig+0x2d0>
  {
    /* Check the parameters */
    assert_param(IS_RCC_CECCLKSOURCE(PeriphClkInit->CecClockSelection));

    /* Configure the CEC clock source */
    __HAL_RCC_CEC_CONFIG(PeriphClkInit->CecClockSelection);
 8004b54:	4b33      	ldr	r3, [pc, #204]	; (8004c24 <HAL_RCCEx_PeriphCLKConfig+0x38c>)
 8004b56:	6d5b      	ldr	r3, [r3, #84]	; 0x54
 8004b58:	2240      	movs	r2, #64	; 0x40
 8004b5a:	4393      	bics	r3, r2
 8004b5c:	0019      	movs	r1, r3
 8004b5e:	687b      	ldr	r3, [r7, #4]
 8004b60:	6a9a      	ldr	r2, [r3, #40]	; 0x28
 8004b62:	4b30      	ldr	r3, [pc, #192]	; (8004c24 <HAL_RCCEx_PeriphCLKConfig+0x38c>)
 8004b64:	430a      	orrs	r2, r1
 8004b66:	655a      	str	r2, [r3, #84]	; 0x54
  }
#endif /* CEC */

#if defined(RCC_CCIPR_TIM1SEL)
  /*-------------------------- TIM1 clock source configuration ---------------------*/
  if (((PeriphClkInit->PeriphClockSelection) & RCC_PERIPHCLK_TIM1) == RCC_PERIPHCLK_TIM1)
 8004b68:	687b      	ldr	r3, [r7, #4]
 8004b6a:	681a      	ldr	r2, [r3, #0]
 8004b6c:	2380      	movs	r3, #128	; 0x80
 8004b6e:	039b      	lsls	r3, r3, #14
 8004b70:	4013      	ands	r3, r2
 8004b72:	d016      	beq.n	8004ba2 <HAL_RCCEx_PeriphCLKConfig+0x30a>
  {
    /* Check the parameters */
    assert_param(IS_RCC_TIM1CLKSOURCE(PeriphClkInit->Tim1ClockSelection));

    /* Configure the TIM1 clock source */
    __HAL_RCC_TIM1_CONFIG(PeriphClkInit->Tim1ClockSelection);
 8004b74:	4b2b      	ldr	r3, [pc, #172]	; (8004c24 <HAL_RCCEx_PeriphCLKConfig+0x38c>)
 8004b76:	6d5b      	ldr	r3, [r3, #84]	; 0x54
 8004b78:	4a31      	ldr	r2, [pc, #196]	; (8004c40 <HAL_RCCEx_PeriphCLKConfig+0x3a8>)
 8004b7a:	4013      	ands	r3, r2
 8004b7c:	0019      	movs	r1, r3
 8004b7e:	687b      	ldr	r3, [r7, #4]
 8004b80:	6ada      	ldr	r2, [r3, #44]	; 0x2c
 8004b82:	4b28      	ldr	r3, [pc, #160]	; (8004c24 <HAL_RCCEx_PeriphCLKConfig+0x38c>)
 8004b84:	430a      	orrs	r2, r1
 8004b86:	655a      	str	r2, [r3, #84]	; 0x54

    if (PeriphClkInit->Tim1ClockSelection == RCC_TIM1CLKSOURCE_PLL)
 8004b88:	687b      	ldr	r3, [r7, #4]
 8004b8a:	6ada      	ldr	r2, [r3, #44]	; 0x2c
 8004b8c:	2380      	movs	r3, #128	; 0x80
 8004b8e:	03db      	lsls	r3, r3, #15
 8004b90:	429a      	cmp	r2, r3
 8004b92:	d106      	bne.n	8004ba2 <HAL_RCCEx_PeriphCLKConfig+0x30a>
    {
      /* Enable PLLQCLK output */
      __HAL_RCC_PLLCLKOUT_ENABLE(RCC_PLLQCLK);
 8004b94:	4b23      	ldr	r3, [pc, #140]	; (8004c24 <HAL_RCCEx_PeriphCLKConfig+0x38c>)
 8004b96:	68da      	ldr	r2, [r3, #12]
 8004b98:	4b22      	ldr	r3, [pc, #136]	; (8004c24 <HAL_RCCEx_PeriphCLKConfig+0x38c>)
 8004b9a:	2180      	movs	r1, #128	; 0x80
 8004b9c:	0449      	lsls	r1, r1, #17
 8004b9e:	430a      	orrs	r2, r1
 8004ba0:	60da      	str	r2, [r3, #12]
  }
#endif /* RCC_CCIPR_TIM1SEL */

#if defined(RCC_CCIPR_TIM15SEL)
  /*-------------------------- TIM15 clock source configuration ---------------------*/
  if (((PeriphClkInit->PeriphClockSelection) & RCC_PERIPHCLK_TIM15) == RCC_PERIPHCLK_TIM15)
 8004ba2:	687b      	ldr	r3, [r7, #4]
 8004ba4:	681a      	ldr	r2, [r3, #0]
 8004ba6:	2380      	movs	r3, #128	; 0x80
 8004ba8:	03db      	lsls	r3, r3, #15
 8004baa:	4013      	ands	r3, r2
 8004bac:	d016      	beq.n	8004bdc <HAL_RCCEx_PeriphCLKConfig+0x344>
  {
    /* Check the parameters */
    assert_param(IS_RCC_TIM15CLKSOURCE(PeriphClkInit->Tim15ClockSelection));

    /* Configure the TIM15 clock source */
    __HAL_RCC_TIM15_CONFIG(PeriphClkInit->Tim15ClockSelection);
 8004bae:	4b1d      	ldr	r3, [pc, #116]	; (8004c24 <HAL_RCCEx_PeriphCLKConfig+0x38c>)
 8004bb0:	6d5b      	ldr	r3, [r3, #84]	; 0x54
 8004bb2:	4a24      	ldr	r2, [pc, #144]	; (8004c44 <HAL_RCCEx_PeriphCLKConfig+0x3ac>)
 8004bb4:	4013      	ands	r3, r2
 8004bb6:	0019      	movs	r1, r3
 8004bb8:	687b      	ldr	r3, [r7, #4]
 8004bba:	6b1a      	ldr	r2, [r3, #48]	; 0x30
 8004bbc:	4b19      	ldr	r3, [pc, #100]	; (8004c24 <HAL_RCCEx_PeriphCLKConfig+0x38c>)
 8004bbe:	430a      	orrs	r2, r1
 8004bc0:	655a      	str	r2, [r3, #84]	; 0x54

    if (PeriphClkInit->Tim15ClockSelection == RCC_TIM15CLKSOURCE_PLL)
 8004bc2:	687b      	ldr	r3, [r7, #4]
 8004bc4:	6b1a      	ldr	r2, [r3, #48]	; 0x30
 8004bc6:	2380      	movs	r3, #128	; 0x80
 8004bc8:	045b      	lsls	r3, r3, #17
 8004bca:	429a      	cmp	r2, r3
 8004bcc:	d106      	bne.n	8004bdc <HAL_RCCEx_PeriphCLKConfig+0x344>
    {
      /* Enable PLLQCLK output */
      __HAL_RCC_PLLCLKOUT_ENABLE(RCC_PLLQCLK);
 8004bce:	4b15      	ldr	r3, [pc, #84]	; (8004c24 <HAL_RCCEx_PeriphCLKConfig+0x38c>)
 8004bd0:	68da      	ldr	r2, [r3, #12]
 8004bd2:	4b14      	ldr	r3, [pc, #80]	; (8004c24 <HAL_RCCEx_PeriphCLKConfig+0x38c>)
 8004bd4:	2180      	movs	r1, #128	; 0x80
 8004bd6:	0449      	lsls	r1, r1, #17
 8004bd8:	430a      	orrs	r2, r1
 8004bda:	60da      	str	r2, [r3, #12]
    }
  }
#endif /* RCC_CCIPR_TIM15SEL */

  /*-------------------------- I2S1 clock source configuration ---------------------*/
  if (((PeriphClkInit->PeriphClockSelection) & RCC_PERIPHCLK_I2S1) == RCC_PERIPHCLK_I2S1)
 8004bdc:	687b      	ldr	r3, [r7, #4]
 8004bde:	681a      	ldr	r2, [r3, #0]
 8004be0:	2380      	movs	r3, #128	; 0x80
 8004be2:	011b      	lsls	r3, r3, #4
 8004be4:	4013      	ands	r3, r2
 8004be6:	d016      	beq.n	8004c16 <HAL_RCCEx_PeriphCLKConfig+0x37e>
  {
    /* Check the parameters */
    assert_param(IS_RCC_I2S1CLKSOURCE(PeriphClkInit->I2s1ClockSelection));

    /* Configure the I2S1 clock source */
    __HAL_RCC_I2S1_CONFIG(PeriphClkInit->I2s1ClockSelection);
 8004be8:	4b0e      	ldr	r3, [pc, #56]	; (8004c24 <HAL_RCCEx_PeriphCLKConfig+0x38c>)
 8004bea:	6d5b      	ldr	r3, [r3, #84]	; 0x54
 8004bec:	4a16      	ldr	r2, [pc, #88]	; (8004c48 <HAL_RCCEx_PeriphCLKConfig+0x3b0>)
 8004bee:	4013      	ands	r3, r2
 8004bf0:	0019      	movs	r1, r3
 8004bf2:	687b      	ldr	r3, [r7, #4]
 8004bf4:	695a      	ldr	r2, [r3, #20]
 8004bf6:	4b0b      	ldr	r3, [pc, #44]	; (8004c24 <HAL_RCCEx_PeriphCLKConfig+0x38c>)
 8004bf8:	430a      	orrs	r2, r1
 8004bfa:	655a      	str	r2, [r3, #84]	; 0x54

    if (PeriphClkInit->I2s1ClockSelection == RCC_I2S1CLKSOURCE_PLL)
 8004bfc:	687b      	ldr	r3, [r7, #4]
 8004bfe:	695a      	ldr	r2, [r3, #20]
 8004c00:	2380      	movs	r3, #128	; 0x80
 8004c02:	01db      	lsls	r3, r3, #7
 8004c04:	429a      	cmp	r2, r3
 8004c06:	d106      	bne.n	8004c16 <HAL_RCCEx_PeriphCLKConfig+0x37e>
    {
      /* Enable PLLPCLK output */
      __HAL_RCC_PLLCLKOUT_ENABLE(RCC_PLLPCLK);
 8004c08:	4b06      	ldr	r3, [pc, #24]	; (8004c24 <HAL_RCCEx_PeriphCLKConfig+0x38c>)
 8004c0a:	68da      	ldr	r2, [r3, #12]
 8004c0c:	4b05      	ldr	r3, [pc, #20]	; (8004c24 <HAL_RCCEx_PeriphCLKConfig+0x38c>)
 8004c0e:	2180      	movs	r1, #128	; 0x80
 8004c10:	0249      	lsls	r1, r1, #9
 8004c12:	430a      	orrs	r2, r1
 8004c14:	60da      	str	r2, [r3, #12]
      __HAL_RCC_PLLCLKOUT_ENABLE(RCC_PLLQCLK);
    }
  }
#endif /* FDCAN1 || FDCAN2 */

  return status;
 8004c16:	2312      	movs	r3, #18
 8004c18:	18fb      	adds	r3, r7, r3
 8004c1a:	781b      	ldrb	r3, [r3, #0]
}
 8004c1c:	0018      	movs	r0, r3
 8004c1e:	46bd      	mov	sp, r7
 8004c20:	b006      	add	sp, #24
 8004c22:	bd80      	pop	{r7, pc}
 8004c24:	40021000 	.word	0x40021000
 8004c28:	efffffff 	.word	0xefffffff
 8004c2c:	fffff3ff 	.word	0xfffff3ff
 8004c30:	fff3ffff 	.word	0xfff3ffff
 8004c34:	ffcfffff 	.word	0xffcfffff
 8004c38:	ffffcfff 	.word	0xffffcfff
 8004c3c:	f3ffffff 	.word	0xf3ffffff
 8004c40:	ffbfffff 	.word	0xffbfffff
 8004c44:	feffffff 	.word	0xfeffffff
 8004c48:	ffff3fff 	.word	0xffff3fff

08004c4c <HAL_RNG_Init>:
  * @param  hrng pointer to a RNG_HandleTypeDef structure that contains
  *                the configuration information for RNG.
  * @retval HAL status
  */
HAL_StatusTypeDef HAL_RNG_Init(RNG_HandleTypeDef *hrng)
{
 8004c4c:	b580      	push	{r7, lr}
 8004c4e:	b082      	sub	sp, #8
 8004c50:	af00      	add	r7, sp, #0
 8004c52:	6078      	str	r0, [r7, #4]
  /* Check the RNG handle allocation */
  if (hrng == NULL)
 8004c54:	687b      	ldr	r3, [r7, #4]
 8004c56:	2b00      	cmp	r3, #0
 8004c58:	d101      	bne.n	8004c5e <HAL_RNG_Init+0x12>
  {
    return HAL_ERROR;
 8004c5a:	2301      	movs	r3, #1
 8004c5c:	e029      	b.n	8004cb2 <HAL_RNG_Init+0x66>

    /* Init the low level hardware */
    hrng->MspInitCallback(hrng);
  }
#else
  if (hrng->State == HAL_RNG_STATE_RESET)
 8004c5e:	687b      	ldr	r3, [r7, #4]
 8004c60:	7a5b      	ldrb	r3, [r3, #9]
 8004c62:	b2db      	uxtb	r3, r3
 8004c64:	2b00      	cmp	r3, #0
 8004c66:	d106      	bne.n	8004c76 <HAL_RNG_Init+0x2a>
  {
    /* Allocate lock resource and initialize it */
    hrng->Lock = HAL_UNLOCKED;
 8004c68:	687b      	ldr	r3, [r7, #4]
 8004c6a:	2200      	movs	r2, #0
 8004c6c:	721a      	strb	r2, [r3, #8]

    /* Init the low level hardware */
    HAL_RNG_MspInit(hrng);
 8004c6e:	687b      	ldr	r3, [r7, #4]
 8004c70:	0018      	movs	r0, r3
 8004c72:	f7fc ff87 	bl	8001b84 <HAL_RNG_MspInit>
  }
#endif /* USE_HAL_RNG_REGISTER_CALLBACKS */

  /* Change RNG peripheral state */
  hrng->State = HAL_RNG_STATE_BUSY;
 8004c76:	687b      	ldr	r3, [r7, #4]
 8004c78:	2202      	movs	r2, #2
 8004c7a:	725a      	strb	r2, [r3, #9]

  /* Clock Error Detection Configuration */
  MODIFY_REG(hrng->Instance->CR, RNG_CR_CED, hrng->Init.ClockErrorDetection);
 8004c7c:	687b      	ldr	r3, [r7, #4]
 8004c7e:	681b      	ldr	r3, [r3, #0]
 8004c80:	681b      	ldr	r3, [r3, #0]
 8004c82:	2220      	movs	r2, #32
 8004c84:	4393      	bics	r3, r2
 8004c86:	0019      	movs	r1, r3
 8004c88:	687b      	ldr	r3, [r7, #4]
 8004c8a:	685a      	ldr	r2, [r3, #4]
 8004c8c:	687b      	ldr	r3, [r7, #4]
 8004c8e:	681b      	ldr	r3, [r3, #0]
 8004c90:	430a      	orrs	r2, r1
 8004c92:	601a      	str	r2, [r3, #0]

  /* Enable the RNG Peripheral */
  __HAL_RNG_ENABLE(hrng);
 8004c94:	687b      	ldr	r3, [r7, #4]
 8004c96:	681b      	ldr	r3, [r3, #0]
 8004c98:	681a      	ldr	r2, [r3, #0]
 8004c9a:	687b      	ldr	r3, [r7, #4]
 8004c9c:	681b      	ldr	r3, [r3, #0]
 8004c9e:	2104      	movs	r1, #4
 8004ca0:	430a      	orrs	r2, r1
 8004ca2:	601a      	str	r2, [r3, #0]

  /* Initialize the RNG state */
  hrng->State = HAL_RNG_STATE_READY;
 8004ca4:	687b      	ldr	r3, [r7, #4]
 8004ca6:	2201      	movs	r2, #1
 8004ca8:	725a      	strb	r2, [r3, #9]

  /* Initialise the error code */
  hrng->ErrorCode = HAL_RNG_ERROR_NONE;
 8004caa:	687b      	ldr	r3, [r7, #4]
 8004cac:	2200      	movs	r2, #0
 8004cae:	60da      	str	r2, [r3, #12]

  /* Return function status */
  return HAL_OK;
 8004cb0:	2300      	movs	r3, #0
}
 8004cb2:	0018      	movs	r0, r3
 8004cb4:	46bd      	mov	sp, r7
 8004cb6:	b002      	add	sp, #8
 8004cb8:	bd80      	pop	{r7, pc}

08004cba <HAL_RNG_GenerateRandomNumber>:
  * @param  random32bit pointer to generated random number variable if successful.
  * @retval HAL status
  */

HAL_StatusTypeDef HAL_RNG_GenerateRandomNumber(RNG_HandleTypeDef *hrng, uint32_t *random32bit)
{
 8004cba:	b580      	push	{r7, lr}
 8004cbc:	b084      	sub	sp, #16
 8004cbe:	af00      	add	r7, sp, #0
 8004cc0:	6078      	str	r0, [r7, #4]
 8004cc2:	6039      	str	r1, [r7, #0]
  uint32_t tickstart;
  HAL_StatusTypeDef status = HAL_OK;
 8004cc4:	230f      	movs	r3, #15
 8004cc6:	18fb      	adds	r3, r7, r3
 8004cc8:	2200      	movs	r2, #0
 8004cca:	701a      	strb	r2, [r3, #0]

  /* Process Locked */
  __HAL_LOCK(hrng);
 8004ccc:	687b      	ldr	r3, [r7, #4]
 8004cce:	7a1b      	ldrb	r3, [r3, #8]
 8004cd0:	2b01      	cmp	r3, #1
 8004cd2:	d101      	bne.n	8004cd8 <HAL_RNG_GenerateRandomNumber+0x1e>
 8004cd4:	2302      	movs	r3, #2
 8004cd6:	e042      	b.n	8004d5e <HAL_RNG_GenerateRandomNumber+0xa4>
 8004cd8:	687b      	ldr	r3, [r7, #4]
 8004cda:	2201      	movs	r2, #1
 8004cdc:	721a      	strb	r2, [r3, #8]

  /* Check RNG peripheral state */
  if (hrng->State == HAL_RNG_STATE_READY)
 8004cde:	687b      	ldr	r3, [r7, #4]
 8004ce0:	7a5b      	ldrb	r3, [r3, #9]
 8004ce2:	b2db      	uxtb	r3, r3
 8004ce4:	2b01      	cmp	r3, #1
 8004ce6:	d12d      	bne.n	8004d44 <HAL_RNG_GenerateRandomNumber+0x8a>
  {
    /* Change RNG peripheral state */
    hrng->State = HAL_RNG_STATE_BUSY;
 8004ce8:	687b      	ldr	r3, [r7, #4]
 8004cea:	2202      	movs	r2, #2
 8004cec:	725a      	strb	r2, [r3, #9]

    /* Get tick */
    tickstart = HAL_GetTick();
 8004cee:	f7fd f9e3 	bl	80020b8 <HAL_GetTick>
 8004cf2:	0003      	movs	r3, r0
 8004cf4:	60bb      	str	r3, [r7, #8]

    /* Check if data register contains valid random data */
    while (__HAL_RNG_GET_FLAG(hrng, RNG_FLAG_DRDY) == RESET)
 8004cf6:	e011      	b.n	8004d1c <HAL_RNG_GenerateRandomNumber+0x62>
    {
      if ((HAL_GetTick() - tickstart) > RNG_TIMEOUT_VALUE)
 8004cf8:	f7fd f9de 	bl	80020b8 <HAL_GetTick>
 8004cfc:	0002      	movs	r2, r0
 8004cfe:	68bb      	ldr	r3, [r7, #8]
 8004d00:	1ad3      	subs	r3, r2, r3
 8004d02:	2b02      	cmp	r3, #2
 8004d04:	d90a      	bls.n	8004d1c <HAL_RNG_GenerateRandomNumber+0x62>
      {
        hrng->State = HAL_RNG_STATE_READY;
 8004d06:	687b      	ldr	r3, [r7, #4]
 8004d08:	2201      	movs	r2, #1
 8004d0a:	725a      	strb	r2, [r3, #9]
        hrng->ErrorCode = HAL_RNG_ERROR_TIMEOUT;
 8004d0c:	687b      	ldr	r3, [r7, #4]
 8004d0e:	2202      	movs	r2, #2
 8004d10:	60da      	str	r2, [r3, #12]
        /* Process Unlocked */
        __HAL_UNLOCK(hrng);
 8004d12:	687b      	ldr	r3, [r7, #4]
 8004d14:	2200      	movs	r2, #0
 8004d16:	721a      	strb	r2, [r3, #8]
        return HAL_ERROR;
 8004d18:	2301      	movs	r3, #1
 8004d1a:	e020      	b.n	8004d5e <HAL_RNG_GenerateRandomNumber+0xa4>
    while (__HAL_RNG_GET_FLAG(hrng, RNG_FLAG_DRDY) == RESET)
 8004d1c:	687b      	ldr	r3, [r7, #4]
 8004d1e:	681b      	ldr	r3, [r3, #0]
 8004d20:	685b      	ldr	r3, [r3, #4]
 8004d22:	2201      	movs	r2, #1
 8004d24:	4013      	ands	r3, r2
 8004d26:	2b01      	cmp	r3, #1
 8004d28:	d1e6      	bne.n	8004cf8 <HAL_RNG_GenerateRandomNumber+0x3e>
      }
    }

    /* Get a 32bit Random number */
    hrng->RandomNumber = hrng->Instance->DR;
 8004d2a:	687b      	ldr	r3, [r7, #4]
 8004d2c:	681b      	ldr	r3, [r3, #0]
 8004d2e:	689a      	ldr	r2, [r3, #8]
 8004d30:	687b      	ldr	r3, [r7, #4]
 8004d32:	611a      	str	r2, [r3, #16]
    *random32bit = hrng->RandomNumber;
 8004d34:	687b      	ldr	r3, [r7, #4]
 8004d36:	691a      	ldr	r2, [r3, #16]
 8004d38:	683b      	ldr	r3, [r7, #0]
 8004d3a:	601a      	str	r2, [r3, #0]

    hrng->State = HAL_RNG_STATE_READY;
 8004d3c:	687b      	ldr	r3, [r7, #4]
 8004d3e:	2201      	movs	r2, #1
 8004d40:	725a      	strb	r2, [r3, #9]
 8004d42:	e006      	b.n	8004d52 <HAL_RNG_GenerateRandomNumber+0x98>
  }
  else
  {
    hrng->ErrorCode = HAL_RNG_ERROR_BUSY;
 8004d44:	687b      	ldr	r3, [r7, #4]
 8004d46:	2204      	movs	r2, #4
 8004d48:	60da      	str	r2, [r3, #12]
    status = HAL_ERROR;
 8004d4a:	230f      	movs	r3, #15
 8004d4c:	18fb      	adds	r3, r7, r3
 8004d4e:	2201      	movs	r2, #1
 8004d50:	701a      	strb	r2, [r3, #0]
  }

  /* Process Unlocked */
  __HAL_UNLOCK(hrng);
 8004d52:	687b      	ldr	r3, [r7, #4]
 8004d54:	2200      	movs	r2, #0
 8004d56:	721a      	strb	r2, [r3, #8]

  return status;
 8004d58:	230f      	movs	r3, #15
 8004d5a:	18fb      	adds	r3, r7, r3
 8004d5c:	781b      	ldrb	r3, [r3, #0]
}
 8004d5e:	0018      	movs	r0, r3
 8004d60:	46bd      	mov	sp, r7
 8004d62:	b004      	add	sp, #16
 8004d64:	bd80      	pop	{r7, pc}
	...

08004d68 <HAL_SPI_Init>:
  * @param  hspi pointer to a SPI_HandleTypeDef structure that contains
  *               the configuration information for SPI module.
  * @retval HAL status
  */
HAL_StatusTypeDef HAL_SPI_Init(SPI_HandleTypeDef *hspi)
{
 8004d68:	b580      	push	{r7, lr}
 8004d6a:	b084      	sub	sp, #16
 8004d6c:	af00      	add	r7, sp, #0
 8004d6e:	6078      	str	r0, [r7, #4]
  uint32_t frxth;

  /* Check the SPI handle allocation */
  if (hspi == NULL)
 8004d70:	687b      	ldr	r3, [r7, #4]
 8004d72:	2b00      	cmp	r3, #0
 8004d74:	d101      	bne.n	8004d7a <HAL_SPI_Init+0x12>
  {
    return HAL_ERROR;
 8004d76:	2301      	movs	r3, #1
 8004d78:	e0a8      	b.n	8004ecc <HAL_SPI_Init+0x164>
  assert_param(IS_SPI_NSS(hspi->Init.NSS));
  assert_param(IS_SPI_NSSP(hspi->Init.NSSPMode));
  assert_param(IS_SPI_BAUDRATE_PRESCALER(hspi->Init.BaudRatePrescaler));
  assert_param(IS_SPI_FIRST_BIT(hspi->Init.FirstBit));
  assert_param(IS_SPI_TIMODE(hspi->Init.TIMode));
  if (hspi->Init.TIMode == SPI_TIMODE_DISABLE)
 8004d7a:	687b      	ldr	r3, [r7, #4]
 8004d7c:	6a5b      	ldr	r3, [r3, #36]	; 0x24
 8004d7e:	2b00      	cmp	r3, #0
 8004d80:	d109      	bne.n	8004d96 <HAL_SPI_Init+0x2e>
  {
    assert_param(IS_SPI_CPOL(hspi->Init.CLKPolarity));
    assert_param(IS_SPI_CPHA(hspi->Init.CLKPhase));

    if (hspi->Init.Mode == SPI_MODE_MASTER)
 8004d82:	687b      	ldr	r3, [r7, #4]
 8004d84:	685a      	ldr	r2, [r3, #4]
 8004d86:	2382      	movs	r3, #130	; 0x82
 8004d88:	005b      	lsls	r3, r3, #1
 8004d8a:	429a      	cmp	r2, r3
 8004d8c:	d009      	beq.n	8004da2 <HAL_SPI_Init+0x3a>
      assert_param(IS_SPI_BAUDRATE_PRESCALER(hspi->Init.BaudRatePrescaler));
    }
    else
    {
      /* Baudrate prescaler not use in Motoraola Slave mode. force to default value */
      hspi->Init.BaudRatePrescaler = SPI_BAUDRATEPRESCALER_2;
 8004d8e:	687b      	ldr	r3, [r7, #4]
 8004d90:	2200      	movs	r2, #0
 8004d92:	61da      	str	r2, [r3, #28]
 8004d94:	e005      	b.n	8004da2 <HAL_SPI_Init+0x3a>
  else
  {
    assert_param(IS_SPI_BAUDRATE_PRESCALER(hspi->Init.BaudRatePrescaler));

    /* Force polarity and phase to TI protocaol requirements */
    hspi->Init.CLKPolarity = SPI_POLARITY_LOW;
 8004d96:	687b      	ldr	r3, [r7, #4]
 8004d98:	2200      	movs	r2, #0
 8004d9a:	611a      	str	r2, [r3, #16]
    hspi->Init.CLKPhase    = SPI_PHASE_1EDGE;
 8004d9c:	687b      	ldr	r3, [r7, #4]
 8004d9e:	2200      	movs	r2, #0
 8004da0:	615a      	str	r2, [r3, #20]
  {
    assert_param(IS_SPI_CRC_POLYNOMIAL(hspi->Init.CRCPolynomial));
    assert_param(IS_SPI_CRC_LENGTH(hspi->Init.CRCLength));
  }
#else
  hspi->Init.CRCCalculation = SPI_CRCCALCULATION_DISABLE;
 8004da2:	687b      	ldr	r3, [r7, #4]
 8004da4:	2200      	movs	r2, #0
 8004da6:	629a      	str	r2, [r3, #40]	; 0x28
#endif /* USE_SPI_CRC */

  if (hspi->State == HAL_SPI_STATE_RESET)
 8004da8:	687b      	ldr	r3, [r7, #4]
 8004daa:	225d      	movs	r2, #93	; 0x5d
 8004dac:	5c9b      	ldrb	r3, [r3, r2]
 8004dae:	b2db      	uxtb	r3, r3
 8004db0:	2b00      	cmp	r3, #0
 8004db2:	d107      	bne.n	8004dc4 <HAL_SPI_Init+0x5c>
  {
    /* Allocate lock resource and initialize it */
    hspi->Lock = HAL_UNLOCKED;
 8004db4:	687b      	ldr	r3, [r7, #4]
 8004db6:	225c      	movs	r2, #92	; 0x5c
 8004db8:	2100      	movs	r1, #0
 8004dba:	5499      	strb	r1, [r3, r2]

    /* Init the low level hardware : GPIO, CLOCK, NVIC... */
    hspi->MspInitCallback(hspi);
#else
    /* Init the low level hardware : GPIO, CLOCK, NVIC... */
    HAL_SPI_MspInit(hspi);
 8004dbc:	687b      	ldr	r3, [r7, #4]
 8004dbe:	0018      	movs	r0, r3
 8004dc0:	f7fc ff00 	bl	8001bc4 <HAL_SPI_MspInit>
#endif /* USE_HAL_SPI_REGISTER_CALLBACKS */
  }

  hspi->State = HAL_SPI_STATE_BUSY;
 8004dc4:	687b      	ldr	r3, [r7, #4]
 8004dc6:	225d      	movs	r2, #93	; 0x5d
 8004dc8:	2102      	movs	r1, #2
 8004dca:	5499      	strb	r1, [r3, r2]

  /* Disable the selected SPI peripheral */
  __HAL_SPI_DISABLE(hspi);
 8004dcc:	687b      	ldr	r3, [r7, #4]
 8004dce:	681b      	ldr	r3, [r3, #0]
 8004dd0:	681a      	ldr	r2, [r3, #0]
 8004dd2:	687b      	ldr	r3, [r7, #4]
 8004dd4:	681b      	ldr	r3, [r3, #0]
 8004dd6:	2140      	movs	r1, #64	; 0x40
 8004dd8:	438a      	bics	r2, r1
 8004dda:	601a      	str	r2, [r3, #0]

  /* Align by default the rs fifo threshold on the data size */
  if (hspi->Init.DataSize > SPI_DATASIZE_8BIT)
 8004ddc:	687b      	ldr	r3, [r7, #4]
 8004dde:	68da      	ldr	r2, [r3, #12]
 8004de0:	23e0      	movs	r3, #224	; 0xe0
 8004de2:	00db      	lsls	r3, r3, #3
 8004de4:	429a      	cmp	r2, r3
 8004de6:	d902      	bls.n	8004dee <HAL_SPI_Init+0x86>
  {
    frxth = SPI_RXFIFO_THRESHOLD_HF;
 8004de8:	2300      	movs	r3, #0
 8004dea:	60fb      	str	r3, [r7, #12]
 8004dec:	e002      	b.n	8004df4 <HAL_SPI_Init+0x8c>
  }
  else
  {
    frxth = SPI_RXFIFO_THRESHOLD_QF;
 8004dee:	2380      	movs	r3, #128	; 0x80
 8004df0:	015b      	lsls	r3, r3, #5
 8004df2:	60fb      	str	r3, [r7, #12]
  }

  /* CRC calculation is valid only for 16Bit and 8 Bit */
  if ((hspi->Init.DataSize != SPI_DATASIZE_16BIT) && (hspi->Init.DataSize != SPI_DATASIZE_8BIT))
 8004df4:	687b      	ldr	r3, [r7, #4]
 8004df6:	68da      	ldr	r2, [r3, #12]
 8004df8:	23f0      	movs	r3, #240	; 0xf0
 8004dfa:	011b      	lsls	r3, r3, #4
 8004dfc:	429a      	cmp	r2, r3
 8004dfe:	d008      	beq.n	8004e12 <HAL_SPI_Init+0xaa>
 8004e00:	687b      	ldr	r3, [r7, #4]
 8004e02:	68da      	ldr	r2, [r3, #12]
 8004e04:	23e0      	movs	r3, #224	; 0xe0
 8004e06:	00db      	lsls	r3, r3, #3
 8004e08:	429a      	cmp	r2, r3
 8004e0a:	d002      	beq.n	8004e12 <HAL_SPI_Init+0xaa>
  {
    /* CRC must be disabled */
    hspi->Init.CRCCalculation = SPI_CRCCALCULATION_DISABLE;
 8004e0c:	687b      	ldr	r3, [r7, #4]
 8004e0e:	2200      	movs	r2, #0
 8004e10:	629a      	str	r2, [r3, #40]	; 0x28
  }

  /*----------------------- SPIx CR1 & CR2 Configuration ---------------------*/
  /* Configure : SPI Mode, Communication Mode, Clock polarity and phase, NSS management,
  Communication speed, First bit and CRC calculation state */
  WRITE_REG(hspi->Instance->CR1, ((hspi->Init.Mode & (SPI_CR1_MSTR | SPI_CR1_SSI)) |
 8004e12:	687b      	ldr	r3, [r7, #4]
 8004e14:	685a      	ldr	r2, [r3, #4]
 8004e16:	2382      	movs	r3, #130	; 0x82
 8004e18:	005b      	lsls	r3, r3, #1
 8004e1a:	401a      	ands	r2, r3
 8004e1c:	687b      	ldr	r3, [r7, #4]
 8004e1e:	6899      	ldr	r1, [r3, #8]
 8004e20:	2384      	movs	r3, #132	; 0x84
 8004e22:	021b      	lsls	r3, r3, #8
 8004e24:	400b      	ands	r3, r1
 8004e26:	431a      	orrs	r2, r3
 8004e28:	687b      	ldr	r3, [r7, #4]
 8004e2a:	691b      	ldr	r3, [r3, #16]
 8004e2c:	2102      	movs	r1, #2
 8004e2e:	400b      	ands	r3, r1
 8004e30:	431a      	orrs	r2, r3
 8004e32:	687b      	ldr	r3, [r7, #4]
 8004e34:	695b      	ldr	r3, [r3, #20]
 8004e36:	2101      	movs	r1, #1
 8004e38:	400b      	ands	r3, r1
 8004e3a:	431a      	orrs	r2, r3
 8004e3c:	687b      	ldr	r3, [r7, #4]
 8004e3e:	6999      	ldr	r1, [r3, #24]
 8004e40:	2380      	movs	r3, #128	; 0x80
 8004e42:	009b      	lsls	r3, r3, #2
 8004e44:	400b      	ands	r3, r1
 8004e46:	431a      	orrs	r2, r3
 8004e48:	687b      	ldr	r3, [r7, #4]
 8004e4a:	69db      	ldr	r3, [r3, #28]
 8004e4c:	2138      	movs	r1, #56	; 0x38
 8004e4e:	400b      	ands	r3, r1
 8004e50:	431a      	orrs	r2, r3
 8004e52:	687b      	ldr	r3, [r7, #4]
 8004e54:	6a1b      	ldr	r3, [r3, #32]
 8004e56:	2180      	movs	r1, #128	; 0x80
 8004e58:	400b      	ands	r3, r1
 8004e5a:	431a      	orrs	r2, r3
 8004e5c:	0011      	movs	r1, r2
 8004e5e:	687b      	ldr	r3, [r7, #4]
 8004e60:	6a9a      	ldr	r2, [r3, #40]	; 0x28
 8004e62:	2380      	movs	r3, #128	; 0x80
 8004e64:	019b      	lsls	r3, r3, #6
 8004e66:	401a      	ands	r2, r3
 8004e68:	687b      	ldr	r3, [r7, #4]
 8004e6a:	681b      	ldr	r3, [r3, #0]
 8004e6c:	430a      	orrs	r2, r1
 8004e6e:	601a      	str	r2, [r3, #0]
    }
  }
#endif /* USE_SPI_CRC */

  /* Configure : NSS management, TI Mode, NSS Pulse, Data size and Rx Fifo threshold */
  WRITE_REG(hspi->Instance->CR2, (((hspi->Init.NSS >> 16U) & SPI_CR2_SSOE) |
 8004e70:	687b      	ldr	r3, [r7, #4]
 8004e72:	699b      	ldr	r3, [r3, #24]
 8004e74:	0c1b      	lsrs	r3, r3, #16
 8004e76:	2204      	movs	r2, #4
 8004e78:	401a      	ands	r2, r3
 8004e7a:	687b      	ldr	r3, [r7, #4]
 8004e7c:	6a5b      	ldr	r3, [r3, #36]	; 0x24
 8004e7e:	2110      	movs	r1, #16
 8004e80:	400b      	ands	r3, r1
 8004e82:	431a      	orrs	r2, r3
 8004e84:	687b      	ldr	r3, [r7, #4]
 8004e86:	6b5b      	ldr	r3, [r3, #52]	; 0x34
 8004e88:	2108      	movs	r1, #8
 8004e8a:	400b      	ands	r3, r1
 8004e8c:	431a      	orrs	r2, r3
 8004e8e:	687b      	ldr	r3, [r7, #4]
 8004e90:	68d9      	ldr	r1, [r3, #12]
 8004e92:	23f0      	movs	r3, #240	; 0xf0
 8004e94:	011b      	lsls	r3, r3, #4
 8004e96:	400b      	ands	r3, r1
 8004e98:	431a      	orrs	r2, r3
 8004e9a:	0011      	movs	r1, r2
 8004e9c:	68fa      	ldr	r2, [r7, #12]
 8004e9e:	2380      	movs	r3, #128	; 0x80
 8004ea0:	015b      	lsls	r3, r3, #5
 8004ea2:	401a      	ands	r2, r3
 8004ea4:	687b      	ldr	r3, [r7, #4]
 8004ea6:	681b      	ldr	r3, [r3, #0]
 8004ea8:	430a      	orrs	r2, r1
 8004eaa:	605a      	str	r2, [r3, #4]
  }
#endif /* USE_SPI_CRC */

#if defined(SPI_I2SCFGR_I2SMOD)
  /* Activate the SPI mode (Make sure that I2SMOD bit in I2SCFGR register is reset) */
  CLEAR_BIT(hspi->Instance->I2SCFGR, SPI_I2SCFGR_I2SMOD);
 8004eac:	687b      	ldr	r3, [r7, #4]
 8004eae:	681b      	ldr	r3, [r3, #0]
 8004eb0:	69da      	ldr	r2, [r3, #28]
 8004eb2:	687b      	ldr	r3, [r7, #4]
 8004eb4:	681b      	ldr	r3, [r3, #0]
 8004eb6:	4907      	ldr	r1, [pc, #28]	; (8004ed4 <HAL_SPI_Init+0x16c>)
 8004eb8:	400a      	ands	r2, r1
 8004eba:	61da      	str	r2, [r3, #28]
#endif /* SPI_I2SCFGR_I2SMOD */

  hspi->ErrorCode = HAL_SPI_ERROR_NONE;
 8004ebc:	687b      	ldr	r3, [r7, #4]
 8004ebe:	2200      	movs	r2, #0
 8004ec0:	661a      	str	r2, [r3, #96]	; 0x60
  hspi->State     = HAL_SPI_STATE_READY;
 8004ec2:	687b      	ldr	r3, [r7, #4]
 8004ec4:	225d      	movs	r2, #93	; 0x5d
 8004ec6:	2101      	movs	r1, #1
 8004ec8:	5499      	strb	r1, [r3, r2]

  return HAL_OK;
 8004eca:	2300      	movs	r3, #0
}
 8004ecc:	0018      	movs	r0, r3
 8004ece:	46bd      	mov	sp, r7
 8004ed0:	b004      	add	sp, #16
 8004ed2:	bd80      	pop	{r7, pc}
 8004ed4:	fffff7ff 	.word	0xfffff7ff

08004ed8 <HAL_SPI_Transmit>:
  * @param  Size amount of data to be sent
  * @param  Timeout Timeout duration
  * @retval HAL status
  */
HAL_StatusTypeDef HAL_SPI_Transmit(SPI_HandleTypeDef *hspi, uint8_t *pData, uint16_t Size, uint32_t Timeout)
{
 8004ed8:	b580      	push	{r7, lr}
 8004eda:	b088      	sub	sp, #32
 8004edc:	af00      	add	r7, sp, #0
 8004ede:	60f8      	str	r0, [r7, #12]
 8004ee0:	60b9      	str	r1, [r7, #8]
 8004ee2:	603b      	str	r3, [r7, #0]
 8004ee4:	1dbb      	adds	r3, r7, #6
 8004ee6:	801a      	strh	r2, [r3, #0]
  uint32_t tickstart;
  HAL_StatusTypeDef errorcode = HAL_OK;
 8004ee8:	231f      	movs	r3, #31
 8004eea:	18fb      	adds	r3, r7, r3
 8004eec:	2200      	movs	r2, #0
 8004eee:	701a      	strb	r2, [r3, #0]

  /* Check Direction parameter */
  assert_param(IS_SPI_DIRECTION_2LINES_OR_1LINE(hspi->Init.Direction));

  /* Process Locked */
  __HAL_LOCK(hspi);
 8004ef0:	68fb      	ldr	r3, [r7, #12]
 8004ef2:	225c      	movs	r2, #92	; 0x5c
 8004ef4:	5c9b      	ldrb	r3, [r3, r2]
 8004ef6:	2b01      	cmp	r3, #1
 8004ef8:	d101      	bne.n	8004efe <HAL_SPI_Transmit+0x26>
 8004efa:	2302      	movs	r3, #2
 8004efc:	e140      	b.n	8005180 <HAL_SPI_Transmit+0x2a8>
 8004efe:	68fb      	ldr	r3, [r7, #12]
 8004f00:	225c      	movs	r2, #92	; 0x5c
 8004f02:	2101      	movs	r1, #1
 8004f04:	5499      	strb	r1, [r3, r2]

  /* Init tickstart for timeout management*/
  tickstart = HAL_GetTick();
 8004f06:	f7fd f8d7 	bl	80020b8 <HAL_GetTick>
 8004f0a:	0003      	movs	r3, r0
 8004f0c:	61bb      	str	r3, [r7, #24]
  initial_TxXferCount = Size;
 8004f0e:	2316      	movs	r3, #22
 8004f10:	18fb      	adds	r3, r7, r3
 8004f12:	1dba      	adds	r2, r7, #6
 8004f14:	8812      	ldrh	r2, [r2, #0]
 8004f16:	801a      	strh	r2, [r3, #0]

  if (hspi->State != HAL_SPI_STATE_READY)
 8004f18:	68fb      	ldr	r3, [r7, #12]
 8004f1a:	225d      	movs	r2, #93	; 0x5d
 8004f1c:	5c9b      	ldrb	r3, [r3, r2]
 8004f1e:	b2db      	uxtb	r3, r3
 8004f20:	2b01      	cmp	r3, #1
 8004f22:	d004      	beq.n	8004f2e <HAL_SPI_Transmit+0x56>
  {
    errorcode = HAL_BUSY;
 8004f24:	231f      	movs	r3, #31
 8004f26:	18fb      	adds	r3, r7, r3
 8004f28:	2202      	movs	r2, #2
 8004f2a:	701a      	strb	r2, [r3, #0]
    goto error;
 8004f2c:	e11d      	b.n	800516a <HAL_SPI_Transmit+0x292>
  }

  if ((pData == NULL) || (Size == 0U))
 8004f2e:	68bb      	ldr	r3, [r7, #8]
 8004f30:	2b00      	cmp	r3, #0
 8004f32:	d003      	beq.n	8004f3c <HAL_SPI_Transmit+0x64>
 8004f34:	1dbb      	adds	r3, r7, #6
 8004f36:	881b      	ldrh	r3, [r3, #0]
 8004f38:	2b00      	cmp	r3, #0
 8004f3a:	d104      	bne.n	8004f46 <HAL_SPI_Transmit+0x6e>
  {
    errorcode = HAL_ERROR;
 8004f3c:	231f      	movs	r3, #31
 8004f3e:	18fb      	adds	r3, r7, r3
 8004f40:	2201      	movs	r2, #1
 8004f42:	701a      	strb	r2, [r3, #0]
    goto error;
 8004f44:	e111      	b.n	800516a <HAL_SPI_Transmit+0x292>
  }

  /* Set the transaction information */
  hspi->State       = HAL_SPI_STATE_BUSY_TX;
 8004f46:	68fb      	ldr	r3, [r7, #12]
 8004f48:	225d      	movs	r2, #93	; 0x5d
 8004f4a:	2103      	movs	r1, #3
 8004f4c:	5499      	strb	r1, [r3, r2]
  hspi->ErrorCode   = HAL_SPI_ERROR_NONE;
 8004f4e:	68fb      	ldr	r3, [r7, #12]
 8004f50:	2200      	movs	r2, #0
 8004f52:	661a      	str	r2, [r3, #96]	; 0x60
  hspi->pTxBuffPtr  = (uint8_t *)pData;
 8004f54:	68fb      	ldr	r3, [r7, #12]
 8004f56:	68ba      	ldr	r2, [r7, #8]
 8004f58:	639a      	str	r2, [r3, #56]	; 0x38
  hspi->TxXferSize  = Size;
 8004f5a:	68fb      	ldr	r3, [r7, #12]
 8004f5c:	1dba      	adds	r2, r7, #6
 8004f5e:	8812      	ldrh	r2, [r2, #0]
 8004f60:	879a      	strh	r2, [r3, #60]	; 0x3c
  hspi->TxXferCount = Size;
 8004f62:	68fb      	ldr	r3, [r7, #12]
 8004f64:	1dba      	adds	r2, r7, #6
 8004f66:	8812      	ldrh	r2, [r2, #0]
 8004f68:	87da      	strh	r2, [r3, #62]	; 0x3e

  /*Init field not used in handle to zero */
  hspi->pRxBuffPtr  = (uint8_t *)NULL;
 8004f6a:	68fb      	ldr	r3, [r7, #12]
 8004f6c:	2200      	movs	r2, #0
 8004f6e:	641a      	str	r2, [r3, #64]	; 0x40
  hspi->RxXferSize  = 0U;
 8004f70:	68fb      	ldr	r3, [r7, #12]
 8004f72:	2244      	movs	r2, #68	; 0x44
 8004f74:	2100      	movs	r1, #0
 8004f76:	5299      	strh	r1, [r3, r2]
  hspi->RxXferCount = 0U;
 8004f78:	68fb      	ldr	r3, [r7, #12]
 8004f7a:	2246      	movs	r2, #70	; 0x46
 8004f7c:	2100      	movs	r1, #0
 8004f7e:	5299      	strh	r1, [r3, r2]
  hspi->TxISR       = NULL;
 8004f80:	68fb      	ldr	r3, [r7, #12]
 8004f82:	2200      	movs	r2, #0
 8004f84:	651a      	str	r2, [r3, #80]	; 0x50
  hspi->RxISR       = NULL;
 8004f86:	68fb      	ldr	r3, [r7, #12]
 8004f88:	2200      	movs	r2, #0
 8004f8a:	64da      	str	r2, [r3, #76]	; 0x4c

  /* Configure communication direction : 1Line */
  if (hspi->Init.Direction == SPI_DIRECTION_1LINE)
 8004f8c:	68fb      	ldr	r3, [r7, #12]
 8004f8e:	689a      	ldr	r2, [r3, #8]
 8004f90:	2380      	movs	r3, #128	; 0x80
 8004f92:	021b      	lsls	r3, r3, #8
 8004f94:	429a      	cmp	r2, r3
 8004f96:	d110      	bne.n	8004fba <HAL_SPI_Transmit+0xe2>
  {
    /* Disable SPI Peripheral before set 1Line direction (BIDIOE bit) */
    __HAL_SPI_DISABLE(hspi);
 8004f98:	68fb      	ldr	r3, [r7, #12]
 8004f9a:	681b      	ldr	r3, [r3, #0]
 8004f9c:	681a      	ldr	r2, [r3, #0]
 8004f9e:	68fb      	ldr	r3, [r7, #12]
 8004fa0:	681b      	ldr	r3, [r3, #0]
 8004fa2:	2140      	movs	r1, #64	; 0x40
 8004fa4:	438a      	bics	r2, r1
 8004fa6:	601a      	str	r2, [r3, #0]
    SPI_1LINE_TX(hspi);
 8004fa8:	68fb      	ldr	r3, [r7, #12]
 8004faa:	681b      	ldr	r3, [r3, #0]
 8004fac:	681a      	ldr	r2, [r3, #0]
 8004fae:	68fb      	ldr	r3, [r7, #12]
 8004fb0:	681b      	ldr	r3, [r3, #0]
 8004fb2:	2180      	movs	r1, #128	; 0x80
 8004fb4:	01c9      	lsls	r1, r1, #7
 8004fb6:	430a      	orrs	r2, r1
 8004fb8:	601a      	str	r2, [r3, #0]
    SPI_RESET_CRC(hspi);
  }
#endif /* USE_SPI_CRC */

  /* Check if the SPI is already enabled */
  if ((hspi->Instance->CR1 & SPI_CR1_SPE) != SPI_CR1_SPE)
 8004fba:	68fb      	ldr	r3, [r7, #12]
 8004fbc:	681b      	ldr	r3, [r3, #0]
 8004fbe:	681b      	ldr	r3, [r3, #0]
 8004fc0:	2240      	movs	r2, #64	; 0x40
 8004fc2:	4013      	ands	r3, r2
 8004fc4:	2b40      	cmp	r3, #64	; 0x40
 8004fc6:	d007      	beq.n	8004fd8 <HAL_SPI_Transmit+0x100>
  {
    /* Enable SPI peripheral */
    __HAL_SPI_ENABLE(hspi);
 8004fc8:	68fb      	ldr	r3, [r7, #12]
 8004fca:	681b      	ldr	r3, [r3, #0]
 8004fcc:	681a      	ldr	r2, [r3, #0]
 8004fce:	68fb      	ldr	r3, [r7, #12]
 8004fd0:	681b      	ldr	r3, [r3, #0]
 8004fd2:	2140      	movs	r1, #64	; 0x40
 8004fd4:	430a      	orrs	r2, r1
 8004fd6:	601a      	str	r2, [r3, #0]
  }

  /* Transmit data in 16 Bit mode */
  if (hspi->Init.DataSize > SPI_DATASIZE_8BIT)
 8004fd8:	68fb      	ldr	r3, [r7, #12]
 8004fda:	68da      	ldr	r2, [r3, #12]
 8004fdc:	23e0      	movs	r3, #224	; 0xe0
 8004fde:	00db      	lsls	r3, r3, #3
 8004fe0:	429a      	cmp	r2, r3
 8004fe2:	d94e      	bls.n	8005082 <HAL_SPI_Transmit+0x1aa>
  {
    if ((hspi->Init.Mode == SPI_MODE_SLAVE) || (initial_TxXferCount == 0x01U))
 8004fe4:	68fb      	ldr	r3, [r7, #12]
 8004fe6:	685b      	ldr	r3, [r3, #4]
 8004fe8:	2b00      	cmp	r3, #0
 8004fea:	d004      	beq.n	8004ff6 <HAL_SPI_Transmit+0x11e>
 8004fec:	2316      	movs	r3, #22
 8004fee:	18fb      	adds	r3, r7, r3
 8004ff0:	881b      	ldrh	r3, [r3, #0]
 8004ff2:	2b01      	cmp	r3, #1
 8004ff4:	d13f      	bne.n	8005076 <HAL_SPI_Transmit+0x19e>
    {
      hspi->Instance->DR = *((uint16_t *)hspi->pTxBuffPtr);
 8004ff6:	68fb      	ldr	r3, [r7, #12]
 8004ff8:	6b9b      	ldr	r3, [r3, #56]	; 0x38
 8004ffa:	881a      	ldrh	r2, [r3, #0]
 8004ffc:	68fb      	ldr	r3, [r7, #12]
 8004ffe:	681b      	ldr	r3, [r3, #0]
 8005000:	60da      	str	r2, [r3, #12]
      hspi->pTxBuffPtr += sizeof(uint16_t);
 8005002:	68fb      	ldr	r3, [r7, #12]
 8005004:	6b9b      	ldr	r3, [r3, #56]	; 0x38
 8005006:	1c9a      	adds	r2, r3, #2
 8005008:	68fb      	ldr	r3, [r7, #12]
 800500a:	639a      	str	r2, [r3, #56]	; 0x38
      hspi->TxXferCount--;
 800500c:	68fb      	ldr	r3, [r7, #12]
 800500e:	8fdb      	ldrh	r3, [r3, #62]	; 0x3e
 8005010:	b29b      	uxth	r3, r3
 8005012:	3b01      	subs	r3, #1
 8005014:	b29a      	uxth	r2, r3
 8005016:	68fb      	ldr	r3, [r7, #12]
 8005018:	87da      	strh	r2, [r3, #62]	; 0x3e
    }
    /* Transmit data in 16 Bit mode */
    while (hspi->TxXferCount > 0U)
 800501a:	e02c      	b.n	8005076 <HAL_SPI_Transmit+0x19e>
    {
      /* Wait until TXE flag is set to send data */
      if (__HAL_SPI_GET_FLAG(hspi, SPI_FLAG_TXE))
 800501c:	68fb      	ldr	r3, [r7, #12]
 800501e:	681b      	ldr	r3, [r3, #0]
 8005020:	689b      	ldr	r3, [r3, #8]
 8005022:	2202      	movs	r2, #2
 8005024:	4013      	ands	r3, r2
 8005026:	2b02      	cmp	r3, #2
 8005028:	d112      	bne.n	8005050 <HAL_SPI_Transmit+0x178>
      {
        hspi->Instance->DR = *((uint16_t *)hspi->pTxBuffPtr);
 800502a:	68fb      	ldr	r3, [r7, #12]
 800502c:	6b9b      	ldr	r3, [r3, #56]	; 0x38
 800502e:	881a      	ldrh	r2, [r3, #0]
 8005030:	68fb      	ldr	r3, [r7, #12]
 8005032:	681b      	ldr	r3, [r3, #0]
 8005034:	60da      	str	r2, [r3, #12]
        hspi->pTxBuffPtr += sizeof(uint16_t);
 8005036:	68fb      	ldr	r3, [r7, #12]
 8005038:	6b9b      	ldr	r3, [r3, #56]	; 0x38
 800503a:	1c9a      	adds	r2, r3, #2
 800503c:	68fb      	ldr	r3, [r7, #12]
 800503e:	639a      	str	r2, [r3, #56]	; 0x38
        hspi->TxXferCount--;
 8005040:	68fb      	ldr	r3, [r7, #12]
 8005042:	8fdb      	ldrh	r3, [r3, #62]	; 0x3e
 8005044:	b29b      	uxth	r3, r3
 8005046:	3b01      	subs	r3, #1
 8005048:	b29a      	uxth	r2, r3
 800504a:	68fb      	ldr	r3, [r7, #12]
 800504c:	87da      	strh	r2, [r3, #62]	; 0x3e
 800504e:	e012      	b.n	8005076 <HAL_SPI_Transmit+0x19e>
      }
      else
      {
        /* Timeout management */
        if ((((HAL_GetTick() - tickstart) >=  Timeout) && (Timeout != HAL_MAX_DELAY)) || (Timeout == 0U))
 8005050:	f7fd f832 	bl	80020b8 <HAL_GetTick>
 8005054:	0002      	movs	r2, r0
 8005056:	69bb      	ldr	r3, [r7, #24]
 8005058:	1ad3      	subs	r3, r2, r3
 800505a:	683a      	ldr	r2, [r7, #0]
 800505c:	429a      	cmp	r2, r3
 800505e:	d802      	bhi.n	8005066 <HAL_SPI_Transmit+0x18e>
 8005060:	683b      	ldr	r3, [r7, #0]
 8005062:	3301      	adds	r3, #1
 8005064:	d102      	bne.n	800506c <HAL_SPI_Transmit+0x194>
 8005066:	683b      	ldr	r3, [r7, #0]
 8005068:	2b00      	cmp	r3, #0
 800506a:	d104      	bne.n	8005076 <HAL_SPI_Transmit+0x19e>
        {
          errorcode = HAL_TIMEOUT;
 800506c:	231f      	movs	r3, #31
 800506e:	18fb      	adds	r3, r7, r3
 8005070:	2203      	movs	r2, #3
 8005072:	701a      	strb	r2, [r3, #0]
          goto error;
 8005074:	e079      	b.n	800516a <HAL_SPI_Transmit+0x292>
    while (hspi->TxXferCount > 0U)
 8005076:	68fb      	ldr	r3, [r7, #12]
 8005078:	8fdb      	ldrh	r3, [r3, #62]	; 0x3e
 800507a:	b29b      	uxth	r3, r3
 800507c:	2b00      	cmp	r3, #0
 800507e:	d1cd      	bne.n	800501c <HAL_SPI_Transmit+0x144>
 8005080:	e04f      	b.n	8005122 <HAL_SPI_Transmit+0x24a>
    }
  }
  /* Transmit data in 8 Bit mode */
  else
  {
    if ((hspi->Init.Mode == SPI_MODE_SLAVE) || (initial_TxXferCount == 0x01U))
 8005082:	68fb      	ldr	r3, [r7, #12]
 8005084:	685b      	ldr	r3, [r3, #4]
 8005086:	2b00      	cmp	r3, #0
 8005088:	d004      	beq.n	8005094 <HAL_SPI_Transmit+0x1bc>
 800508a:	2316      	movs	r3, #22
 800508c:	18fb      	adds	r3, r7, r3
 800508e:	881b      	ldrh	r3, [r3, #0]
 8005090:	2b01      	cmp	r3, #1
 8005092:	d141      	bne.n	8005118 <HAL_SPI_Transmit+0x240>
    {
      *((__IO uint8_t *)&hspi->Instance->DR) = (*hspi->pTxBuffPtr);
 8005094:	68fb      	ldr	r3, [r7, #12]
 8005096:	6b9a      	ldr	r2, [r3, #56]	; 0x38
 8005098:	68fb      	ldr	r3, [r7, #12]
 800509a:	681b      	ldr	r3, [r3, #0]
 800509c:	330c      	adds	r3, #12
 800509e:	7812      	ldrb	r2, [r2, #0]
 80050a0:	701a      	strb	r2, [r3, #0]
      hspi->pTxBuffPtr += sizeof(uint8_t);
 80050a2:	68fb      	ldr	r3, [r7, #12]
 80050a4:	6b9b      	ldr	r3, [r3, #56]	; 0x38
 80050a6:	1c5a      	adds	r2, r3, #1
 80050a8:	68fb      	ldr	r3, [r7, #12]
 80050aa:	639a      	str	r2, [r3, #56]	; 0x38
      hspi->TxXferCount--;
 80050ac:	68fb      	ldr	r3, [r7, #12]
 80050ae:	8fdb      	ldrh	r3, [r3, #62]	; 0x3e
 80050b0:	b29b      	uxth	r3, r3
 80050b2:	3b01      	subs	r3, #1
 80050b4:	b29a      	uxth	r2, r3
 80050b6:	68fb      	ldr	r3, [r7, #12]
 80050b8:	87da      	strh	r2, [r3, #62]	; 0x3e
    }
    while (hspi->TxXferCount > 0U)
 80050ba:	e02d      	b.n	8005118 <HAL_SPI_Transmit+0x240>
    {
      /* Wait until TXE flag is set to send data */
      if (__HAL_SPI_GET_FLAG(hspi, SPI_FLAG_TXE))
 80050bc:	68fb      	ldr	r3, [r7, #12]
 80050be:	681b      	ldr	r3, [r3, #0]
 80050c0:	689b      	ldr	r3, [r3, #8]
 80050c2:	2202      	movs	r2, #2
 80050c4:	4013      	ands	r3, r2
 80050c6:	2b02      	cmp	r3, #2
 80050c8:	d113      	bne.n	80050f2 <HAL_SPI_Transmit+0x21a>
      {
        *((__IO uint8_t *)&hspi->Instance->DR) = (*hspi->pTxBuffPtr);
 80050ca:	68fb      	ldr	r3, [r7, #12]
 80050cc:	6b9a      	ldr	r2, [r3, #56]	; 0x38
 80050ce:	68fb      	ldr	r3, [r7, #12]
 80050d0:	681b      	ldr	r3, [r3, #0]
 80050d2:	330c      	adds	r3, #12
 80050d4:	7812      	ldrb	r2, [r2, #0]
 80050d6:	701a      	strb	r2, [r3, #0]
        hspi->pTxBuffPtr += sizeof(uint8_t);
 80050d8:	68fb      	ldr	r3, [r7, #12]
 80050da:	6b9b      	ldr	r3, [r3, #56]	; 0x38
 80050dc:	1c5a      	adds	r2, r3, #1
 80050de:	68fb      	ldr	r3, [r7, #12]
 80050e0:	639a      	str	r2, [r3, #56]	; 0x38
        hspi->TxXferCount--;
 80050e2:	68fb      	ldr	r3, [r7, #12]
 80050e4:	8fdb      	ldrh	r3, [r3, #62]	; 0x3e
 80050e6:	b29b      	uxth	r3, r3
 80050e8:	3b01      	subs	r3, #1
 80050ea:	b29a      	uxth	r2, r3
 80050ec:	68fb      	ldr	r3, [r7, #12]
 80050ee:	87da      	strh	r2, [r3, #62]	; 0x3e
 80050f0:	e012      	b.n	8005118 <HAL_SPI_Transmit+0x240>
      }
      else
      {
        /* Timeout management */
        if ((((HAL_GetTick() - tickstart) >=  Timeout) && (Timeout != HAL_MAX_DELAY)) || (Timeout == 0U))
 80050f2:	f7fc ffe1 	bl	80020b8 <HAL_GetTick>
 80050f6:	0002      	movs	r2, r0
 80050f8:	69bb      	ldr	r3, [r7, #24]
 80050fa:	1ad3      	subs	r3, r2, r3
 80050fc:	683a      	ldr	r2, [r7, #0]
 80050fe:	429a      	cmp	r2, r3
 8005100:	d802      	bhi.n	8005108 <HAL_SPI_Transmit+0x230>
 8005102:	683b      	ldr	r3, [r7, #0]
 8005104:	3301      	adds	r3, #1
 8005106:	d102      	bne.n	800510e <HAL_SPI_Transmit+0x236>
 8005108:	683b      	ldr	r3, [r7, #0]
 800510a:	2b00      	cmp	r3, #0
 800510c:	d104      	bne.n	8005118 <HAL_SPI_Transmit+0x240>
        {
          errorcode = HAL_TIMEOUT;
 800510e:	231f      	movs	r3, #31
 8005110:	18fb      	adds	r3, r7, r3
 8005112:	2203      	movs	r2, #3
 8005114:	701a      	strb	r2, [r3, #0]
          goto error;
 8005116:	e028      	b.n	800516a <HAL_SPI_Transmit+0x292>
    while (hspi->TxXferCount > 0U)
 8005118:	68fb      	ldr	r3, [r7, #12]
 800511a:	8fdb      	ldrh	r3, [r3, #62]	; 0x3e
 800511c:	b29b      	uxth	r3, r3
 800511e:	2b00      	cmp	r3, #0
 8005120:	d1cc      	bne.n	80050bc <HAL_SPI_Transmit+0x1e4>
    SET_BIT(hspi->Instance->CR1, SPI_CR1_CRCNEXT);
  }
#endif /* USE_SPI_CRC */

  /* Check the end of the transaction */
  if (SPI_EndRxTxTransaction(hspi, Timeout, tickstart) != HAL_OK)
 8005122:	69ba      	ldr	r2, [r7, #24]
 8005124:	6839      	ldr	r1, [r7, #0]
 8005126:	68fb      	ldr	r3, [r7, #12]
 8005128:	0018      	movs	r0, r3
 800512a:	f000 fccf 	bl	8005acc <SPI_EndRxTxTransaction>
 800512e:	1e03      	subs	r3, r0, #0
 8005130:	d002      	beq.n	8005138 <HAL_SPI_Transmit+0x260>
  {
    hspi->ErrorCode = HAL_SPI_ERROR_FLAG;
 8005132:	68fb      	ldr	r3, [r7, #12]
 8005134:	2220      	movs	r2, #32
 8005136:	661a      	str	r2, [r3, #96]	; 0x60
  }

  /* Clear overrun flag in 2 Lines communication mode because received is not read */
  if (hspi->Init.Direction == SPI_DIRECTION_2LINES)
 8005138:	68fb      	ldr	r3, [r7, #12]
 800513a:	689b      	ldr	r3, [r3, #8]
 800513c:	2b00      	cmp	r3, #0
 800513e:	d10a      	bne.n	8005156 <HAL_SPI_Transmit+0x27e>
  {
    __HAL_SPI_CLEAR_OVRFLAG(hspi);
 8005140:	2300      	movs	r3, #0
 8005142:	613b      	str	r3, [r7, #16]
 8005144:	68fb      	ldr	r3, [r7, #12]
 8005146:	681b      	ldr	r3, [r3, #0]
 8005148:	68db      	ldr	r3, [r3, #12]
 800514a:	613b      	str	r3, [r7, #16]
 800514c:	68fb      	ldr	r3, [r7, #12]
 800514e:	681b      	ldr	r3, [r3, #0]
 8005150:	689b      	ldr	r3, [r3, #8]
 8005152:	613b      	str	r3, [r7, #16]
 8005154:	693b      	ldr	r3, [r7, #16]
  }

  if (hspi->ErrorCode != HAL_SPI_ERROR_NONE)
 8005156:	68fb      	ldr	r3, [r7, #12]
 8005158:	6e1b      	ldr	r3, [r3, #96]	; 0x60
 800515a:	2b00      	cmp	r3, #0
 800515c:	d004      	beq.n	8005168 <HAL_SPI_Transmit+0x290>
  {
    errorcode = HAL_ERROR;
 800515e:	231f      	movs	r3, #31
 8005160:	18fb      	adds	r3, r7, r3
 8005162:	2201      	movs	r2, #1
 8005164:	701a      	strb	r2, [r3, #0]
 8005166:	e000      	b.n	800516a <HAL_SPI_Transmit+0x292>
  }

error:
 8005168:	46c0      	nop			; (mov r8, r8)
  hspi->State = HAL_SPI_STATE_READY;
 800516a:	68fb      	ldr	r3, [r7, #12]
 800516c:	225d      	movs	r2, #93	; 0x5d
 800516e:	2101      	movs	r1, #1
 8005170:	5499      	strb	r1, [r3, r2]
  /* Process Unlocked */
  __HAL_UNLOCK(hspi);
 8005172:	68fb      	ldr	r3, [r7, #12]
 8005174:	225c      	movs	r2, #92	; 0x5c
 8005176:	2100      	movs	r1, #0
 8005178:	5499      	strb	r1, [r3, r2]
  return errorcode;
 800517a:	231f      	movs	r3, #31
 800517c:	18fb      	adds	r3, r7, r3
 800517e:	781b      	ldrb	r3, [r3, #0]
}
 8005180:	0018      	movs	r0, r3
 8005182:	46bd      	mov	sp, r7
 8005184:	b008      	add	sp, #32
 8005186:	bd80      	pop	{r7, pc}

08005188 <HAL_SPI_Receive>:
  * @param  Size amount of data to be received
  * @param  Timeout Timeout duration
  * @retval HAL status
  */
HAL_StatusTypeDef HAL_SPI_Receive(SPI_HandleTypeDef *hspi, uint8_t *pData, uint16_t Size, uint32_t Timeout)
{
 8005188:	b590      	push	{r4, r7, lr}
 800518a:	b089      	sub	sp, #36	; 0x24
 800518c:	af02      	add	r7, sp, #8
 800518e:	60f8      	str	r0, [r7, #12]
 8005190:	60b9      	str	r1, [r7, #8]
 8005192:	603b      	str	r3, [r7, #0]
 8005194:	1dbb      	adds	r3, r7, #6
 8005196:	801a      	strh	r2, [r3, #0]
  uint32_t tickstart;
  HAL_StatusTypeDef errorcode = HAL_OK;
 8005198:	2317      	movs	r3, #23
 800519a:	18fb      	adds	r3, r7, r3
 800519c:	2200      	movs	r2, #0
 800519e:	701a      	strb	r2, [r3, #0]

  if ((hspi->Init.Mode == SPI_MODE_MASTER) && (hspi->Init.Direction == SPI_DIRECTION_2LINES))
 80051a0:	68fb      	ldr	r3, [r7, #12]
 80051a2:	685a      	ldr	r2, [r3, #4]
 80051a4:	2382      	movs	r3, #130	; 0x82
 80051a6:	005b      	lsls	r3, r3, #1
 80051a8:	429a      	cmp	r2, r3
 80051aa:	d113      	bne.n	80051d4 <HAL_SPI_Receive+0x4c>
 80051ac:	68fb      	ldr	r3, [r7, #12]
 80051ae:	689b      	ldr	r3, [r3, #8]
 80051b0:	2b00      	cmp	r3, #0
 80051b2:	d10f      	bne.n	80051d4 <HAL_SPI_Receive+0x4c>
  {
    hspi->State = HAL_SPI_STATE_BUSY_RX;
 80051b4:	68fb      	ldr	r3, [r7, #12]
 80051b6:	225d      	movs	r2, #93	; 0x5d
 80051b8:	2104      	movs	r1, #4
 80051ba:	5499      	strb	r1, [r3, r2]
    /* Call transmit-receive function to send Dummy data on Tx line and generate clock on CLK line */
    return HAL_SPI_TransmitReceive(hspi, pData, pData, Size, Timeout);
 80051bc:	1dbb      	adds	r3, r7, #6
 80051be:	881c      	ldrh	r4, [r3, #0]
 80051c0:	68ba      	ldr	r2, [r7, #8]
 80051c2:	68b9      	ldr	r1, [r7, #8]
 80051c4:	68f8      	ldr	r0, [r7, #12]
 80051c6:	683b      	ldr	r3, [r7, #0]
 80051c8:	9300      	str	r3, [sp, #0]
 80051ca:	0023      	movs	r3, r4
 80051cc:	f000 f928 	bl	8005420 <HAL_SPI_TransmitReceive>
 80051d0:	0003      	movs	r3, r0
 80051d2:	e11c      	b.n	800540e <HAL_SPI_Receive+0x286>
  }

  /* Process Locked */
  __HAL_LOCK(hspi);
 80051d4:	68fb      	ldr	r3, [r7, #12]
 80051d6:	225c      	movs	r2, #92	; 0x5c
 80051d8:	5c9b      	ldrb	r3, [r3, r2]
 80051da:	2b01      	cmp	r3, #1
 80051dc:	d101      	bne.n	80051e2 <HAL_SPI_Receive+0x5a>
 80051de:	2302      	movs	r3, #2
 80051e0:	e115      	b.n	800540e <HAL_SPI_Receive+0x286>
 80051e2:	68fb      	ldr	r3, [r7, #12]
 80051e4:	225c      	movs	r2, #92	; 0x5c
 80051e6:	2101      	movs	r1, #1
 80051e8:	5499      	strb	r1, [r3, r2]

  /* Init tickstart for timeout management*/
  tickstart = HAL_GetTick();
 80051ea:	f7fc ff65 	bl	80020b8 <HAL_GetTick>
 80051ee:	0003      	movs	r3, r0
 80051f0:	613b      	str	r3, [r7, #16]

  if (hspi->State != HAL_SPI_STATE_READY)
 80051f2:	68fb      	ldr	r3, [r7, #12]
 80051f4:	225d      	movs	r2, #93	; 0x5d
 80051f6:	5c9b      	ldrb	r3, [r3, r2]
 80051f8:	b2db      	uxtb	r3, r3
 80051fa:	2b01      	cmp	r3, #1
 80051fc:	d004      	beq.n	8005208 <HAL_SPI_Receive+0x80>
  {
    errorcode = HAL_BUSY;
 80051fe:	2317      	movs	r3, #23
 8005200:	18fb      	adds	r3, r7, r3
 8005202:	2202      	movs	r2, #2
 8005204:	701a      	strb	r2, [r3, #0]
    goto error;
 8005206:	e0f7      	b.n	80053f8 <HAL_SPI_Receive+0x270>
  }

  if ((pData == NULL) || (Size == 0U))
 8005208:	68bb      	ldr	r3, [r7, #8]
 800520a:	2b00      	cmp	r3, #0
 800520c:	d003      	beq.n	8005216 <HAL_SPI_Receive+0x8e>
 800520e:	1dbb      	adds	r3, r7, #6
 8005210:	881b      	ldrh	r3, [r3, #0]
 8005212:	2b00      	cmp	r3, #0
 8005214:	d104      	bne.n	8005220 <HAL_SPI_Receive+0x98>
  {
    errorcode = HAL_ERROR;
 8005216:	2317      	movs	r3, #23
 8005218:	18fb      	adds	r3, r7, r3
 800521a:	2201      	movs	r2, #1
 800521c:	701a      	strb	r2, [r3, #0]
    goto error;
 800521e:	e0eb      	b.n	80053f8 <HAL_SPI_Receive+0x270>
  }

  /* Set the transaction information */
  hspi->State       = HAL_SPI_STATE_BUSY_RX;
 8005220:	68fb      	ldr	r3, [r7, #12]
 8005222:	225d      	movs	r2, #93	; 0x5d
 8005224:	2104      	movs	r1, #4
 8005226:	5499      	strb	r1, [r3, r2]
  hspi->ErrorCode   = HAL_SPI_ERROR_NONE;
 8005228:	68fb      	ldr	r3, [r7, #12]
 800522a:	2200      	movs	r2, #0
 800522c:	661a      	str	r2, [r3, #96]	; 0x60
  hspi->pRxBuffPtr  = (uint8_t *)pData;
 800522e:	68fb      	ldr	r3, [r7, #12]
 8005230:	68ba      	ldr	r2, [r7, #8]
 8005232:	641a      	str	r2, [r3, #64]	; 0x40
  hspi->RxXferSize  = Size;
 8005234:	68fb      	ldr	r3, [r7, #12]
 8005236:	1dba      	adds	r2, r7, #6
 8005238:	2144      	movs	r1, #68	; 0x44
 800523a:	8812      	ldrh	r2, [r2, #0]
 800523c:	525a      	strh	r2, [r3, r1]
  hspi->RxXferCount = Size;
 800523e:	68fb      	ldr	r3, [r7, #12]
 8005240:	1dba      	adds	r2, r7, #6
 8005242:	2146      	movs	r1, #70	; 0x46
 8005244:	8812      	ldrh	r2, [r2, #0]
 8005246:	525a      	strh	r2, [r3, r1]

  /*Init field not used in handle to zero */
  hspi->pTxBuffPtr  = (uint8_t *)NULL;
 8005248:	68fb      	ldr	r3, [r7, #12]
 800524a:	2200      	movs	r2, #0
 800524c:	639a      	str	r2, [r3, #56]	; 0x38
  hspi->TxXferSize  = 0U;
 800524e:	68fb      	ldr	r3, [r7, #12]
 8005250:	2200      	movs	r2, #0
 8005252:	879a      	strh	r2, [r3, #60]	; 0x3c
  hspi->TxXferCount = 0U;
 8005254:	68fb      	ldr	r3, [r7, #12]
 8005256:	2200      	movs	r2, #0
 8005258:	87da      	strh	r2, [r3, #62]	; 0x3e
  hspi->RxISR       = NULL;
 800525a:	68fb      	ldr	r3, [r7, #12]
 800525c:	2200      	movs	r2, #0
 800525e:	64da      	str	r2, [r3, #76]	; 0x4c
  hspi->TxISR       = NULL;
 8005260:	68fb      	ldr	r3, [r7, #12]
 8005262:	2200      	movs	r2, #0
 8005264:	651a      	str	r2, [r3, #80]	; 0x50
    hspi->RxXferCount--;
  }
#endif /* USE_SPI_CRC */

  /* Set the Rx Fifo threshold */
  if (hspi->Init.DataSize > SPI_DATASIZE_8BIT)
 8005266:	68fb      	ldr	r3, [r7, #12]
 8005268:	68da      	ldr	r2, [r3, #12]
 800526a:	23e0      	movs	r3, #224	; 0xe0
 800526c:	00db      	lsls	r3, r3, #3
 800526e:	429a      	cmp	r2, r3
 8005270:	d908      	bls.n	8005284 <HAL_SPI_Receive+0xfc>
  {
    /* Set RX Fifo threshold according the reception data length: 16bit */
    CLEAR_BIT(hspi->Instance->CR2, SPI_RXFIFO_THRESHOLD);
 8005272:	68fb      	ldr	r3, [r7, #12]
 8005274:	681b      	ldr	r3, [r3, #0]
 8005276:	685a      	ldr	r2, [r3, #4]
 8005278:	68fb      	ldr	r3, [r7, #12]
 800527a:	681b      	ldr	r3, [r3, #0]
 800527c:	4966      	ldr	r1, [pc, #408]	; (8005418 <HAL_SPI_Receive+0x290>)
 800527e:	400a      	ands	r2, r1
 8005280:	605a      	str	r2, [r3, #4]
 8005282:	e008      	b.n	8005296 <HAL_SPI_Receive+0x10e>
  }
  else
  {
    /* Set RX Fifo threshold according the reception data length: 8bit */
    SET_BIT(hspi->Instance->CR2, SPI_RXFIFO_THRESHOLD);
 8005284:	68fb      	ldr	r3, [r7, #12]
 8005286:	681b      	ldr	r3, [r3, #0]
 8005288:	685a      	ldr	r2, [r3, #4]
 800528a:	68fb      	ldr	r3, [r7, #12]
 800528c:	681b      	ldr	r3, [r3, #0]
 800528e:	2180      	movs	r1, #128	; 0x80
 8005290:	0149      	lsls	r1, r1, #5
 8005292:	430a      	orrs	r2, r1
 8005294:	605a      	str	r2, [r3, #4]
  }

  /* Configure communication direction: 1Line */
  if (hspi->Init.Direction == SPI_DIRECTION_1LINE)
 8005296:	68fb      	ldr	r3, [r7, #12]
 8005298:	689a      	ldr	r2, [r3, #8]
 800529a:	2380      	movs	r3, #128	; 0x80
 800529c:	021b      	lsls	r3, r3, #8
 800529e:	429a      	cmp	r2, r3
 80052a0:	d10f      	bne.n	80052c2 <HAL_SPI_Receive+0x13a>
  {
    /* Disable SPI Peripheral before set 1Line direction (BIDIOE bit) */
    __HAL_SPI_DISABLE(hspi);
 80052a2:	68fb      	ldr	r3, [r7, #12]
 80052a4:	681b      	ldr	r3, [r3, #0]
 80052a6:	681a      	ldr	r2, [r3, #0]
 80052a8:	68fb      	ldr	r3, [r7, #12]
 80052aa:	681b      	ldr	r3, [r3, #0]
 80052ac:	2140      	movs	r1, #64	; 0x40
 80052ae:	438a      	bics	r2, r1
 80052b0:	601a      	str	r2, [r3, #0]
    SPI_1LINE_RX(hspi);
 80052b2:	68fb      	ldr	r3, [r7, #12]
 80052b4:	681b      	ldr	r3, [r3, #0]
 80052b6:	681a      	ldr	r2, [r3, #0]
 80052b8:	68fb      	ldr	r3, [r7, #12]
 80052ba:	681b      	ldr	r3, [r3, #0]
 80052bc:	4957      	ldr	r1, [pc, #348]	; (800541c <HAL_SPI_Receive+0x294>)
 80052be:	400a      	ands	r2, r1
 80052c0:	601a      	str	r2, [r3, #0]
  }

  /* Check if the SPI is already enabled */
  if ((hspi->Instance->CR1 & SPI_CR1_SPE) != SPI_CR1_SPE)
 80052c2:	68fb      	ldr	r3, [r7, #12]
 80052c4:	681b      	ldr	r3, [r3, #0]
 80052c6:	681b      	ldr	r3, [r3, #0]
 80052c8:	2240      	movs	r2, #64	; 0x40
 80052ca:	4013      	ands	r3, r2
 80052cc:	2b40      	cmp	r3, #64	; 0x40
 80052ce:	d007      	beq.n	80052e0 <HAL_SPI_Receive+0x158>
  {
    /* Enable SPI peripheral */
    __HAL_SPI_ENABLE(hspi);
 80052d0:	68fb      	ldr	r3, [r7, #12]
 80052d2:	681b      	ldr	r3, [r3, #0]
 80052d4:	681a      	ldr	r2, [r3, #0]
 80052d6:	68fb      	ldr	r3, [r7, #12]
 80052d8:	681b      	ldr	r3, [r3, #0]
 80052da:	2140      	movs	r1, #64	; 0x40
 80052dc:	430a      	orrs	r2, r1
 80052de:	601a      	str	r2, [r3, #0]
  }

  /* Receive data in 8 Bit mode */
  if (hspi->Init.DataSize <= SPI_DATASIZE_8BIT)
 80052e0:	68fb      	ldr	r3, [r7, #12]
 80052e2:	68da      	ldr	r2, [r3, #12]
 80052e4:	23e0      	movs	r3, #224	; 0xe0
 80052e6:	00db      	lsls	r3, r3, #3
 80052e8:	429a      	cmp	r2, r3
 80052ea:	d900      	bls.n	80052ee <HAL_SPI_Receive+0x166>
 80052ec:	e069      	b.n	80053c2 <HAL_SPI_Receive+0x23a>
  {
    /* Transfer loop */
    while (hspi->RxXferCount > 0U)
 80052ee:	e031      	b.n	8005354 <HAL_SPI_Receive+0x1cc>
    {
      /* Check the RXNE flag */
      if (__HAL_SPI_GET_FLAG(hspi, SPI_FLAG_RXNE))
 80052f0:	68fb      	ldr	r3, [r7, #12]
 80052f2:	681b      	ldr	r3, [r3, #0]
 80052f4:	689b      	ldr	r3, [r3, #8]
 80052f6:	2201      	movs	r2, #1
 80052f8:	4013      	ands	r3, r2
 80052fa:	2b01      	cmp	r3, #1
 80052fc:	d117      	bne.n	800532e <HAL_SPI_Receive+0x1a6>
      {
        /* read the received data */
        (* (uint8_t *)hspi->pRxBuffPtr) = *(__IO uint8_t *)&hspi->Instance->DR;
 80052fe:	68fb      	ldr	r3, [r7, #12]
 8005300:	681b      	ldr	r3, [r3, #0]
 8005302:	330c      	adds	r3, #12
 8005304:	001a      	movs	r2, r3
 8005306:	68fb      	ldr	r3, [r7, #12]
 8005308:	6c1b      	ldr	r3, [r3, #64]	; 0x40
 800530a:	7812      	ldrb	r2, [r2, #0]
 800530c:	b2d2      	uxtb	r2, r2
 800530e:	701a      	strb	r2, [r3, #0]
        hspi->pRxBuffPtr += sizeof(uint8_t);
 8005310:	68fb      	ldr	r3, [r7, #12]
 8005312:	6c1b      	ldr	r3, [r3, #64]	; 0x40
 8005314:	1c5a      	adds	r2, r3, #1
 8005316:	68fb      	ldr	r3, [r7, #12]
 8005318:	641a      	str	r2, [r3, #64]	; 0x40
        hspi->RxXferCount--;
 800531a:	68fb      	ldr	r3, [r7, #12]
 800531c:	2246      	movs	r2, #70	; 0x46
 800531e:	5a9b      	ldrh	r3, [r3, r2]
 8005320:	b29b      	uxth	r3, r3
 8005322:	3b01      	subs	r3, #1
 8005324:	b299      	uxth	r1, r3
 8005326:	68fb      	ldr	r3, [r7, #12]
 8005328:	2246      	movs	r2, #70	; 0x46
 800532a:	5299      	strh	r1, [r3, r2]
 800532c:	e012      	b.n	8005354 <HAL_SPI_Receive+0x1cc>
      }
      else
      {
        /* Timeout management */
        if ((((HAL_GetTick() - tickstart) >=  Timeout) && (Timeout != HAL_MAX_DELAY)) || (Timeout == 0U))
 800532e:	f7fc fec3 	bl	80020b8 <HAL_GetTick>
 8005332:	0002      	movs	r2, r0
 8005334:	693b      	ldr	r3, [r7, #16]
 8005336:	1ad3      	subs	r3, r2, r3
 8005338:	683a      	ldr	r2, [r7, #0]
 800533a:	429a      	cmp	r2, r3
 800533c:	d802      	bhi.n	8005344 <HAL_SPI_Receive+0x1bc>
 800533e:	683b      	ldr	r3, [r7, #0]
 8005340:	3301      	adds	r3, #1
 8005342:	d102      	bne.n	800534a <HAL_SPI_Receive+0x1c2>
 8005344:	683b      	ldr	r3, [r7, #0]
 8005346:	2b00      	cmp	r3, #0
 8005348:	d104      	bne.n	8005354 <HAL_SPI_Receive+0x1cc>
        {
          errorcode = HAL_TIMEOUT;
 800534a:	2317      	movs	r3, #23
 800534c:	18fb      	adds	r3, r7, r3
 800534e:	2203      	movs	r2, #3
 8005350:	701a      	strb	r2, [r3, #0]
          goto error;
 8005352:	e051      	b.n	80053f8 <HAL_SPI_Receive+0x270>
    while (hspi->RxXferCount > 0U)
 8005354:	68fb      	ldr	r3, [r7, #12]
 8005356:	2246      	movs	r2, #70	; 0x46
 8005358:	5a9b      	ldrh	r3, [r3, r2]
 800535a:	b29b      	uxth	r3, r3
 800535c:	2b00      	cmp	r3, #0
 800535e:	d1c7      	bne.n	80052f0 <HAL_SPI_Receive+0x168>
 8005360:	e035      	b.n	80053ce <HAL_SPI_Receive+0x246>
  {
    /* Transfer loop */
    while (hspi->RxXferCount > 0U)
    {
      /* Check the RXNE flag */
      if (__HAL_SPI_GET_FLAG(hspi, SPI_FLAG_RXNE))
 8005362:	68fb      	ldr	r3, [r7, #12]
 8005364:	681b      	ldr	r3, [r3, #0]
 8005366:	689b      	ldr	r3, [r3, #8]
 8005368:	2201      	movs	r2, #1
 800536a:	4013      	ands	r3, r2
 800536c:	2b01      	cmp	r3, #1
 800536e:	d115      	bne.n	800539c <HAL_SPI_Receive+0x214>
      {
        *((uint16_t *)hspi->pRxBuffPtr) = (uint16_t)hspi->Instance->DR;
 8005370:	68fb      	ldr	r3, [r7, #12]
 8005372:	681b      	ldr	r3, [r3, #0]
 8005374:	68da      	ldr	r2, [r3, #12]
 8005376:	68fb      	ldr	r3, [r7, #12]
 8005378:	6c1b      	ldr	r3, [r3, #64]	; 0x40
 800537a:	b292      	uxth	r2, r2
 800537c:	801a      	strh	r2, [r3, #0]
        hspi->pRxBuffPtr += sizeof(uint16_t);
 800537e:	68fb      	ldr	r3, [r7, #12]
 8005380:	6c1b      	ldr	r3, [r3, #64]	; 0x40
 8005382:	1c9a      	adds	r2, r3, #2
 8005384:	68fb      	ldr	r3, [r7, #12]
 8005386:	641a      	str	r2, [r3, #64]	; 0x40
        hspi->RxXferCount--;
 8005388:	68fb      	ldr	r3, [r7, #12]
 800538a:	2246      	movs	r2, #70	; 0x46
 800538c:	5a9b      	ldrh	r3, [r3, r2]
 800538e:	b29b      	uxth	r3, r3
 8005390:	3b01      	subs	r3, #1
 8005392:	b299      	uxth	r1, r3
 8005394:	68fb      	ldr	r3, [r7, #12]
 8005396:	2246      	movs	r2, #70	; 0x46
 8005398:	5299      	strh	r1, [r3, r2]
 800539a:	e012      	b.n	80053c2 <HAL_SPI_Receive+0x23a>
      }
      else
      {
        /* Timeout management */
        if ((((HAL_GetTick() - tickstart) >=  Timeout) && (Timeout != HAL_MAX_DELAY)) || (Timeout == 0U))
 800539c:	f7fc fe8c 	bl	80020b8 <HAL_GetTick>
 80053a0:	0002      	movs	r2, r0
 80053a2:	693b      	ldr	r3, [r7, #16]
 80053a4:	1ad3      	subs	r3, r2, r3
 80053a6:	683a      	ldr	r2, [r7, #0]
 80053a8:	429a      	cmp	r2, r3
 80053aa:	d802      	bhi.n	80053b2 <HAL_SPI_Receive+0x22a>
 80053ac:	683b      	ldr	r3, [r7, #0]
 80053ae:	3301      	adds	r3, #1
 80053b0:	d102      	bne.n	80053b8 <HAL_SPI_Receive+0x230>
 80053b2:	683b      	ldr	r3, [r7, #0]
 80053b4:	2b00      	cmp	r3, #0
 80053b6:	d104      	bne.n	80053c2 <HAL_SPI_Receive+0x23a>
        {
          errorcode = HAL_TIMEOUT;
 80053b8:	2317      	movs	r3, #23
 80053ba:	18fb      	adds	r3, r7, r3
 80053bc:	2203      	movs	r2, #3
 80053be:	701a      	strb	r2, [r3, #0]
          goto error;
 80053c0:	e01a      	b.n	80053f8 <HAL_SPI_Receive+0x270>
    while (hspi->RxXferCount > 0U)
 80053c2:	68fb      	ldr	r3, [r7, #12]
 80053c4:	2246      	movs	r2, #70	; 0x46
 80053c6:	5a9b      	ldrh	r3, [r3, r2]
 80053c8:	b29b      	uxth	r3, r3
 80053ca:	2b00      	cmp	r3, #0
 80053cc:	d1c9      	bne.n	8005362 <HAL_SPI_Receive+0x1da>
    }
  }
#endif /* USE_SPI_CRC */

  /* Check the end of the transaction */
  if (SPI_EndRxTransaction(hspi, Timeout, tickstart) != HAL_OK)
 80053ce:	693a      	ldr	r2, [r7, #16]
 80053d0:	6839      	ldr	r1, [r7, #0]
 80053d2:	68fb      	ldr	r3, [r7, #12]
 80053d4:	0018      	movs	r0, r3
 80053d6:	f000 fb1b 	bl	8005a10 <SPI_EndRxTransaction>
 80053da:	1e03      	subs	r3, r0, #0
 80053dc:	d002      	beq.n	80053e4 <HAL_SPI_Receive+0x25c>
  {
    hspi->ErrorCode = HAL_SPI_ERROR_FLAG;
 80053de:	68fb      	ldr	r3, [r7, #12]
 80053e0:	2220      	movs	r2, #32
 80053e2:	661a      	str	r2, [r3, #96]	; 0x60
    SET_BIT(hspi->ErrorCode, HAL_SPI_ERROR_CRC);
    __HAL_SPI_CLEAR_CRCERRFLAG(hspi);
  }
#endif /* USE_SPI_CRC */

  if (hspi->ErrorCode != HAL_SPI_ERROR_NONE)
 80053e4:	68fb      	ldr	r3, [r7, #12]
 80053e6:	6e1b      	ldr	r3, [r3, #96]	; 0x60
 80053e8:	2b00      	cmp	r3, #0
 80053ea:	d004      	beq.n	80053f6 <HAL_SPI_Receive+0x26e>
  {
    errorcode = HAL_ERROR;
 80053ec:	2317      	movs	r3, #23
 80053ee:	18fb      	adds	r3, r7, r3
 80053f0:	2201      	movs	r2, #1
 80053f2:	701a      	strb	r2, [r3, #0]
 80053f4:	e000      	b.n	80053f8 <HAL_SPI_Receive+0x270>
  }

error :
 80053f6:	46c0      	nop			; (mov r8, r8)
  hspi->State = HAL_SPI_STATE_READY;
 80053f8:	68fb      	ldr	r3, [r7, #12]
 80053fa:	225d      	movs	r2, #93	; 0x5d
 80053fc:	2101      	movs	r1, #1
 80053fe:	5499      	strb	r1, [r3, r2]
  __HAL_UNLOCK(hspi);
 8005400:	68fb      	ldr	r3, [r7, #12]
 8005402:	225c      	movs	r2, #92	; 0x5c
 8005404:	2100      	movs	r1, #0
 8005406:	5499      	strb	r1, [r3, r2]
  return errorcode;
 8005408:	2317      	movs	r3, #23
 800540a:	18fb      	adds	r3, r7, r3
 800540c:	781b      	ldrb	r3, [r3, #0]
}
 800540e:	0018      	movs	r0, r3
 8005410:	46bd      	mov	sp, r7
 8005412:	b007      	add	sp, #28
 8005414:	bd90      	pop	{r4, r7, pc}
 8005416:	46c0      	nop			; (mov r8, r8)
 8005418:	ffffefff 	.word	0xffffefff
 800541c:	ffffbfff 	.word	0xffffbfff

08005420 <HAL_SPI_TransmitReceive>:
  * @param  Timeout Timeout duration
  * @retval HAL status
  */
HAL_StatusTypeDef HAL_SPI_TransmitReceive(SPI_HandleTypeDef *hspi, uint8_t *pTxData, uint8_t *pRxData, uint16_t Size,
                                          uint32_t Timeout)
{
 8005420:	b580      	push	{r7, lr}
 8005422:	b08a      	sub	sp, #40	; 0x28
 8005424:	af00      	add	r7, sp, #0
 8005426:	60f8      	str	r0, [r7, #12]
 8005428:	60b9      	str	r1, [r7, #8]
 800542a:	607a      	str	r2, [r7, #4]
 800542c:	001a      	movs	r2, r3
 800542e:	1cbb      	adds	r3, r7, #2
 8005430:	801a      	strh	r2, [r3, #0]
  uint32_t             spi_cr1;
  uint32_t             spi_cr2;
#endif /* USE_SPI_CRC */

  /* Variable used to alternate Rx and Tx during transfer */
  uint32_t             txallowed = 1U;
 8005432:	2301      	movs	r3, #1
 8005434:	627b      	str	r3, [r7, #36]	; 0x24
  HAL_StatusTypeDef    errorcode = HAL_OK;
 8005436:	2323      	movs	r3, #35	; 0x23
 8005438:	18fb      	adds	r3, r7, r3
 800543a:	2200      	movs	r2, #0
 800543c:	701a      	strb	r2, [r3, #0]

  /* Check Direction parameter */
  assert_param(IS_SPI_DIRECTION_2LINES(hspi->Init.Direction));

  /* Process Locked */
  __HAL_LOCK(hspi);
 800543e:	68fb      	ldr	r3, [r7, #12]
 8005440:	225c      	movs	r2, #92	; 0x5c
 8005442:	5c9b      	ldrb	r3, [r3, r2]
 8005444:	2b01      	cmp	r3, #1
 8005446:	d101      	bne.n	800544c <HAL_SPI_TransmitReceive+0x2c>
 8005448:	2302      	movs	r3, #2
 800544a:	e1b6      	b.n	80057ba <HAL_SPI_TransmitReceive+0x39a>
 800544c:	68fb      	ldr	r3, [r7, #12]
 800544e:	225c      	movs	r2, #92	; 0x5c
 8005450:	2101      	movs	r1, #1
 8005452:	5499      	strb	r1, [r3, r2]

  /* Init tickstart for timeout management*/
  tickstart = HAL_GetTick();
 8005454:	f7fc fe30 	bl	80020b8 <HAL_GetTick>
 8005458:	0003      	movs	r3, r0
 800545a:	61fb      	str	r3, [r7, #28]

  /* Init temporary variables */
  tmp_state           = hspi->State;
 800545c:	201b      	movs	r0, #27
 800545e:	183b      	adds	r3, r7, r0
 8005460:	68fa      	ldr	r2, [r7, #12]
 8005462:	215d      	movs	r1, #93	; 0x5d
 8005464:	5c52      	ldrb	r2, [r2, r1]
 8005466:	701a      	strb	r2, [r3, #0]
  tmp_mode            = hspi->Init.Mode;
 8005468:	68fb      	ldr	r3, [r7, #12]
 800546a:	685b      	ldr	r3, [r3, #4]
 800546c:	617b      	str	r3, [r7, #20]
  initial_TxXferCount = Size;
 800546e:	2312      	movs	r3, #18
 8005470:	18fb      	adds	r3, r7, r3
 8005472:	1cba      	adds	r2, r7, #2
 8005474:	8812      	ldrh	r2, [r2, #0]
 8005476:	801a      	strh	r2, [r3, #0]
#if (USE_SPI_CRC != 0U)
  spi_cr1             = READ_REG(hspi->Instance->CR1);
  spi_cr2             = READ_REG(hspi->Instance->CR2);
#endif /* USE_SPI_CRC */

  if (!((tmp_state == HAL_SPI_STATE_READY) || \
 8005478:	183b      	adds	r3, r7, r0
 800547a:	781b      	ldrb	r3, [r3, #0]
 800547c:	2b01      	cmp	r3, #1
 800547e:	d012      	beq.n	80054a6 <HAL_SPI_TransmitReceive+0x86>
 8005480:	697a      	ldr	r2, [r7, #20]
 8005482:	2382      	movs	r3, #130	; 0x82
 8005484:	005b      	lsls	r3, r3, #1
 8005486:	429a      	cmp	r2, r3
 8005488:	d108      	bne.n	800549c <HAL_SPI_TransmitReceive+0x7c>
        ((tmp_mode == SPI_MODE_MASTER) && (hspi->Init.Direction == SPI_DIRECTION_2LINES) && (tmp_state == HAL_SPI_STATE_BUSY_RX))))
 800548a:	68fb      	ldr	r3, [r7, #12]
 800548c:	689b      	ldr	r3, [r3, #8]
 800548e:	2b00      	cmp	r3, #0
 8005490:	d104      	bne.n	800549c <HAL_SPI_TransmitReceive+0x7c>
 8005492:	231b      	movs	r3, #27
 8005494:	18fb      	adds	r3, r7, r3
 8005496:	781b      	ldrb	r3, [r3, #0]
 8005498:	2b04      	cmp	r3, #4
 800549a:	d004      	beq.n	80054a6 <HAL_SPI_TransmitReceive+0x86>
  {
    errorcode = HAL_BUSY;
 800549c:	2323      	movs	r3, #35	; 0x23
 800549e:	18fb      	adds	r3, r7, r3
 80054a0:	2202      	movs	r2, #2
 80054a2:	701a      	strb	r2, [r3, #0]
    goto error;
 80054a4:	e17e      	b.n	80057a4 <HAL_SPI_TransmitReceive+0x384>
  }

  if ((pTxData == NULL) || (pRxData == NULL) || (Size == 0U))
 80054a6:	68bb      	ldr	r3, [r7, #8]
 80054a8:	2b00      	cmp	r3, #0
 80054aa:	d006      	beq.n	80054ba <HAL_SPI_TransmitReceive+0x9a>
 80054ac:	687b      	ldr	r3, [r7, #4]
 80054ae:	2b00      	cmp	r3, #0
 80054b0:	d003      	beq.n	80054ba <HAL_SPI_TransmitReceive+0x9a>
 80054b2:	1cbb      	adds	r3, r7, #2
 80054b4:	881b      	ldrh	r3, [r3, #0]
 80054b6:	2b00      	cmp	r3, #0
 80054b8:	d104      	bne.n	80054c4 <HAL_SPI_TransmitReceive+0xa4>
  {
    errorcode = HAL_ERROR;
 80054ba:	2323      	movs	r3, #35	; 0x23
 80054bc:	18fb      	adds	r3, r7, r3
 80054be:	2201      	movs	r2, #1
 80054c0:	701a      	strb	r2, [r3, #0]
    goto error;
 80054c2:	e16f      	b.n	80057a4 <HAL_SPI_TransmitReceive+0x384>
  }

  /* Don't overwrite in case of HAL_SPI_STATE_BUSY_RX */
  if (hspi->State != HAL_SPI_STATE_BUSY_RX)
 80054c4:	68fb      	ldr	r3, [r7, #12]
 80054c6:	225d      	movs	r2, #93	; 0x5d
 80054c8:	5c9b      	ldrb	r3, [r3, r2]
 80054ca:	b2db      	uxtb	r3, r3
 80054cc:	2b04      	cmp	r3, #4
 80054ce:	d003      	beq.n	80054d8 <HAL_SPI_TransmitReceive+0xb8>
  {
    hspi->State = HAL_SPI_STATE_BUSY_TX_RX;
 80054d0:	68fb      	ldr	r3, [r7, #12]
 80054d2:	225d      	movs	r2, #93	; 0x5d
 80054d4:	2105      	movs	r1, #5
 80054d6:	5499      	strb	r1, [r3, r2]
  }

  /* Set the transaction information */
  hspi->ErrorCode   = HAL_SPI_ERROR_NONE;
 80054d8:	68fb      	ldr	r3, [r7, #12]
 80054da:	2200      	movs	r2, #0
 80054dc:	661a      	str	r2, [r3, #96]	; 0x60
  hspi->pRxBuffPtr  = (uint8_t *)pRxData;
 80054de:	68fb      	ldr	r3, [r7, #12]
 80054e0:	687a      	ldr	r2, [r7, #4]
 80054e2:	641a      	str	r2, [r3, #64]	; 0x40
  hspi->RxXferCount = Size;
 80054e4:	68fb      	ldr	r3, [r7, #12]
 80054e6:	1cba      	adds	r2, r7, #2
 80054e8:	2146      	movs	r1, #70	; 0x46
 80054ea:	8812      	ldrh	r2, [r2, #0]
 80054ec:	525a      	strh	r2, [r3, r1]
  hspi->RxXferSize  = Size;
 80054ee:	68fb      	ldr	r3, [r7, #12]
 80054f0:	1cba      	adds	r2, r7, #2
 80054f2:	2144      	movs	r1, #68	; 0x44
 80054f4:	8812      	ldrh	r2, [r2, #0]
 80054f6:	525a      	strh	r2, [r3, r1]
  hspi->pTxBuffPtr  = (uint8_t *)pTxData;
 80054f8:	68fb      	ldr	r3, [r7, #12]
 80054fa:	68ba      	ldr	r2, [r7, #8]
 80054fc:	639a      	str	r2, [r3, #56]	; 0x38
  hspi->TxXferCount = Size;
 80054fe:	68fb      	ldr	r3, [r7, #12]
 8005500:	1cba      	adds	r2, r7, #2
 8005502:	8812      	ldrh	r2, [r2, #0]
 8005504:	87da      	strh	r2, [r3, #62]	; 0x3e
  hspi->TxXferSize  = Size;
 8005506:	68fb      	ldr	r3, [r7, #12]
 8005508:	1cba      	adds	r2, r7, #2
 800550a:	8812      	ldrh	r2, [r2, #0]
 800550c:	879a      	strh	r2, [r3, #60]	; 0x3c

  /*Init field not used in handle to zero */
  hspi->RxISR       = NULL;
 800550e:	68fb      	ldr	r3, [r7, #12]
 8005510:	2200      	movs	r2, #0
 8005512:	64da      	str	r2, [r3, #76]	; 0x4c
  hspi->TxISR       = NULL;
 8005514:	68fb      	ldr	r3, [r7, #12]
 8005516:	2200      	movs	r2, #0
 8005518:	651a      	str	r2, [r3, #80]	; 0x50
    SPI_RESET_CRC(hspi);
  }
#endif /* USE_SPI_CRC */

  /* Set the Rx Fifo threshold */
  if (hspi->Init.DataSize > SPI_DATASIZE_8BIT)
 800551a:	68fb      	ldr	r3, [r7, #12]
 800551c:	68da      	ldr	r2, [r3, #12]
 800551e:	23e0      	movs	r3, #224	; 0xe0
 8005520:	00db      	lsls	r3, r3, #3
 8005522:	429a      	cmp	r2, r3
 8005524:	d908      	bls.n	8005538 <HAL_SPI_TransmitReceive+0x118>
  {
    /* Set fiforxthreshold according the reception data length: 16bit */
    CLEAR_BIT(hspi->Instance->CR2, SPI_RXFIFO_THRESHOLD);
 8005526:	68fb      	ldr	r3, [r7, #12]
 8005528:	681b      	ldr	r3, [r3, #0]
 800552a:	685a      	ldr	r2, [r3, #4]
 800552c:	68fb      	ldr	r3, [r7, #12]
 800552e:	681b      	ldr	r3, [r3, #0]
 8005530:	49a4      	ldr	r1, [pc, #656]	; (80057c4 <HAL_SPI_TransmitReceive+0x3a4>)
 8005532:	400a      	ands	r2, r1
 8005534:	605a      	str	r2, [r3, #4]
 8005536:	e008      	b.n	800554a <HAL_SPI_TransmitReceive+0x12a>
  }
  else
  {
    /* Set fiforxthreshold according the reception data length: 8bit */
    SET_BIT(hspi->Instance->CR2, SPI_RXFIFO_THRESHOLD);
 8005538:	68fb      	ldr	r3, [r7, #12]
 800553a:	681b      	ldr	r3, [r3, #0]
 800553c:	685a      	ldr	r2, [r3, #4]
 800553e:	68fb      	ldr	r3, [r7, #12]
 8005540:	681b      	ldr	r3, [r3, #0]
 8005542:	2180      	movs	r1, #128	; 0x80
 8005544:	0149      	lsls	r1, r1, #5
 8005546:	430a      	orrs	r2, r1
 8005548:	605a      	str	r2, [r3, #4]
  }

  /* Check if the SPI is already enabled */
  if ((hspi->Instance->CR1 & SPI_CR1_SPE) != SPI_CR1_SPE)
 800554a:	68fb      	ldr	r3, [r7, #12]
 800554c:	681b      	ldr	r3, [r3, #0]
 800554e:	681b      	ldr	r3, [r3, #0]
 8005550:	2240      	movs	r2, #64	; 0x40
 8005552:	4013      	ands	r3, r2
 8005554:	2b40      	cmp	r3, #64	; 0x40
 8005556:	d007      	beq.n	8005568 <HAL_SPI_TransmitReceive+0x148>
  {
    /* Enable SPI peripheral */
    __HAL_SPI_ENABLE(hspi);
 8005558:	68fb      	ldr	r3, [r7, #12]
 800555a:	681b      	ldr	r3, [r3, #0]
 800555c:	681a      	ldr	r2, [r3, #0]
 800555e:	68fb      	ldr	r3, [r7, #12]
 8005560:	681b      	ldr	r3, [r3, #0]
 8005562:	2140      	movs	r1, #64	; 0x40
 8005564:	430a      	orrs	r2, r1
 8005566:	601a      	str	r2, [r3, #0]
  }

  /* Transmit and Receive data in 16 Bit mode */
  if (hspi->Init.DataSize > SPI_DATASIZE_8BIT)
 8005568:	68fb      	ldr	r3, [r7, #12]
 800556a:	68da      	ldr	r2, [r3, #12]
 800556c:	23e0      	movs	r3, #224	; 0xe0
 800556e:	00db      	lsls	r3, r3, #3
 8005570:	429a      	cmp	r2, r3
 8005572:	d800      	bhi.n	8005576 <HAL_SPI_TransmitReceive+0x156>
 8005574:	e07f      	b.n	8005676 <HAL_SPI_TransmitReceive+0x256>
  {
    if ((hspi->Init.Mode == SPI_MODE_SLAVE) || (initial_TxXferCount == 0x01U))
 8005576:	68fb      	ldr	r3, [r7, #12]
 8005578:	685b      	ldr	r3, [r3, #4]
 800557a:	2b00      	cmp	r3, #0
 800557c:	d005      	beq.n	800558a <HAL_SPI_TransmitReceive+0x16a>
 800557e:	2312      	movs	r3, #18
 8005580:	18fb      	adds	r3, r7, r3
 8005582:	881b      	ldrh	r3, [r3, #0]
 8005584:	2b01      	cmp	r3, #1
 8005586:	d000      	beq.n	800558a <HAL_SPI_TransmitReceive+0x16a>
 8005588:	e069      	b.n	800565e <HAL_SPI_TransmitReceive+0x23e>
    {
      hspi->Instance->DR = *((uint16_t *)hspi->pTxBuffPtr);
 800558a:	68fb      	ldr	r3, [r7, #12]
 800558c:	6b9b      	ldr	r3, [r3, #56]	; 0x38
 800558e:	881a      	ldrh	r2, [r3, #0]
 8005590:	68fb      	ldr	r3, [r7, #12]
 8005592:	681b      	ldr	r3, [r3, #0]
 8005594:	60da      	str	r2, [r3, #12]
      hspi->pTxBuffPtr += sizeof(uint16_t);
 8005596:	68fb      	ldr	r3, [r7, #12]
 8005598:	6b9b      	ldr	r3, [r3, #56]	; 0x38
 800559a:	1c9a      	adds	r2, r3, #2
 800559c:	68fb      	ldr	r3, [r7, #12]
 800559e:	639a      	str	r2, [r3, #56]	; 0x38
      hspi->TxXferCount--;
 80055a0:	68fb      	ldr	r3, [r7, #12]
 80055a2:	8fdb      	ldrh	r3, [r3, #62]	; 0x3e
 80055a4:	b29b      	uxth	r3, r3
 80055a6:	3b01      	subs	r3, #1
 80055a8:	b29a      	uxth	r2, r3
 80055aa:	68fb      	ldr	r3, [r7, #12]
 80055ac:	87da      	strh	r2, [r3, #62]	; 0x3e
    }
    while ((hspi->TxXferCount > 0U) || (hspi->RxXferCount > 0U))
 80055ae:	e056      	b.n	800565e <HAL_SPI_TransmitReceive+0x23e>
    {
      /* Check TXE flag */
      if ((__HAL_SPI_GET_FLAG(hspi, SPI_FLAG_TXE)) && (hspi->TxXferCount > 0U) && (txallowed == 1U))
 80055b0:	68fb      	ldr	r3, [r7, #12]
 80055b2:	681b      	ldr	r3, [r3, #0]
 80055b4:	689b      	ldr	r3, [r3, #8]
 80055b6:	2202      	movs	r2, #2
 80055b8:	4013      	ands	r3, r2
 80055ba:	2b02      	cmp	r3, #2
 80055bc:	d11b      	bne.n	80055f6 <HAL_SPI_TransmitReceive+0x1d6>
 80055be:	68fb      	ldr	r3, [r7, #12]
 80055c0:	8fdb      	ldrh	r3, [r3, #62]	; 0x3e
 80055c2:	b29b      	uxth	r3, r3
 80055c4:	2b00      	cmp	r3, #0
 80055c6:	d016      	beq.n	80055f6 <HAL_SPI_TransmitReceive+0x1d6>
 80055c8:	6a7b      	ldr	r3, [r7, #36]	; 0x24
 80055ca:	2b01      	cmp	r3, #1
 80055cc:	d113      	bne.n	80055f6 <HAL_SPI_TransmitReceive+0x1d6>
      {
        hspi->Instance->DR = *((uint16_t *)hspi->pTxBuffPtr);
 80055ce:	68fb      	ldr	r3, [r7, #12]
 80055d0:	6b9b      	ldr	r3, [r3, #56]	; 0x38
 80055d2:	881a      	ldrh	r2, [r3, #0]
 80055d4:	68fb      	ldr	r3, [r7, #12]
 80055d6:	681b      	ldr	r3, [r3, #0]
 80055d8:	60da      	str	r2, [r3, #12]
        hspi->pTxBuffPtr += sizeof(uint16_t);
 80055da:	68fb      	ldr	r3, [r7, #12]
 80055dc:	6b9b      	ldr	r3, [r3, #56]	; 0x38
 80055de:	1c9a      	adds	r2, r3, #2
 80055e0:	68fb      	ldr	r3, [r7, #12]
 80055e2:	639a      	str	r2, [r3, #56]	; 0x38
        hspi->TxXferCount--;
 80055e4:	68fb      	ldr	r3, [r7, #12]
 80055e6:	8fdb      	ldrh	r3, [r3, #62]	; 0x3e
 80055e8:	b29b      	uxth	r3, r3
 80055ea:	3b01      	subs	r3, #1
 80055ec:	b29a      	uxth	r2, r3
 80055ee:	68fb      	ldr	r3, [r7, #12]
 80055f0:	87da      	strh	r2, [r3, #62]	; 0x3e
        /* Next Data is a reception (Rx). Tx not allowed */
        txallowed = 0U;
 80055f2:	2300      	movs	r3, #0
 80055f4:	627b      	str	r3, [r7, #36]	; 0x24
        }
#endif /* USE_SPI_CRC */
      }

      /* Check RXNE flag */
      if ((__HAL_SPI_GET_FLAG(hspi, SPI_FLAG_RXNE)) && (hspi->RxXferCount > 0U))
 80055f6:	68fb      	ldr	r3, [r7, #12]
 80055f8:	681b      	ldr	r3, [r3, #0]
 80055fa:	689b      	ldr	r3, [r3, #8]
 80055fc:	2201      	movs	r2, #1
 80055fe:	4013      	ands	r3, r2
 8005600:	2b01      	cmp	r3, #1
 8005602:	d11c      	bne.n	800563e <HAL_SPI_TransmitReceive+0x21e>
 8005604:	68fb      	ldr	r3, [r7, #12]
 8005606:	2246      	movs	r2, #70	; 0x46
 8005608:	5a9b      	ldrh	r3, [r3, r2]
 800560a:	b29b      	uxth	r3, r3
 800560c:	2b00      	cmp	r3, #0
 800560e:	d016      	beq.n	800563e <HAL_SPI_TransmitReceive+0x21e>
      {
        *((uint16_t *)hspi->pRxBuffPtr) = (uint16_t)hspi->Instance->DR;
 8005610:	68fb      	ldr	r3, [r7, #12]
 8005612:	681b      	ldr	r3, [r3, #0]
 8005614:	68da      	ldr	r2, [r3, #12]
 8005616:	68fb      	ldr	r3, [r7, #12]
 8005618:	6c1b      	ldr	r3, [r3, #64]	; 0x40
 800561a:	b292      	uxth	r2, r2
 800561c:	801a      	strh	r2, [r3, #0]
        hspi->pRxBuffPtr += sizeof(uint16_t);
 800561e:	68fb      	ldr	r3, [r7, #12]
 8005620:	6c1b      	ldr	r3, [r3, #64]	; 0x40
 8005622:	1c9a      	adds	r2, r3, #2
 8005624:	68fb      	ldr	r3, [r7, #12]
 8005626:	641a      	str	r2, [r3, #64]	; 0x40
        hspi->RxXferCount--;
 8005628:	68fb      	ldr	r3, [r7, #12]
 800562a:	2246      	movs	r2, #70	; 0x46
 800562c:	5a9b      	ldrh	r3, [r3, r2]
 800562e:	b29b      	uxth	r3, r3
 8005630:	3b01      	subs	r3, #1
 8005632:	b299      	uxth	r1, r3
 8005634:	68fb      	ldr	r3, [r7, #12]
 8005636:	2246      	movs	r2, #70	; 0x46
 8005638:	5299      	strh	r1, [r3, r2]
        /* Next Data is a Transmission (Tx). Tx is allowed */
        txallowed = 1U;
 800563a:	2301      	movs	r3, #1
 800563c:	627b      	str	r3, [r7, #36]	; 0x24
      }
      if (((HAL_GetTick() - tickstart) >=  Timeout) && (Timeout != HAL_MAX_DELAY))
 800563e:	f7fc fd3b 	bl	80020b8 <HAL_GetTick>
 8005642:	0002      	movs	r2, r0
 8005644:	69fb      	ldr	r3, [r7, #28]
 8005646:	1ad3      	subs	r3, r2, r3
 8005648:	6b3a      	ldr	r2, [r7, #48]	; 0x30
 800564a:	429a      	cmp	r2, r3
 800564c:	d807      	bhi.n	800565e <HAL_SPI_TransmitReceive+0x23e>
 800564e:	6b3b      	ldr	r3, [r7, #48]	; 0x30
 8005650:	3301      	adds	r3, #1
 8005652:	d004      	beq.n	800565e <HAL_SPI_TransmitReceive+0x23e>
      {
        errorcode = HAL_TIMEOUT;
 8005654:	2323      	movs	r3, #35	; 0x23
 8005656:	18fb      	adds	r3, r7, r3
 8005658:	2203      	movs	r2, #3
 800565a:	701a      	strb	r2, [r3, #0]
        goto error;
 800565c:	e0a2      	b.n	80057a4 <HAL_SPI_TransmitReceive+0x384>
    while ((hspi->TxXferCount > 0U) || (hspi->RxXferCount > 0U))
 800565e:	68fb      	ldr	r3, [r7, #12]
 8005660:	8fdb      	ldrh	r3, [r3, #62]	; 0x3e
 8005662:	b29b      	uxth	r3, r3
 8005664:	2b00      	cmp	r3, #0
 8005666:	d1a3      	bne.n	80055b0 <HAL_SPI_TransmitReceive+0x190>
 8005668:	68fb      	ldr	r3, [r7, #12]
 800566a:	2246      	movs	r2, #70	; 0x46
 800566c:	5a9b      	ldrh	r3, [r3, r2]
 800566e:	b29b      	uxth	r3, r3
 8005670:	2b00      	cmp	r3, #0
 8005672:	d19d      	bne.n	80055b0 <HAL_SPI_TransmitReceive+0x190>
 8005674:	e085      	b.n	8005782 <HAL_SPI_TransmitReceive+0x362>
    }
  }
  /* Transmit and Receive data in 8 Bit mode */
  else
  {
    if ((hspi->Init.Mode == SPI_MODE_SLAVE) || (initial_TxXferCount == 0x01U))
 8005676:	68fb      	ldr	r3, [r7, #12]
 8005678:	685b      	ldr	r3, [r3, #4]
 800567a:	2b00      	cmp	r3, #0
 800567c:	d005      	beq.n	800568a <HAL_SPI_TransmitReceive+0x26a>
 800567e:	2312      	movs	r3, #18
 8005680:	18fb      	adds	r3, r7, r3
 8005682:	881b      	ldrh	r3, [r3, #0]
 8005684:	2b01      	cmp	r3, #1
 8005686:	d000      	beq.n	800568a <HAL_SPI_TransmitReceive+0x26a>
 8005688:	e070      	b.n	800576c <HAL_SPI_TransmitReceive+0x34c>
    {
      *((__IO uint8_t *)&hspi->Instance->DR) = (*hspi->pTxBuffPtr);
 800568a:	68fb      	ldr	r3, [r7, #12]
 800568c:	6b9a      	ldr	r2, [r3, #56]	; 0x38
 800568e:	68fb      	ldr	r3, [r7, #12]
 8005690:	681b      	ldr	r3, [r3, #0]
 8005692:	330c      	adds	r3, #12
 8005694:	7812      	ldrb	r2, [r2, #0]
 8005696:	701a      	strb	r2, [r3, #0]
      hspi->pTxBuffPtr += sizeof(uint8_t);
 8005698:	68fb      	ldr	r3, [r7, #12]
 800569a:	6b9b      	ldr	r3, [r3, #56]	; 0x38
 800569c:	1c5a      	adds	r2, r3, #1
 800569e:	68fb      	ldr	r3, [r7, #12]
 80056a0:	639a      	str	r2, [r3, #56]	; 0x38
      hspi->TxXferCount--;
 80056a2:	68fb      	ldr	r3, [r7, #12]
 80056a4:	8fdb      	ldrh	r3, [r3, #62]	; 0x3e
 80056a6:	b29b      	uxth	r3, r3
 80056a8:	3b01      	subs	r3, #1
 80056aa:	b29a      	uxth	r2, r3
 80056ac:	68fb      	ldr	r3, [r7, #12]
 80056ae:	87da      	strh	r2, [r3, #62]	; 0x3e
    }
    while ((hspi->TxXferCount > 0U) || (hspi->RxXferCount > 0U))
 80056b0:	e05c      	b.n	800576c <HAL_SPI_TransmitReceive+0x34c>
    {
      /* Check TXE flag */
      if ((__HAL_SPI_GET_FLAG(hspi, SPI_FLAG_TXE)) && (hspi->TxXferCount > 0U) && (txallowed == 1U))
 80056b2:	68fb      	ldr	r3, [r7, #12]
 80056b4:	681b      	ldr	r3, [r3, #0]
 80056b6:	689b      	ldr	r3, [r3, #8]
 80056b8:	2202      	movs	r2, #2
 80056ba:	4013      	ands	r3, r2
 80056bc:	2b02      	cmp	r3, #2
 80056be:	d11c      	bne.n	80056fa <HAL_SPI_TransmitReceive+0x2da>
 80056c0:	68fb      	ldr	r3, [r7, #12]
 80056c2:	8fdb      	ldrh	r3, [r3, #62]	; 0x3e
 80056c4:	b29b      	uxth	r3, r3
 80056c6:	2b00      	cmp	r3, #0
 80056c8:	d017      	beq.n	80056fa <HAL_SPI_TransmitReceive+0x2da>
 80056ca:	6a7b      	ldr	r3, [r7, #36]	; 0x24
 80056cc:	2b01      	cmp	r3, #1
 80056ce:	d114      	bne.n	80056fa <HAL_SPI_TransmitReceive+0x2da>
      {
        *(__IO uint8_t *)&hspi->Instance->DR = (*hspi->pTxBuffPtr);
 80056d0:	68fb      	ldr	r3, [r7, #12]
 80056d2:	6b9a      	ldr	r2, [r3, #56]	; 0x38
 80056d4:	68fb      	ldr	r3, [r7, #12]
 80056d6:	681b      	ldr	r3, [r3, #0]
 80056d8:	330c      	adds	r3, #12
 80056da:	7812      	ldrb	r2, [r2, #0]
 80056dc:	701a      	strb	r2, [r3, #0]
        hspi->pTxBuffPtr++;
 80056de:	68fb      	ldr	r3, [r7, #12]
 80056e0:	6b9b      	ldr	r3, [r3, #56]	; 0x38
 80056e2:	1c5a      	adds	r2, r3, #1
 80056e4:	68fb      	ldr	r3, [r7, #12]
 80056e6:	639a      	str	r2, [r3, #56]	; 0x38
        hspi->TxXferCount--;
 80056e8:	68fb      	ldr	r3, [r7, #12]
 80056ea:	8fdb      	ldrh	r3, [r3, #62]	; 0x3e
 80056ec:	b29b      	uxth	r3, r3
 80056ee:	3b01      	subs	r3, #1
 80056f0:	b29a      	uxth	r2, r3
 80056f2:	68fb      	ldr	r3, [r7, #12]
 80056f4:	87da      	strh	r2, [r3, #62]	; 0x3e
        /* Next Data is a reception (Rx). Tx not allowed */
        txallowed = 0U;
 80056f6:	2300      	movs	r3, #0
 80056f8:	627b      	str	r3, [r7, #36]	; 0x24
        }
#endif /* USE_SPI_CRC */
      }

      /* Wait until RXNE flag is reset */
      if ((__HAL_SPI_GET_FLAG(hspi, SPI_FLAG_RXNE)) && (hspi->RxXferCount > 0U))
 80056fa:	68fb      	ldr	r3, [r7, #12]
 80056fc:	681b      	ldr	r3, [r3, #0]
 80056fe:	689b      	ldr	r3, [r3, #8]
 8005700:	2201      	movs	r2, #1
 8005702:	4013      	ands	r3, r2
 8005704:	2b01      	cmp	r3, #1
 8005706:	d11e      	bne.n	8005746 <HAL_SPI_TransmitReceive+0x326>
 8005708:	68fb      	ldr	r3, [r7, #12]
 800570a:	2246      	movs	r2, #70	; 0x46
 800570c:	5a9b      	ldrh	r3, [r3, r2]
 800570e:	b29b      	uxth	r3, r3
 8005710:	2b00      	cmp	r3, #0
 8005712:	d018      	beq.n	8005746 <HAL_SPI_TransmitReceive+0x326>
      {
        (*(uint8_t *)hspi->pRxBuffPtr) = *(__IO uint8_t *)&hspi->Instance->DR;
 8005714:	68fb      	ldr	r3, [r7, #12]
 8005716:	681b      	ldr	r3, [r3, #0]
 8005718:	330c      	adds	r3, #12
 800571a:	001a      	movs	r2, r3
 800571c:	68fb      	ldr	r3, [r7, #12]
 800571e:	6c1b      	ldr	r3, [r3, #64]	; 0x40
 8005720:	7812      	ldrb	r2, [r2, #0]
 8005722:	b2d2      	uxtb	r2, r2
 8005724:	701a      	strb	r2, [r3, #0]
        hspi->pRxBuffPtr++;
 8005726:	68fb      	ldr	r3, [r7, #12]
 8005728:	6c1b      	ldr	r3, [r3, #64]	; 0x40
 800572a:	1c5a      	adds	r2, r3, #1
 800572c:	68fb      	ldr	r3, [r7, #12]
 800572e:	641a      	str	r2, [r3, #64]	; 0x40
        hspi->RxXferCount--;
 8005730:	68fb      	ldr	r3, [r7, #12]
 8005732:	2246      	movs	r2, #70	; 0x46
 8005734:	5a9b      	ldrh	r3, [r3, r2]
 8005736:	b29b      	uxth	r3, r3
 8005738:	3b01      	subs	r3, #1
 800573a:	b299      	uxth	r1, r3
 800573c:	68fb      	ldr	r3, [r7, #12]
 800573e:	2246      	movs	r2, #70	; 0x46
 8005740:	5299      	strh	r1, [r3, r2]
        /* Next Data is a Transmission (Tx). Tx is allowed */
        txallowed = 1U;
 8005742:	2301      	movs	r3, #1
 8005744:	627b      	str	r3, [r7, #36]	; 0x24
      }
      if ((((HAL_GetTick() - tickstart) >=  Timeout) && ((Timeout != HAL_MAX_DELAY))) || (Timeout == 0U))
 8005746:	f7fc fcb7 	bl	80020b8 <HAL_GetTick>
 800574a:	0002      	movs	r2, r0
 800574c:	69fb      	ldr	r3, [r7, #28]
 800574e:	1ad3      	subs	r3, r2, r3
 8005750:	6b3a      	ldr	r2, [r7, #48]	; 0x30
 8005752:	429a      	cmp	r2, r3
 8005754:	d802      	bhi.n	800575c <HAL_SPI_TransmitReceive+0x33c>
 8005756:	6b3b      	ldr	r3, [r7, #48]	; 0x30
 8005758:	3301      	adds	r3, #1
 800575a:	d102      	bne.n	8005762 <HAL_SPI_TransmitReceive+0x342>
 800575c:	6b3b      	ldr	r3, [r7, #48]	; 0x30
 800575e:	2b00      	cmp	r3, #0
 8005760:	d104      	bne.n	800576c <HAL_SPI_TransmitReceive+0x34c>
      {
        errorcode = HAL_TIMEOUT;
 8005762:	2323      	movs	r3, #35	; 0x23
 8005764:	18fb      	adds	r3, r7, r3
 8005766:	2203      	movs	r2, #3
 8005768:	701a      	strb	r2, [r3, #0]
        goto error;
 800576a:	e01b      	b.n	80057a4 <HAL_SPI_TransmitReceive+0x384>
    while ((hspi->TxXferCount > 0U) || (hspi->RxXferCount > 0U))
 800576c:	68fb      	ldr	r3, [r7, #12]
 800576e:	8fdb      	ldrh	r3, [r3, #62]	; 0x3e
 8005770:	b29b      	uxth	r3, r3
 8005772:	2b00      	cmp	r3, #0
 8005774:	d19d      	bne.n	80056b2 <HAL_SPI_TransmitReceive+0x292>
 8005776:	68fb      	ldr	r3, [r7, #12]
 8005778:	2246      	movs	r2, #70	; 0x46
 800577a:	5a9b      	ldrh	r3, [r3, r2]
 800577c:	b29b      	uxth	r3, r3
 800577e:	2b00      	cmp	r3, #0
 8005780:	d197      	bne.n	80056b2 <HAL_SPI_TransmitReceive+0x292>
    errorcode = HAL_ERROR;
  }
#endif /* USE_SPI_CRC */

  /* Check the end of the transaction */
  if (SPI_EndRxTxTransaction(hspi, Timeout, tickstart) != HAL_OK)
 8005782:	69fa      	ldr	r2, [r7, #28]
 8005784:	6b39      	ldr	r1, [r7, #48]	; 0x30
 8005786:	68fb      	ldr	r3, [r7, #12]
 8005788:	0018      	movs	r0, r3
 800578a:	f000 f99f 	bl	8005acc <SPI_EndRxTxTransaction>
 800578e:	1e03      	subs	r3, r0, #0
 8005790:	d007      	beq.n	80057a2 <HAL_SPI_TransmitReceive+0x382>
  {
    errorcode = HAL_ERROR;
 8005792:	2323      	movs	r3, #35	; 0x23
 8005794:	18fb      	adds	r3, r7, r3
 8005796:	2201      	movs	r2, #1
 8005798:	701a      	strb	r2, [r3, #0]
    hspi->ErrorCode = HAL_SPI_ERROR_FLAG;
 800579a:	68fb      	ldr	r3, [r7, #12]
 800579c:	2220      	movs	r2, #32
 800579e:	661a      	str	r2, [r3, #96]	; 0x60
 80057a0:	e000      	b.n	80057a4 <HAL_SPI_TransmitReceive+0x384>
  }

error :
 80057a2:	46c0      	nop			; (mov r8, r8)
  hspi->State = HAL_SPI_STATE_READY;
 80057a4:	68fb      	ldr	r3, [r7, #12]
 80057a6:	225d      	movs	r2, #93	; 0x5d
 80057a8:	2101      	movs	r1, #1
 80057aa:	5499      	strb	r1, [r3, r2]
  __HAL_UNLOCK(hspi);
 80057ac:	68fb      	ldr	r3, [r7, #12]
 80057ae:	225c      	movs	r2, #92	; 0x5c
 80057b0:	2100      	movs	r1, #0
 80057b2:	5499      	strb	r1, [r3, r2]
  return errorcode;
 80057b4:	2323      	movs	r3, #35	; 0x23
 80057b6:	18fb      	adds	r3, r7, r3
 80057b8:	781b      	ldrb	r3, [r3, #0]
}
 80057ba:	0018      	movs	r0, r3
 80057bc:	46bd      	mov	sp, r7
 80057be:	b00a      	add	sp, #40	; 0x28
 80057c0:	bd80      	pop	{r7, pc}
 80057c2:	46c0      	nop			; (mov r8, r8)
 80057c4:	ffffefff 	.word	0xffffefff

080057c8 <SPI_WaitFlagStateUntilTimeout>:
  * @param  Tickstart tick start value
  * @retval HAL status
  */
static HAL_StatusTypeDef SPI_WaitFlagStateUntilTimeout(SPI_HandleTypeDef *hspi, uint32_t Flag, FlagStatus State,
                                                       uint32_t Timeout, uint32_t Tickstart)
{
 80057c8:	b580      	push	{r7, lr}
 80057ca:	b088      	sub	sp, #32
 80057cc:	af00      	add	r7, sp, #0
 80057ce:	60f8      	str	r0, [r7, #12]
 80057d0:	60b9      	str	r1, [r7, #8]
 80057d2:	603b      	str	r3, [r7, #0]
 80057d4:	1dfb      	adds	r3, r7, #7
 80057d6:	701a      	strb	r2, [r3, #0]
  __IO uint32_t count;
  uint32_t tmp_timeout;
  uint32_t tmp_tickstart;

  /* Adjust Timeout value  in case of end of transfer */
  tmp_timeout   = Timeout - (HAL_GetTick() - Tickstart);
 80057d8:	f7fc fc6e 	bl	80020b8 <HAL_GetTick>
 80057dc:	0002      	movs	r2, r0
 80057de:	6abb      	ldr	r3, [r7, #40]	; 0x28
 80057e0:	1a9b      	subs	r3, r3, r2
 80057e2:	683a      	ldr	r2, [r7, #0]
 80057e4:	18d3      	adds	r3, r2, r3
 80057e6:	61fb      	str	r3, [r7, #28]
  tmp_tickstart = HAL_GetTick();
 80057e8:	f7fc fc66 	bl	80020b8 <HAL_GetTick>
 80057ec:	0003      	movs	r3, r0
 80057ee:	61bb      	str	r3, [r7, #24]

  /* Calculate Timeout based on a software loop to avoid blocking issue if Systick is disabled */
  count = tmp_timeout * ((SystemCoreClock * 32U) >> 20U);
 80057f0:	4b3a      	ldr	r3, [pc, #232]	; (80058dc <SPI_WaitFlagStateUntilTimeout+0x114>)
 80057f2:	681b      	ldr	r3, [r3, #0]
 80057f4:	015b      	lsls	r3, r3, #5
 80057f6:	0d1b      	lsrs	r3, r3, #20
 80057f8:	69fa      	ldr	r2, [r7, #28]
 80057fa:	4353      	muls	r3, r2
 80057fc:	617b      	str	r3, [r7, #20]

  while ((__HAL_SPI_GET_FLAG(hspi, Flag) ? SET : RESET) != State)
 80057fe:	e058      	b.n	80058b2 <SPI_WaitFlagStateUntilTimeout+0xea>
  {
    if (Timeout != HAL_MAX_DELAY)
 8005800:	683b      	ldr	r3, [r7, #0]
 8005802:	3301      	adds	r3, #1
 8005804:	d055      	beq.n	80058b2 <SPI_WaitFlagStateUntilTimeout+0xea>
    {
      if (((HAL_GetTick() - tmp_tickstart) >= tmp_timeout) || (tmp_timeout == 0U))
 8005806:	f7fc fc57 	bl	80020b8 <HAL_GetTick>
 800580a:	0002      	movs	r2, r0
 800580c:	69bb      	ldr	r3, [r7, #24]
 800580e:	1ad3      	subs	r3, r2, r3
 8005810:	69fa      	ldr	r2, [r7, #28]
 8005812:	429a      	cmp	r2, r3
 8005814:	d902      	bls.n	800581c <SPI_WaitFlagStateUntilTimeout+0x54>
 8005816:	69fb      	ldr	r3, [r7, #28]
 8005818:	2b00      	cmp	r3, #0
 800581a:	d142      	bne.n	80058a2 <SPI_WaitFlagStateUntilTimeout+0xda>
        /* Disable the SPI and reset the CRC: the CRC value should be cleared
           on both master and slave sides in order to resynchronize the master
           and slave for their respective CRC calculation */

        /* Disable TXE, RXNE and ERR interrupts for the interrupt process */
        __HAL_SPI_DISABLE_IT(hspi, (SPI_IT_TXE | SPI_IT_RXNE | SPI_IT_ERR));
 800581c:	68fb      	ldr	r3, [r7, #12]
 800581e:	681b      	ldr	r3, [r3, #0]
 8005820:	685a      	ldr	r2, [r3, #4]
 8005822:	68fb      	ldr	r3, [r7, #12]
 8005824:	681b      	ldr	r3, [r3, #0]
 8005826:	21e0      	movs	r1, #224	; 0xe0
 8005828:	438a      	bics	r2, r1
 800582a:	605a      	str	r2, [r3, #4]

        if ((hspi->Init.Mode == SPI_MODE_MASTER) && ((hspi->Init.Direction == SPI_DIRECTION_1LINE)
 800582c:	68fb      	ldr	r3, [r7, #12]
 800582e:	685a      	ldr	r2, [r3, #4]
 8005830:	2382      	movs	r3, #130	; 0x82
 8005832:	005b      	lsls	r3, r3, #1
 8005834:	429a      	cmp	r2, r3
 8005836:	d113      	bne.n	8005860 <SPI_WaitFlagStateUntilTimeout+0x98>
 8005838:	68fb      	ldr	r3, [r7, #12]
 800583a:	689a      	ldr	r2, [r3, #8]
 800583c:	2380      	movs	r3, #128	; 0x80
 800583e:	021b      	lsls	r3, r3, #8
 8005840:	429a      	cmp	r2, r3
 8005842:	d005      	beq.n	8005850 <SPI_WaitFlagStateUntilTimeout+0x88>
                                                     || (hspi->Init.Direction == SPI_DIRECTION_2LINES_RXONLY)))
 8005844:	68fb      	ldr	r3, [r7, #12]
 8005846:	689a      	ldr	r2, [r3, #8]
 8005848:	2380      	movs	r3, #128	; 0x80
 800584a:	00db      	lsls	r3, r3, #3
 800584c:	429a      	cmp	r2, r3
 800584e:	d107      	bne.n	8005860 <SPI_WaitFlagStateUntilTimeout+0x98>
        {
          /* Disable SPI peripheral */
          __HAL_SPI_DISABLE(hspi);
 8005850:	68fb      	ldr	r3, [r7, #12]
 8005852:	681b      	ldr	r3, [r3, #0]
 8005854:	681a      	ldr	r2, [r3, #0]
 8005856:	68fb      	ldr	r3, [r7, #12]
 8005858:	681b      	ldr	r3, [r3, #0]
 800585a:	2140      	movs	r1, #64	; 0x40
 800585c:	438a      	bics	r2, r1
 800585e:	601a      	str	r2, [r3, #0]
        }

        /* Reset CRC Calculation */
        if (hspi->Init.CRCCalculation == SPI_CRCCALCULATION_ENABLE)
 8005860:	68fb      	ldr	r3, [r7, #12]
 8005862:	6a9a      	ldr	r2, [r3, #40]	; 0x28
 8005864:	2380      	movs	r3, #128	; 0x80
 8005866:	019b      	lsls	r3, r3, #6
 8005868:	429a      	cmp	r2, r3
 800586a:	d110      	bne.n	800588e <SPI_WaitFlagStateUntilTimeout+0xc6>
        {
          SPI_RESET_CRC(hspi);
 800586c:	68fb      	ldr	r3, [r7, #12]
 800586e:	681b      	ldr	r3, [r3, #0]
 8005870:	681a      	ldr	r2, [r3, #0]
 8005872:	68fb      	ldr	r3, [r7, #12]
 8005874:	681b      	ldr	r3, [r3, #0]
 8005876:	491a      	ldr	r1, [pc, #104]	; (80058e0 <SPI_WaitFlagStateUntilTimeout+0x118>)
 8005878:	400a      	ands	r2, r1
 800587a:	601a      	str	r2, [r3, #0]
 800587c:	68fb      	ldr	r3, [r7, #12]
 800587e:	681b      	ldr	r3, [r3, #0]
 8005880:	681a      	ldr	r2, [r3, #0]
 8005882:	68fb      	ldr	r3, [r7, #12]
 8005884:	681b      	ldr	r3, [r3, #0]
 8005886:	2180      	movs	r1, #128	; 0x80
 8005888:	0189      	lsls	r1, r1, #6
 800588a:	430a      	orrs	r2, r1
 800588c:	601a      	str	r2, [r3, #0]
        }

        hspi->State = HAL_SPI_STATE_READY;
 800588e:	68fb      	ldr	r3, [r7, #12]
 8005890:	225d      	movs	r2, #93	; 0x5d
 8005892:	2101      	movs	r1, #1
 8005894:	5499      	strb	r1, [r3, r2]

        /* Process Unlocked */
        __HAL_UNLOCK(hspi);
 8005896:	68fb      	ldr	r3, [r7, #12]
 8005898:	225c      	movs	r2, #92	; 0x5c
 800589a:	2100      	movs	r1, #0
 800589c:	5499      	strb	r1, [r3, r2]

        return HAL_TIMEOUT;
 800589e:	2303      	movs	r3, #3
 80058a0:	e017      	b.n	80058d2 <SPI_WaitFlagStateUntilTimeout+0x10a>
      }
      /* If Systick is disabled or not incremented, deactivate timeout to go in disable loop procedure */
      if(count == 0U)
 80058a2:	697b      	ldr	r3, [r7, #20]
 80058a4:	2b00      	cmp	r3, #0
 80058a6:	d101      	bne.n	80058ac <SPI_WaitFlagStateUntilTimeout+0xe4>
      {
        tmp_timeout = 0U;
 80058a8:	2300      	movs	r3, #0
 80058aa:	61fb      	str	r3, [r7, #28]
      }
      count--;
 80058ac:	697b      	ldr	r3, [r7, #20]
 80058ae:	3b01      	subs	r3, #1
 80058b0:	617b      	str	r3, [r7, #20]
  while ((__HAL_SPI_GET_FLAG(hspi, Flag) ? SET : RESET) != State)
 80058b2:	68fb      	ldr	r3, [r7, #12]
 80058b4:	681b      	ldr	r3, [r3, #0]
 80058b6:	689b      	ldr	r3, [r3, #8]
 80058b8:	68ba      	ldr	r2, [r7, #8]
 80058ba:	4013      	ands	r3, r2
 80058bc:	68ba      	ldr	r2, [r7, #8]
 80058be:	1ad3      	subs	r3, r2, r3
 80058c0:	425a      	negs	r2, r3
 80058c2:	4153      	adcs	r3, r2
 80058c4:	b2db      	uxtb	r3, r3
 80058c6:	001a      	movs	r2, r3
 80058c8:	1dfb      	adds	r3, r7, #7
 80058ca:	781b      	ldrb	r3, [r3, #0]
 80058cc:	429a      	cmp	r2, r3
 80058ce:	d197      	bne.n	8005800 <SPI_WaitFlagStateUntilTimeout+0x38>
    }
  }

  return HAL_OK;
 80058d0:	2300      	movs	r3, #0
}
 80058d2:	0018      	movs	r0, r3
 80058d4:	46bd      	mov	sp, r7
 80058d6:	b008      	add	sp, #32
 80058d8:	bd80      	pop	{r7, pc}
 80058da:	46c0      	nop			; (mov r8, r8)
 80058dc:	20000000 	.word	0x20000000
 80058e0:	ffffdfff 	.word	0xffffdfff

080058e4 <SPI_WaitFifoStateUntilTimeout>:
  * @param  Tickstart tick start value
  * @retval HAL status
  */
static HAL_StatusTypeDef SPI_WaitFifoStateUntilTimeout(SPI_HandleTypeDef *hspi, uint32_t Fifo, uint32_t State,
                                                       uint32_t Timeout, uint32_t Tickstart)
{
 80058e4:	b580      	push	{r7, lr}
 80058e6:	b088      	sub	sp, #32
 80058e8:	af00      	add	r7, sp, #0
 80058ea:	60f8      	str	r0, [r7, #12]
 80058ec:	60b9      	str	r1, [r7, #8]
 80058ee:	607a      	str	r2, [r7, #4]
 80058f0:	603b      	str	r3, [r7, #0]
  __IO uint32_t count;
  uint32_t tmp_timeout;
  uint32_t tmp_tickstart;

  /* Adjust Timeout value  in case of end of transfer */
  tmp_timeout = Timeout - (HAL_GetTick() - Tickstart);
 80058f2:	f7fc fbe1 	bl	80020b8 <HAL_GetTick>
 80058f6:	0002      	movs	r2, r0
 80058f8:	6abb      	ldr	r3, [r7, #40]	; 0x28
 80058fa:	1a9b      	subs	r3, r3, r2
 80058fc:	683a      	ldr	r2, [r7, #0]
 80058fe:	18d3      	adds	r3, r2, r3
 8005900:	61fb      	str	r3, [r7, #28]
  tmp_tickstart = HAL_GetTick();
 8005902:	f7fc fbd9 	bl	80020b8 <HAL_GetTick>
 8005906:	0003      	movs	r3, r0
 8005908:	61bb      	str	r3, [r7, #24]

  /* Calculate Timeout based on a software loop to avoid blocking issue if Systick is disabled */
  count = tmp_timeout * ((SystemCoreClock * 35U) >> 20U);
 800590a:	4b3f      	ldr	r3, [pc, #252]	; (8005a08 <SPI_WaitFifoStateUntilTimeout+0x124>)
 800590c:	681a      	ldr	r2, [r3, #0]
 800590e:	0013      	movs	r3, r2
 8005910:	009b      	lsls	r3, r3, #2
 8005912:	189b      	adds	r3, r3, r2
 8005914:	00da      	lsls	r2, r3, #3
 8005916:	1ad3      	subs	r3, r2, r3
 8005918:	0d1b      	lsrs	r3, r3, #20
 800591a:	69fa      	ldr	r2, [r7, #28]
 800591c:	4353      	muls	r3, r2
 800591e:	617b      	str	r3, [r7, #20]

  while ((hspi->Instance->SR & Fifo) != State)
 8005920:	e064      	b.n	80059ec <SPI_WaitFifoStateUntilTimeout+0x108>
  {
    if ((Fifo == SPI_SR_FRLVL) && (State == SPI_FRLVL_EMPTY))
 8005922:	68ba      	ldr	r2, [r7, #8]
 8005924:	23c0      	movs	r3, #192	; 0xc0
 8005926:	00db      	lsls	r3, r3, #3
 8005928:	429a      	cmp	r2, r3
 800592a:	d106      	bne.n	800593a <SPI_WaitFifoStateUntilTimeout+0x56>
 800592c:	687b      	ldr	r3, [r7, #4]
 800592e:	2b00      	cmp	r3, #0
 8005930:	d103      	bne.n	800593a <SPI_WaitFifoStateUntilTimeout+0x56>
    {
      /* Read 8bit CRC to flush Data Register */
      READ_REG(*((__IO uint8_t *)&hspi->Instance->DR));
 8005932:	68fb      	ldr	r3, [r7, #12]
 8005934:	681b      	ldr	r3, [r3, #0]
 8005936:	330c      	adds	r3, #12
 8005938:	781b      	ldrb	r3, [r3, #0]
    }

    if (Timeout != HAL_MAX_DELAY)
 800593a:	683b      	ldr	r3, [r7, #0]
 800593c:	3301      	adds	r3, #1
 800593e:	d055      	beq.n	80059ec <SPI_WaitFifoStateUntilTimeout+0x108>
    {
      if (((HAL_GetTick() - tmp_tickstart) >= tmp_timeout) || (tmp_timeout == 0U))
 8005940:	f7fc fbba 	bl	80020b8 <HAL_GetTick>
 8005944:	0002      	movs	r2, r0
 8005946:	69bb      	ldr	r3, [r7, #24]
 8005948:	1ad3      	subs	r3, r2, r3
 800594a:	69fa      	ldr	r2, [r7, #28]
 800594c:	429a      	cmp	r2, r3
 800594e:	d902      	bls.n	8005956 <SPI_WaitFifoStateUntilTimeout+0x72>
 8005950:	69fb      	ldr	r3, [r7, #28]
 8005952:	2b00      	cmp	r3, #0
 8005954:	d142      	bne.n	80059dc <SPI_WaitFifoStateUntilTimeout+0xf8>
        /* Disable the SPI and reset the CRC: the CRC value should be cleared
           on both master and slave sides in order to resynchronize the master
           and slave for their respective CRC calculation */

        /* Disable TXE, RXNE and ERR interrupts for the interrupt process */
        __HAL_SPI_DISABLE_IT(hspi, (SPI_IT_TXE | SPI_IT_RXNE | SPI_IT_ERR));
 8005956:	68fb      	ldr	r3, [r7, #12]
 8005958:	681b      	ldr	r3, [r3, #0]
 800595a:	685a      	ldr	r2, [r3, #4]
 800595c:	68fb      	ldr	r3, [r7, #12]
 800595e:	681b      	ldr	r3, [r3, #0]
 8005960:	21e0      	movs	r1, #224	; 0xe0
 8005962:	438a      	bics	r2, r1
 8005964:	605a      	str	r2, [r3, #4]

        if ((hspi->Init.Mode == SPI_MODE_MASTER) && ((hspi->Init.Direction == SPI_DIRECTION_1LINE)
 8005966:	68fb      	ldr	r3, [r7, #12]
 8005968:	685a      	ldr	r2, [r3, #4]
 800596a:	2382      	movs	r3, #130	; 0x82
 800596c:	005b      	lsls	r3, r3, #1
 800596e:	429a      	cmp	r2, r3
 8005970:	d113      	bne.n	800599a <SPI_WaitFifoStateUntilTimeout+0xb6>
 8005972:	68fb      	ldr	r3, [r7, #12]
 8005974:	689a      	ldr	r2, [r3, #8]
 8005976:	2380      	movs	r3, #128	; 0x80
 8005978:	021b      	lsls	r3, r3, #8
 800597a:	429a      	cmp	r2, r3
 800597c:	d005      	beq.n	800598a <SPI_WaitFifoStateUntilTimeout+0xa6>
                                                     || (hspi->Init.Direction == SPI_DIRECTION_2LINES_RXONLY)))
 800597e:	68fb      	ldr	r3, [r7, #12]
 8005980:	689a      	ldr	r2, [r3, #8]
 8005982:	2380      	movs	r3, #128	; 0x80
 8005984:	00db      	lsls	r3, r3, #3
 8005986:	429a      	cmp	r2, r3
 8005988:	d107      	bne.n	800599a <SPI_WaitFifoStateUntilTimeout+0xb6>
        {
          /* Disable SPI peripheral */
          __HAL_SPI_DISABLE(hspi);
 800598a:	68fb      	ldr	r3, [r7, #12]
 800598c:	681b      	ldr	r3, [r3, #0]
 800598e:	681a      	ldr	r2, [r3, #0]
 8005990:	68fb      	ldr	r3, [r7, #12]
 8005992:	681b      	ldr	r3, [r3, #0]
 8005994:	2140      	movs	r1, #64	; 0x40
 8005996:	438a      	bics	r2, r1
 8005998:	601a      	str	r2, [r3, #0]
        }

        /* Reset CRC Calculation */
        if (hspi->Init.CRCCalculation == SPI_CRCCALCULATION_ENABLE)
 800599a:	68fb      	ldr	r3, [r7, #12]
 800599c:	6a9a      	ldr	r2, [r3, #40]	; 0x28
 800599e:	2380      	movs	r3, #128	; 0x80
 80059a0:	019b      	lsls	r3, r3, #6
 80059a2:	429a      	cmp	r2, r3
 80059a4:	d110      	bne.n	80059c8 <SPI_WaitFifoStateUntilTimeout+0xe4>
        {
          SPI_RESET_CRC(hspi);
 80059a6:	68fb      	ldr	r3, [r7, #12]
 80059a8:	681b      	ldr	r3, [r3, #0]
 80059aa:	681a      	ldr	r2, [r3, #0]
 80059ac:	68fb      	ldr	r3, [r7, #12]
 80059ae:	681b      	ldr	r3, [r3, #0]
 80059b0:	4916      	ldr	r1, [pc, #88]	; (8005a0c <SPI_WaitFifoStateUntilTimeout+0x128>)
 80059b2:	400a      	ands	r2, r1
 80059b4:	601a      	str	r2, [r3, #0]
 80059b6:	68fb      	ldr	r3, [r7, #12]
 80059b8:	681b      	ldr	r3, [r3, #0]
 80059ba:	681a      	ldr	r2, [r3, #0]
 80059bc:	68fb      	ldr	r3, [r7, #12]
 80059be:	681b      	ldr	r3, [r3, #0]
 80059c0:	2180      	movs	r1, #128	; 0x80
 80059c2:	0189      	lsls	r1, r1, #6
 80059c4:	430a      	orrs	r2, r1
 80059c6:	601a      	str	r2, [r3, #0]
        }

        hspi->State = HAL_SPI_STATE_READY;
 80059c8:	68fb      	ldr	r3, [r7, #12]
 80059ca:	225d      	movs	r2, #93	; 0x5d
 80059cc:	2101      	movs	r1, #1
 80059ce:	5499      	strb	r1, [r3, r2]

        /* Process Unlocked */
        __HAL_UNLOCK(hspi);
 80059d0:	68fb      	ldr	r3, [r7, #12]
 80059d2:	225c      	movs	r2, #92	; 0x5c
 80059d4:	2100      	movs	r1, #0
 80059d6:	5499      	strb	r1, [r3, r2]

        return HAL_TIMEOUT;
 80059d8:	2303      	movs	r3, #3
 80059da:	e010      	b.n	80059fe <SPI_WaitFifoStateUntilTimeout+0x11a>
      }
      /* If Systick is disabled or not incremented, deactivate timeout to go in disable loop procedure */
      if(count == 0U)
 80059dc:	697b      	ldr	r3, [r7, #20]
 80059de:	2b00      	cmp	r3, #0
 80059e0:	d101      	bne.n	80059e6 <SPI_WaitFifoStateUntilTimeout+0x102>
      {
        tmp_timeout = 0U;
 80059e2:	2300      	movs	r3, #0
 80059e4:	61fb      	str	r3, [r7, #28]
      }      
      count--;
 80059e6:	697b      	ldr	r3, [r7, #20]
 80059e8:	3b01      	subs	r3, #1
 80059ea:	617b      	str	r3, [r7, #20]
  while ((hspi->Instance->SR & Fifo) != State)
 80059ec:	68fb      	ldr	r3, [r7, #12]
 80059ee:	681b      	ldr	r3, [r3, #0]
 80059f0:	689b      	ldr	r3, [r3, #8]
 80059f2:	68ba      	ldr	r2, [r7, #8]
 80059f4:	4013      	ands	r3, r2
 80059f6:	687a      	ldr	r2, [r7, #4]
 80059f8:	429a      	cmp	r2, r3
 80059fa:	d192      	bne.n	8005922 <SPI_WaitFifoStateUntilTimeout+0x3e>
    }
  }

  return HAL_OK;
 80059fc:	2300      	movs	r3, #0
}
 80059fe:	0018      	movs	r0, r3
 8005a00:	46bd      	mov	sp, r7
 8005a02:	b008      	add	sp, #32
 8005a04:	bd80      	pop	{r7, pc}
 8005a06:	46c0      	nop			; (mov r8, r8)
 8005a08:	20000000 	.word	0x20000000
 8005a0c:	ffffdfff 	.word	0xffffdfff

08005a10 <SPI_EndRxTransaction>:
  * @param  Timeout Timeout duration
  * @param  Tickstart tick start value
  * @retval HAL status
  */
static HAL_StatusTypeDef SPI_EndRxTransaction(SPI_HandleTypeDef *hspi,  uint32_t Timeout, uint32_t Tickstart)
{
 8005a10:	b580      	push	{r7, lr}
 8005a12:	b086      	sub	sp, #24
 8005a14:	af02      	add	r7, sp, #8
 8005a16:	60f8      	str	r0, [r7, #12]
 8005a18:	60b9      	str	r1, [r7, #8]
 8005a1a:	607a      	str	r2, [r7, #4]
  if ((hspi->Init.Mode == SPI_MODE_MASTER) && ((hspi->Init.Direction == SPI_DIRECTION_1LINE)
 8005a1c:	68fb      	ldr	r3, [r7, #12]
 8005a1e:	685a      	ldr	r2, [r3, #4]
 8005a20:	2382      	movs	r3, #130	; 0x82
 8005a22:	005b      	lsls	r3, r3, #1
 8005a24:	429a      	cmp	r2, r3
 8005a26:	d113      	bne.n	8005a50 <SPI_EndRxTransaction+0x40>
 8005a28:	68fb      	ldr	r3, [r7, #12]
 8005a2a:	689a      	ldr	r2, [r3, #8]
 8005a2c:	2380      	movs	r3, #128	; 0x80
 8005a2e:	021b      	lsls	r3, r3, #8
 8005a30:	429a      	cmp	r2, r3
 8005a32:	d005      	beq.n	8005a40 <SPI_EndRxTransaction+0x30>
                                               || (hspi->Init.Direction == SPI_DIRECTION_2LINES_RXONLY)))
 8005a34:	68fb      	ldr	r3, [r7, #12]
 8005a36:	689a      	ldr	r2, [r3, #8]
 8005a38:	2380      	movs	r3, #128	; 0x80
 8005a3a:	00db      	lsls	r3, r3, #3
 8005a3c:	429a      	cmp	r2, r3
 8005a3e:	d107      	bne.n	8005a50 <SPI_EndRxTransaction+0x40>
  {
    /* Disable SPI peripheral */
    __HAL_SPI_DISABLE(hspi);
 8005a40:	68fb      	ldr	r3, [r7, #12]
 8005a42:	681b      	ldr	r3, [r3, #0]
 8005a44:	681a      	ldr	r2, [r3, #0]
 8005a46:	68fb      	ldr	r3, [r7, #12]
 8005a48:	681b      	ldr	r3, [r3, #0]
 8005a4a:	2140      	movs	r1, #64	; 0x40
 8005a4c:	438a      	bics	r2, r1
 8005a4e:	601a      	str	r2, [r3, #0]
  }

  /* Control the BSY flag */
  if (SPI_WaitFlagStateUntilTimeout(hspi, SPI_FLAG_BSY, RESET, Timeout, Tickstart) != HAL_OK)
 8005a50:	68ba      	ldr	r2, [r7, #8]
 8005a52:	68f8      	ldr	r0, [r7, #12]
 8005a54:	687b      	ldr	r3, [r7, #4]
 8005a56:	9300      	str	r3, [sp, #0]
 8005a58:	0013      	movs	r3, r2
 8005a5a:	2200      	movs	r2, #0
 8005a5c:	2180      	movs	r1, #128	; 0x80
 8005a5e:	f7ff feb3 	bl	80057c8 <SPI_WaitFlagStateUntilTimeout>
 8005a62:	1e03      	subs	r3, r0, #0
 8005a64:	d007      	beq.n	8005a76 <SPI_EndRxTransaction+0x66>
  {
    SET_BIT(hspi->ErrorCode, HAL_SPI_ERROR_FLAG);
 8005a66:	68fb      	ldr	r3, [r7, #12]
 8005a68:	6e1b      	ldr	r3, [r3, #96]	; 0x60
 8005a6a:	2220      	movs	r2, #32
 8005a6c:	431a      	orrs	r2, r3
 8005a6e:	68fb      	ldr	r3, [r7, #12]
 8005a70:	661a      	str	r2, [r3, #96]	; 0x60
    return HAL_TIMEOUT;
 8005a72:	2303      	movs	r3, #3
 8005a74:	e026      	b.n	8005ac4 <SPI_EndRxTransaction+0xb4>
  }

  if ((hspi->Init.Mode == SPI_MODE_MASTER) && ((hspi->Init.Direction == SPI_DIRECTION_1LINE)
 8005a76:	68fb      	ldr	r3, [r7, #12]
 8005a78:	685a      	ldr	r2, [r3, #4]
 8005a7a:	2382      	movs	r3, #130	; 0x82
 8005a7c:	005b      	lsls	r3, r3, #1
 8005a7e:	429a      	cmp	r2, r3
 8005a80:	d11f      	bne.n	8005ac2 <SPI_EndRxTransaction+0xb2>
 8005a82:	68fb      	ldr	r3, [r7, #12]
 8005a84:	689a      	ldr	r2, [r3, #8]
 8005a86:	2380      	movs	r3, #128	; 0x80
 8005a88:	021b      	lsls	r3, r3, #8
 8005a8a:	429a      	cmp	r2, r3
 8005a8c:	d005      	beq.n	8005a9a <SPI_EndRxTransaction+0x8a>
                                               || (hspi->Init.Direction == SPI_DIRECTION_2LINES_RXONLY)))
 8005a8e:	68fb      	ldr	r3, [r7, #12]
 8005a90:	689a      	ldr	r2, [r3, #8]
 8005a92:	2380      	movs	r3, #128	; 0x80
 8005a94:	00db      	lsls	r3, r3, #3
 8005a96:	429a      	cmp	r2, r3
 8005a98:	d113      	bne.n	8005ac2 <SPI_EndRxTransaction+0xb2>
  {
    /* Empty the FRLVL fifo */
    if (SPI_WaitFifoStateUntilTimeout(hspi, SPI_FLAG_FRLVL, SPI_FRLVL_EMPTY, Timeout, Tickstart) != HAL_OK)
 8005a9a:	68ba      	ldr	r2, [r7, #8]
 8005a9c:	23c0      	movs	r3, #192	; 0xc0
 8005a9e:	00d9      	lsls	r1, r3, #3
 8005aa0:	68f8      	ldr	r0, [r7, #12]
 8005aa2:	687b      	ldr	r3, [r7, #4]
 8005aa4:	9300      	str	r3, [sp, #0]
 8005aa6:	0013      	movs	r3, r2
 8005aa8:	2200      	movs	r2, #0
 8005aaa:	f7ff ff1b 	bl	80058e4 <SPI_WaitFifoStateUntilTimeout>
 8005aae:	1e03      	subs	r3, r0, #0
 8005ab0:	d007      	beq.n	8005ac2 <SPI_EndRxTransaction+0xb2>
    {
      SET_BIT(hspi->ErrorCode, HAL_SPI_ERROR_FLAG);
 8005ab2:	68fb      	ldr	r3, [r7, #12]
 8005ab4:	6e1b      	ldr	r3, [r3, #96]	; 0x60
 8005ab6:	2220      	movs	r2, #32
 8005ab8:	431a      	orrs	r2, r3
 8005aba:	68fb      	ldr	r3, [r7, #12]
 8005abc:	661a      	str	r2, [r3, #96]	; 0x60
      return HAL_TIMEOUT;
 8005abe:	2303      	movs	r3, #3
 8005ac0:	e000      	b.n	8005ac4 <SPI_EndRxTransaction+0xb4>
    }
  }
  return HAL_OK;
 8005ac2:	2300      	movs	r3, #0
}
 8005ac4:	0018      	movs	r0, r3
 8005ac6:	46bd      	mov	sp, r7
 8005ac8:	b004      	add	sp, #16
 8005aca:	bd80      	pop	{r7, pc}

08005acc <SPI_EndRxTxTransaction>:
  * @param  Timeout Timeout duration
  * @param  Tickstart tick start value
  * @retval HAL status
  */
static HAL_StatusTypeDef SPI_EndRxTxTransaction(SPI_HandleTypeDef *hspi, uint32_t Timeout, uint32_t Tickstart)
{
 8005acc:	b580      	push	{r7, lr}
 8005ace:	b086      	sub	sp, #24
 8005ad0:	af02      	add	r7, sp, #8
 8005ad2:	60f8      	str	r0, [r7, #12]
 8005ad4:	60b9      	str	r1, [r7, #8]
 8005ad6:	607a      	str	r2, [r7, #4]
  /* Control if the TX fifo is empty */
  if (SPI_WaitFifoStateUntilTimeout(hspi, SPI_FLAG_FTLVL, SPI_FTLVL_EMPTY, Timeout, Tickstart) != HAL_OK)
 8005ad8:	68ba      	ldr	r2, [r7, #8]
 8005ada:	23c0      	movs	r3, #192	; 0xc0
 8005adc:	0159      	lsls	r1, r3, #5
 8005ade:	68f8      	ldr	r0, [r7, #12]
 8005ae0:	687b      	ldr	r3, [r7, #4]
 8005ae2:	9300      	str	r3, [sp, #0]
 8005ae4:	0013      	movs	r3, r2
 8005ae6:	2200      	movs	r2, #0
 8005ae8:	f7ff fefc 	bl	80058e4 <SPI_WaitFifoStateUntilTimeout>
 8005aec:	1e03      	subs	r3, r0, #0
 8005aee:	d007      	beq.n	8005b00 <SPI_EndRxTxTransaction+0x34>
  {
    SET_BIT(hspi->ErrorCode, HAL_SPI_ERROR_FLAG);
 8005af0:	68fb      	ldr	r3, [r7, #12]
 8005af2:	6e1b      	ldr	r3, [r3, #96]	; 0x60
 8005af4:	2220      	movs	r2, #32
 8005af6:	431a      	orrs	r2, r3
 8005af8:	68fb      	ldr	r3, [r7, #12]
 8005afa:	661a      	str	r2, [r3, #96]	; 0x60
    return HAL_TIMEOUT;
 8005afc:	2303      	movs	r3, #3
 8005afe:	e027      	b.n	8005b50 <SPI_EndRxTxTransaction+0x84>
  }

  /* Control the BSY flag */
  if (SPI_WaitFlagStateUntilTimeout(hspi, SPI_FLAG_BSY, RESET, Timeout, Tickstart) != HAL_OK)
 8005b00:	68ba      	ldr	r2, [r7, #8]
 8005b02:	68f8      	ldr	r0, [r7, #12]
 8005b04:	687b      	ldr	r3, [r7, #4]
 8005b06:	9300      	str	r3, [sp, #0]
 8005b08:	0013      	movs	r3, r2
 8005b0a:	2200      	movs	r2, #0
 8005b0c:	2180      	movs	r1, #128	; 0x80
 8005b0e:	f7ff fe5b 	bl	80057c8 <SPI_WaitFlagStateUntilTimeout>
 8005b12:	1e03      	subs	r3, r0, #0
 8005b14:	d007      	beq.n	8005b26 <SPI_EndRxTxTransaction+0x5a>
  {
    SET_BIT(hspi->ErrorCode, HAL_SPI_ERROR_FLAG);
 8005b16:	68fb      	ldr	r3, [r7, #12]
 8005b18:	6e1b      	ldr	r3, [r3, #96]	; 0x60
 8005b1a:	2220      	movs	r2, #32
 8005b1c:	431a      	orrs	r2, r3
 8005b1e:	68fb      	ldr	r3, [r7, #12]
 8005b20:	661a      	str	r2, [r3, #96]	; 0x60
    return HAL_TIMEOUT;
 8005b22:	2303      	movs	r3, #3
 8005b24:	e014      	b.n	8005b50 <SPI_EndRxTxTransaction+0x84>
  }

  /* Control if the RX fifo is empty */
  if (SPI_WaitFifoStateUntilTimeout(hspi, SPI_FLAG_FRLVL, SPI_FRLVL_EMPTY, Timeout, Tickstart) != HAL_OK)
 8005b26:	68ba      	ldr	r2, [r7, #8]
 8005b28:	23c0      	movs	r3, #192	; 0xc0
 8005b2a:	00d9      	lsls	r1, r3, #3
 8005b2c:	68f8      	ldr	r0, [r7, #12]
 8005b2e:	687b      	ldr	r3, [r7, #4]
 8005b30:	9300      	str	r3, [sp, #0]
 8005b32:	0013      	movs	r3, r2
 8005b34:	2200      	movs	r2, #0
 8005b36:	f7ff fed5 	bl	80058e4 <SPI_WaitFifoStateUntilTimeout>
 8005b3a:	1e03      	subs	r3, r0, #0
 8005b3c:	d007      	beq.n	8005b4e <SPI_EndRxTxTransaction+0x82>
  {
    SET_BIT(hspi->ErrorCode, HAL_SPI_ERROR_FLAG);
 8005b3e:	68fb      	ldr	r3, [r7, #12]
 8005b40:	6e1b      	ldr	r3, [r3, #96]	; 0x60
 8005b42:	2220      	movs	r2, #32
 8005b44:	431a      	orrs	r2, r3
 8005b46:	68fb      	ldr	r3, [r7, #12]
 8005b48:	661a      	str	r2, [r3, #96]	; 0x60
    return HAL_TIMEOUT;
 8005b4a:	2303      	movs	r3, #3
 8005b4c:	e000      	b.n	8005b50 <SPI_EndRxTxTransaction+0x84>
  }

  return HAL_OK;
 8005b4e:	2300      	movs	r3, #0
}
 8005b50:	0018      	movs	r0, r3
 8005b52:	46bd      	mov	sp, r7
 8005b54:	b004      	add	sp, #16
 8005b56:	bd80      	pop	{r7, pc}

08005b58 <HAL_TIM_Base_Init>:
  *         Ex: call @ref HAL_TIM_Base_DeInit() before HAL_TIM_Base_Init()
  * @param  htim TIM Base handle
  * @retval HAL status
  */
HAL_StatusTypeDef HAL_TIM_Base_Init(TIM_HandleTypeDef *htim)
{
 8005b58:	b580      	push	{r7, lr}
 8005b5a:	b082      	sub	sp, #8
 8005b5c:	af00      	add	r7, sp, #0
 8005b5e:	6078      	str	r0, [r7, #4]
  /* Check the TIM handle allocation */
  if (htim == NULL)
 8005b60:	687b      	ldr	r3, [r7, #4]
 8005b62:	2b00      	cmp	r3, #0
 8005b64:	d101      	bne.n	8005b6a <HAL_TIM_Base_Init+0x12>
  {
    return HAL_ERROR;
 8005b66:	2301      	movs	r3, #1
 8005b68:	e04a      	b.n	8005c00 <HAL_TIM_Base_Init+0xa8>
  assert_param(IS_TIM_INSTANCE(htim->Instance));
  assert_param(IS_TIM_COUNTER_MODE(htim->Init.CounterMode));
  assert_param(IS_TIM_CLOCKDIVISION_DIV(htim->Init.ClockDivision));
  assert_param(IS_TIM_AUTORELOAD_PRELOAD(htim->Init.AutoReloadPreload));

  if (htim->State == HAL_TIM_STATE_RESET)
 8005b6a:	687b      	ldr	r3, [r7, #4]
 8005b6c:	223d      	movs	r2, #61	; 0x3d
 8005b6e:	5c9b      	ldrb	r3, [r3, r2]
 8005b70:	b2db      	uxtb	r3, r3
 8005b72:	2b00      	cmp	r3, #0
 8005b74:	d107      	bne.n	8005b86 <HAL_TIM_Base_Init+0x2e>
  {
    /* Allocate lock resource and initialize it */
    htim->Lock = HAL_UNLOCKED;
 8005b76:	687b      	ldr	r3, [r7, #4]
 8005b78:	223c      	movs	r2, #60	; 0x3c
 8005b7a:	2100      	movs	r1, #0
 8005b7c:	5499      	strb	r1, [r3, r2]
    }
    /* Init the low level hardware : GPIO, CLOCK, NVIC */
    htim->Base_MspInitCallback(htim);
#else
    /* Init the low level hardware : GPIO, CLOCK, NVIC */
    HAL_TIM_Base_MspInit(htim);
 8005b7e:	687b      	ldr	r3, [r7, #4]
 8005b80:	0018      	movs	r0, r3
 8005b82:	f7fc f889 	bl	8001c98 <HAL_TIM_Base_MspInit>
#endif /* USE_HAL_TIM_REGISTER_CALLBACKS */
  }

  /* Set the TIM state */
  htim->State = HAL_TIM_STATE_BUSY;
 8005b86:	687b      	ldr	r3, [r7, #4]
 8005b88:	223d      	movs	r2, #61	; 0x3d
 8005b8a:	2102      	movs	r1, #2
 8005b8c:	5499      	strb	r1, [r3, r2]

  /* Set the Time Base configuration */
  TIM_Base_SetConfig(htim->Instance, &htim->Init);
 8005b8e:	687b      	ldr	r3, [r7, #4]
 8005b90:	681a      	ldr	r2, [r3, #0]
 8005b92:	687b      	ldr	r3, [r7, #4]
 8005b94:	3304      	adds	r3, #4
 8005b96:	0019      	movs	r1, r3
 8005b98:	0010      	movs	r0, r2
 8005b9a:	f000 fc1b 	bl	80063d4 <TIM_Base_SetConfig>

  /* Initialize the DMA burst operation state */
  htim->DMABurstState = HAL_DMA_BURST_STATE_READY;
 8005b9e:	687b      	ldr	r3, [r7, #4]
 8005ba0:	2248      	movs	r2, #72	; 0x48
 8005ba2:	2101      	movs	r1, #1
 8005ba4:	5499      	strb	r1, [r3, r2]

  /* Initialize the TIM channels state */
  TIM_CHANNEL_STATE_SET_ALL(htim, HAL_TIM_CHANNEL_STATE_READY);
 8005ba6:	687b      	ldr	r3, [r7, #4]
 8005ba8:	223e      	movs	r2, #62	; 0x3e
 8005baa:	2101      	movs	r1, #1
 8005bac:	5499      	strb	r1, [r3, r2]
 8005bae:	687b      	ldr	r3, [r7, #4]
 8005bb0:	223f      	movs	r2, #63	; 0x3f
 8005bb2:	2101      	movs	r1, #1
 8005bb4:	5499      	strb	r1, [r3, r2]
 8005bb6:	687b      	ldr	r3, [r7, #4]
 8005bb8:	2240      	movs	r2, #64	; 0x40
 8005bba:	2101      	movs	r1, #1
 8005bbc:	5499      	strb	r1, [r3, r2]
 8005bbe:	687b      	ldr	r3, [r7, #4]
 8005bc0:	2241      	movs	r2, #65	; 0x41
 8005bc2:	2101      	movs	r1, #1
 8005bc4:	5499      	strb	r1, [r3, r2]
 8005bc6:	687b      	ldr	r3, [r7, #4]
 8005bc8:	2242      	movs	r2, #66	; 0x42
 8005bca:	2101      	movs	r1, #1
 8005bcc:	5499      	strb	r1, [r3, r2]
 8005bce:	687b      	ldr	r3, [r7, #4]
 8005bd0:	2243      	movs	r2, #67	; 0x43
 8005bd2:	2101      	movs	r1, #1
 8005bd4:	5499      	strb	r1, [r3, r2]
  TIM_CHANNEL_N_STATE_SET_ALL(htim, HAL_TIM_CHANNEL_STATE_READY);
 8005bd6:	687b      	ldr	r3, [r7, #4]
 8005bd8:	2244      	movs	r2, #68	; 0x44
 8005bda:	2101      	movs	r1, #1
 8005bdc:	5499      	strb	r1, [r3, r2]
 8005bde:	687b      	ldr	r3, [r7, #4]
 8005be0:	2245      	movs	r2, #69	; 0x45
 8005be2:	2101      	movs	r1, #1
 8005be4:	5499      	strb	r1, [r3, r2]
 8005be6:	687b      	ldr	r3, [r7, #4]
 8005be8:	2246      	movs	r2, #70	; 0x46
 8005bea:	2101      	movs	r1, #1
 8005bec:	5499      	strb	r1, [r3, r2]
 8005bee:	687b      	ldr	r3, [r7, #4]
 8005bf0:	2247      	movs	r2, #71	; 0x47
 8005bf2:	2101      	movs	r1, #1
 8005bf4:	5499      	strb	r1, [r3, r2]

  /* Initialize the TIM state*/
  htim->State = HAL_TIM_STATE_READY;
 8005bf6:	687b      	ldr	r3, [r7, #4]
 8005bf8:	223d      	movs	r2, #61	; 0x3d
 8005bfa:	2101      	movs	r1, #1
 8005bfc:	5499      	strb	r1, [r3, r2]

  return HAL_OK;
 8005bfe:	2300      	movs	r3, #0
}
 8005c00:	0018      	movs	r0, r3
 8005c02:	46bd      	mov	sp, r7
 8005c04:	b002      	add	sp, #8
 8005c06:	bd80      	pop	{r7, pc}

08005c08 <HAL_TIM_Base_Start_IT>:
  * @brief  Starts the TIM Base generation in interrupt mode.
  * @param  htim TIM Base handle
  * @retval HAL status
  */
HAL_StatusTypeDef HAL_TIM_Base_Start_IT(TIM_HandleTypeDef *htim)
{
 8005c08:	b580      	push	{r7, lr}
 8005c0a:	b084      	sub	sp, #16
 8005c0c:	af00      	add	r7, sp, #0
 8005c0e:	6078      	str	r0, [r7, #4]

  /* Check the parameters */
  assert_param(IS_TIM_INSTANCE(htim->Instance));

  /* Check the TIM state */
  if (htim->State != HAL_TIM_STATE_READY)
 8005c10:	687b      	ldr	r3, [r7, #4]
 8005c12:	223d      	movs	r2, #61	; 0x3d
 8005c14:	5c9b      	ldrb	r3, [r3, r2]
 8005c16:	b2db      	uxtb	r3, r3
 8005c18:	2b01      	cmp	r3, #1
 8005c1a:	d001      	beq.n	8005c20 <HAL_TIM_Base_Start_IT+0x18>
  {
    return HAL_ERROR;
 8005c1c:	2301      	movs	r3, #1
 8005c1e:	e042      	b.n	8005ca6 <HAL_TIM_Base_Start_IT+0x9e>
  }

  /* Set the TIM state */
  htim->State = HAL_TIM_STATE_BUSY;
 8005c20:	687b      	ldr	r3, [r7, #4]
 8005c22:	223d      	movs	r2, #61	; 0x3d
 8005c24:	2102      	movs	r1, #2
 8005c26:	5499      	strb	r1, [r3, r2]

  /* Enable the TIM Update interrupt */
  __HAL_TIM_ENABLE_IT(htim, TIM_IT_UPDATE);
 8005c28:	687b      	ldr	r3, [r7, #4]
 8005c2a:	681b      	ldr	r3, [r3, #0]
 8005c2c:	68da      	ldr	r2, [r3, #12]
 8005c2e:	687b      	ldr	r3, [r7, #4]
 8005c30:	681b      	ldr	r3, [r3, #0]
 8005c32:	2101      	movs	r1, #1
 8005c34:	430a      	orrs	r2, r1
 8005c36:	60da      	str	r2, [r3, #12]

  /* Enable the Peripheral, except in trigger mode where enable is automatically done with trigger */
  if (IS_TIM_SLAVE_INSTANCE(htim->Instance))
 8005c38:	687b      	ldr	r3, [r7, #4]
 8005c3a:	681b      	ldr	r3, [r3, #0]
 8005c3c:	4a1c      	ldr	r2, [pc, #112]	; (8005cb0 <HAL_TIM_Base_Start_IT+0xa8>)
 8005c3e:	4293      	cmp	r3, r2
 8005c40:	d00f      	beq.n	8005c62 <HAL_TIM_Base_Start_IT+0x5a>
 8005c42:	687b      	ldr	r3, [r7, #4]
 8005c44:	681a      	ldr	r2, [r3, #0]
 8005c46:	2380      	movs	r3, #128	; 0x80
 8005c48:	05db      	lsls	r3, r3, #23
 8005c4a:	429a      	cmp	r2, r3
 8005c4c:	d009      	beq.n	8005c62 <HAL_TIM_Base_Start_IT+0x5a>
 8005c4e:	687b      	ldr	r3, [r7, #4]
 8005c50:	681b      	ldr	r3, [r3, #0]
 8005c52:	4a18      	ldr	r2, [pc, #96]	; (8005cb4 <HAL_TIM_Base_Start_IT+0xac>)
 8005c54:	4293      	cmp	r3, r2
 8005c56:	d004      	beq.n	8005c62 <HAL_TIM_Base_Start_IT+0x5a>
 8005c58:	687b      	ldr	r3, [r7, #4]
 8005c5a:	681b      	ldr	r3, [r3, #0]
 8005c5c:	4a16      	ldr	r2, [pc, #88]	; (8005cb8 <HAL_TIM_Base_Start_IT+0xb0>)
 8005c5e:	4293      	cmp	r3, r2
 8005c60:	d116      	bne.n	8005c90 <HAL_TIM_Base_Start_IT+0x88>
  {
    tmpsmcr = htim->Instance->SMCR & TIM_SMCR_SMS;
 8005c62:	687b      	ldr	r3, [r7, #4]
 8005c64:	681b      	ldr	r3, [r3, #0]
 8005c66:	689b      	ldr	r3, [r3, #8]
 8005c68:	4a14      	ldr	r2, [pc, #80]	; (8005cbc <HAL_TIM_Base_Start_IT+0xb4>)
 8005c6a:	4013      	ands	r3, r2
 8005c6c:	60fb      	str	r3, [r7, #12]
    if (!IS_TIM_SLAVEMODE_TRIGGER_ENABLED(tmpsmcr))
 8005c6e:	68fb      	ldr	r3, [r7, #12]
 8005c70:	2b06      	cmp	r3, #6
 8005c72:	d016      	beq.n	8005ca2 <HAL_TIM_Base_Start_IT+0x9a>
 8005c74:	68fa      	ldr	r2, [r7, #12]
 8005c76:	2380      	movs	r3, #128	; 0x80
 8005c78:	025b      	lsls	r3, r3, #9
 8005c7a:	429a      	cmp	r2, r3
 8005c7c:	d011      	beq.n	8005ca2 <HAL_TIM_Base_Start_IT+0x9a>
    {
      __HAL_TIM_ENABLE(htim);
 8005c7e:	687b      	ldr	r3, [r7, #4]
 8005c80:	681b      	ldr	r3, [r3, #0]
 8005c82:	681a      	ldr	r2, [r3, #0]
 8005c84:	687b      	ldr	r3, [r7, #4]
 8005c86:	681b      	ldr	r3, [r3, #0]
 8005c88:	2101      	movs	r1, #1
 8005c8a:	430a      	orrs	r2, r1
 8005c8c:	601a      	str	r2, [r3, #0]
    if (!IS_TIM_SLAVEMODE_TRIGGER_ENABLED(tmpsmcr))
 8005c8e:	e008      	b.n	8005ca2 <HAL_TIM_Base_Start_IT+0x9a>
    }
  }
  else
  {
    __HAL_TIM_ENABLE(htim);
 8005c90:	687b      	ldr	r3, [r7, #4]
 8005c92:	681b      	ldr	r3, [r3, #0]
 8005c94:	681a      	ldr	r2, [r3, #0]
 8005c96:	687b      	ldr	r3, [r7, #4]
 8005c98:	681b      	ldr	r3, [r3, #0]
 8005c9a:	2101      	movs	r1, #1
 8005c9c:	430a      	orrs	r2, r1
 8005c9e:	601a      	str	r2, [r3, #0]
 8005ca0:	e000      	b.n	8005ca4 <HAL_TIM_Base_Start_IT+0x9c>
    if (!IS_TIM_SLAVEMODE_TRIGGER_ENABLED(tmpsmcr))
 8005ca2:	46c0      	nop			; (mov r8, r8)
  }

  /* Return function status */
  return HAL_OK;
 8005ca4:	2300      	movs	r3, #0
}
 8005ca6:	0018      	movs	r0, r3
 8005ca8:	46bd      	mov	sp, r7
 8005caa:	b004      	add	sp, #16
 8005cac:	bd80      	pop	{r7, pc}
 8005cae:	46c0      	nop			; (mov r8, r8)
 8005cb0:	40012c00 	.word	0x40012c00
 8005cb4:	40000400 	.word	0x40000400
 8005cb8:	40014000 	.word	0x40014000
 8005cbc:	00010007 	.word	0x00010007

08005cc0 <HAL_TIM_PWM_Init>:
  *         Ex: call @ref HAL_TIM_PWM_DeInit() before HAL_TIM_PWM_Init()
  * @param  htim TIM PWM handle
  * @retval HAL status
  */
HAL_StatusTypeDef HAL_TIM_PWM_Init(TIM_HandleTypeDef *htim)
{
 8005cc0:	b580      	push	{r7, lr}
 8005cc2:	b082      	sub	sp, #8
 8005cc4:	af00      	add	r7, sp, #0
 8005cc6:	6078      	str	r0, [r7, #4]
  /* Check the TIM handle allocation */
  if (htim == NULL)
 8005cc8:	687b      	ldr	r3, [r7, #4]
 8005cca:	2b00      	cmp	r3, #0
 8005ccc:	d101      	bne.n	8005cd2 <HAL_TIM_PWM_Init+0x12>
  {
    return HAL_ERROR;
 8005cce:	2301      	movs	r3, #1
 8005cd0:	e04a      	b.n	8005d68 <HAL_TIM_PWM_Init+0xa8>
  assert_param(IS_TIM_INSTANCE(htim->Instance));
  assert_param(IS_TIM_COUNTER_MODE(htim->Init.CounterMode));
  assert_param(IS_TIM_CLOCKDIVISION_DIV(htim->Init.ClockDivision));
  assert_param(IS_TIM_AUTORELOAD_PRELOAD(htim->Init.AutoReloadPreload));

  if (htim->State == HAL_TIM_STATE_RESET)
 8005cd2:	687b      	ldr	r3, [r7, #4]
 8005cd4:	223d      	movs	r2, #61	; 0x3d
 8005cd6:	5c9b      	ldrb	r3, [r3, r2]
 8005cd8:	b2db      	uxtb	r3, r3
 8005cda:	2b00      	cmp	r3, #0
 8005cdc:	d107      	bne.n	8005cee <HAL_TIM_PWM_Init+0x2e>
  {
    /* Allocate lock resource and initialize it */
    htim->Lock = HAL_UNLOCKED;
 8005cde:	687b      	ldr	r3, [r7, #4]
 8005ce0:	223c      	movs	r2, #60	; 0x3c
 8005ce2:	2100      	movs	r1, #0
 8005ce4:	5499      	strb	r1, [r3, r2]
    }
    /* Init the low level hardware : GPIO, CLOCK, NVIC */
    htim->PWM_MspInitCallback(htim);
#else
    /* Init the low level hardware : GPIO, CLOCK, NVIC and DMA */
    HAL_TIM_PWM_MspInit(htim);
 8005ce6:	687b      	ldr	r3, [r7, #4]
 8005ce8:	0018      	movs	r0, r3
 8005cea:	f7fb ffb5 	bl	8001c58 <HAL_TIM_PWM_MspInit>
#endif /* USE_HAL_TIM_REGISTER_CALLBACKS */
  }

  /* Set the TIM state */
  htim->State = HAL_TIM_STATE_BUSY;
 8005cee:	687b      	ldr	r3, [r7, #4]
 8005cf0:	223d      	movs	r2, #61	; 0x3d
 8005cf2:	2102      	movs	r1, #2
 8005cf4:	5499      	strb	r1, [r3, r2]

  /* Init the base time for the PWM */
  TIM_Base_SetConfig(htim->Instance, &htim->Init);
 8005cf6:	687b      	ldr	r3, [r7, #4]
 8005cf8:	681a      	ldr	r2, [r3, #0]
 8005cfa:	687b      	ldr	r3, [r7, #4]
 8005cfc:	3304      	adds	r3, #4
 8005cfe:	0019      	movs	r1, r3
 8005d00:	0010      	movs	r0, r2
 8005d02:	f000 fb67 	bl	80063d4 <TIM_Base_SetConfig>

  /* Initialize the DMA burst operation state */
  htim->DMABurstState = HAL_DMA_BURST_STATE_READY;
 8005d06:	687b      	ldr	r3, [r7, #4]
 8005d08:	2248      	movs	r2, #72	; 0x48
 8005d0a:	2101      	movs	r1, #1
 8005d0c:	5499      	strb	r1, [r3, r2]

  /* Initialize the TIM channels state */
  TIM_CHANNEL_STATE_SET_ALL(htim, HAL_TIM_CHANNEL_STATE_READY);
 8005d0e:	687b      	ldr	r3, [r7, #4]
 8005d10:	223e      	movs	r2, #62	; 0x3e
 8005d12:	2101      	movs	r1, #1
 8005d14:	5499      	strb	r1, [r3, r2]
 8005d16:	687b      	ldr	r3, [r7, #4]
 8005d18:	223f      	movs	r2, #63	; 0x3f
 8005d1a:	2101      	movs	r1, #1
 8005d1c:	5499      	strb	r1, [r3, r2]
 8005d1e:	687b      	ldr	r3, [r7, #4]
 8005d20:	2240      	movs	r2, #64	; 0x40
 8005d22:	2101      	movs	r1, #1
 8005d24:	5499      	strb	r1, [r3, r2]
 8005d26:	687b      	ldr	r3, [r7, #4]
 8005d28:	2241      	movs	r2, #65	; 0x41
 8005d2a:	2101      	movs	r1, #1
 8005d2c:	5499      	strb	r1, [r3, r2]
 8005d2e:	687b      	ldr	r3, [r7, #4]
 8005d30:	2242      	movs	r2, #66	; 0x42
 8005d32:	2101      	movs	r1, #1
 8005d34:	5499      	strb	r1, [r3, r2]
 8005d36:	687b      	ldr	r3, [r7, #4]
 8005d38:	2243      	movs	r2, #67	; 0x43
 8005d3a:	2101      	movs	r1, #1
 8005d3c:	5499      	strb	r1, [r3, r2]
  TIM_CHANNEL_N_STATE_SET_ALL(htim, HAL_TIM_CHANNEL_STATE_READY);
 8005d3e:	687b      	ldr	r3, [r7, #4]
 8005d40:	2244      	movs	r2, #68	; 0x44
 8005d42:	2101      	movs	r1, #1
 8005d44:	5499      	strb	r1, [r3, r2]
 8005d46:	687b      	ldr	r3, [r7, #4]
 8005d48:	2245      	movs	r2, #69	; 0x45
 8005d4a:	2101      	movs	r1, #1
 8005d4c:	5499      	strb	r1, [r3, r2]
 8005d4e:	687b      	ldr	r3, [r7, #4]
 8005d50:	2246      	movs	r2, #70	; 0x46
 8005d52:	2101      	movs	r1, #1
 8005d54:	5499      	strb	r1, [r3, r2]
 8005d56:	687b      	ldr	r3, [r7, #4]
 8005d58:	2247      	movs	r2, #71	; 0x47
 8005d5a:	2101      	movs	r1, #1
 8005d5c:	5499      	strb	r1, [r3, r2]

  /* Initialize the TIM state*/
  htim->State = HAL_TIM_STATE_READY;
 8005d5e:	687b      	ldr	r3, [r7, #4]
 8005d60:	223d      	movs	r2, #61	; 0x3d
 8005d62:	2101      	movs	r1, #1
 8005d64:	5499      	strb	r1, [r3, r2]

  return HAL_OK;
 8005d66:	2300      	movs	r3, #0
}
 8005d68:	0018      	movs	r0, r3
 8005d6a:	46bd      	mov	sp, r7
 8005d6c:	b002      	add	sp, #8
 8005d6e:	bd80      	pop	{r7, pc}

08005d70 <HAL_TIM_PWM_Start>:
  *            @arg TIM_CHANNEL_5: TIM Channel 5 selected
  *            @arg TIM_CHANNEL_6: TIM Channel 6 selected
  * @retval HAL status
  */
HAL_StatusTypeDef HAL_TIM_PWM_Start(TIM_HandleTypeDef *htim, uint32_t Channel)
{
 8005d70:	b580      	push	{r7, lr}
 8005d72:	b084      	sub	sp, #16
 8005d74:	af00      	add	r7, sp, #0
 8005d76:	6078      	str	r0, [r7, #4]
 8005d78:	6039      	str	r1, [r7, #0]

  /* Check the parameters */
  assert_param(IS_TIM_CCX_INSTANCE(htim->Instance, Channel));

  /* Check the TIM channel state */
  if (TIM_CHANNEL_STATE_GET(htim, Channel) != HAL_TIM_CHANNEL_STATE_READY)
 8005d7a:	683b      	ldr	r3, [r7, #0]
 8005d7c:	2b00      	cmp	r3, #0
 8005d7e:	d108      	bne.n	8005d92 <HAL_TIM_PWM_Start+0x22>
 8005d80:	687b      	ldr	r3, [r7, #4]
 8005d82:	223e      	movs	r2, #62	; 0x3e
 8005d84:	5c9b      	ldrb	r3, [r3, r2]
 8005d86:	b2db      	uxtb	r3, r3
 8005d88:	3b01      	subs	r3, #1
 8005d8a:	1e5a      	subs	r2, r3, #1
 8005d8c:	4193      	sbcs	r3, r2
 8005d8e:	b2db      	uxtb	r3, r3
 8005d90:	e037      	b.n	8005e02 <HAL_TIM_PWM_Start+0x92>
 8005d92:	683b      	ldr	r3, [r7, #0]
 8005d94:	2b04      	cmp	r3, #4
 8005d96:	d108      	bne.n	8005daa <HAL_TIM_PWM_Start+0x3a>
 8005d98:	687b      	ldr	r3, [r7, #4]
 8005d9a:	223f      	movs	r2, #63	; 0x3f
 8005d9c:	5c9b      	ldrb	r3, [r3, r2]
 8005d9e:	b2db      	uxtb	r3, r3
 8005da0:	3b01      	subs	r3, #1
 8005da2:	1e5a      	subs	r2, r3, #1
 8005da4:	4193      	sbcs	r3, r2
 8005da6:	b2db      	uxtb	r3, r3
 8005da8:	e02b      	b.n	8005e02 <HAL_TIM_PWM_Start+0x92>
 8005daa:	683b      	ldr	r3, [r7, #0]
 8005dac:	2b08      	cmp	r3, #8
 8005dae:	d108      	bne.n	8005dc2 <HAL_TIM_PWM_Start+0x52>
 8005db0:	687b      	ldr	r3, [r7, #4]
 8005db2:	2240      	movs	r2, #64	; 0x40
 8005db4:	5c9b      	ldrb	r3, [r3, r2]
 8005db6:	b2db      	uxtb	r3, r3
 8005db8:	3b01      	subs	r3, #1
 8005dba:	1e5a      	subs	r2, r3, #1
 8005dbc:	4193      	sbcs	r3, r2
 8005dbe:	b2db      	uxtb	r3, r3
 8005dc0:	e01f      	b.n	8005e02 <HAL_TIM_PWM_Start+0x92>
 8005dc2:	683b      	ldr	r3, [r7, #0]
 8005dc4:	2b0c      	cmp	r3, #12
 8005dc6:	d108      	bne.n	8005dda <HAL_TIM_PWM_Start+0x6a>
 8005dc8:	687b      	ldr	r3, [r7, #4]
 8005dca:	2241      	movs	r2, #65	; 0x41
 8005dcc:	5c9b      	ldrb	r3, [r3, r2]
 8005dce:	b2db      	uxtb	r3, r3
 8005dd0:	3b01      	subs	r3, #1
 8005dd2:	1e5a      	subs	r2, r3, #1
 8005dd4:	4193      	sbcs	r3, r2
 8005dd6:	b2db      	uxtb	r3, r3
 8005dd8:	e013      	b.n	8005e02 <HAL_TIM_PWM_Start+0x92>
 8005dda:	683b      	ldr	r3, [r7, #0]
 8005ddc:	2b10      	cmp	r3, #16
 8005dde:	d108      	bne.n	8005df2 <HAL_TIM_PWM_Start+0x82>
 8005de0:	687b      	ldr	r3, [r7, #4]
 8005de2:	2242      	movs	r2, #66	; 0x42
 8005de4:	5c9b      	ldrb	r3, [r3, r2]
 8005de6:	b2db      	uxtb	r3, r3
 8005de8:	3b01      	subs	r3, #1
 8005dea:	1e5a      	subs	r2, r3, #1
 8005dec:	4193      	sbcs	r3, r2
 8005dee:	b2db      	uxtb	r3, r3
 8005df0:	e007      	b.n	8005e02 <HAL_TIM_PWM_Start+0x92>
 8005df2:	687b      	ldr	r3, [r7, #4]
 8005df4:	2243      	movs	r2, #67	; 0x43
 8005df6:	5c9b      	ldrb	r3, [r3, r2]
 8005df8:	b2db      	uxtb	r3, r3
 8005dfa:	3b01      	subs	r3, #1
 8005dfc:	1e5a      	subs	r2, r3, #1
 8005dfe:	4193      	sbcs	r3, r2
 8005e00:	b2db      	uxtb	r3, r3
 8005e02:	2b00      	cmp	r3, #0
 8005e04:	d001      	beq.n	8005e0a <HAL_TIM_PWM_Start+0x9a>
  {
    return HAL_ERROR;
 8005e06:	2301      	movs	r3, #1
 8005e08:	e08b      	b.n	8005f22 <HAL_TIM_PWM_Start+0x1b2>
  }

  /* Set the TIM channel state */
  TIM_CHANNEL_STATE_SET(htim, Channel, HAL_TIM_CHANNEL_STATE_BUSY);
 8005e0a:	683b      	ldr	r3, [r7, #0]
 8005e0c:	2b00      	cmp	r3, #0
 8005e0e:	d104      	bne.n	8005e1a <HAL_TIM_PWM_Start+0xaa>
 8005e10:	687b      	ldr	r3, [r7, #4]
 8005e12:	223e      	movs	r2, #62	; 0x3e
 8005e14:	2102      	movs	r1, #2
 8005e16:	5499      	strb	r1, [r3, r2]
 8005e18:	e023      	b.n	8005e62 <HAL_TIM_PWM_Start+0xf2>
 8005e1a:	683b      	ldr	r3, [r7, #0]
 8005e1c:	2b04      	cmp	r3, #4
 8005e1e:	d104      	bne.n	8005e2a <HAL_TIM_PWM_Start+0xba>
 8005e20:	687b      	ldr	r3, [r7, #4]
 8005e22:	223f      	movs	r2, #63	; 0x3f
 8005e24:	2102      	movs	r1, #2
 8005e26:	5499      	strb	r1, [r3, r2]
 8005e28:	e01b      	b.n	8005e62 <HAL_TIM_PWM_Start+0xf2>
 8005e2a:	683b      	ldr	r3, [r7, #0]
 8005e2c:	2b08      	cmp	r3, #8
 8005e2e:	d104      	bne.n	8005e3a <HAL_TIM_PWM_Start+0xca>
 8005e30:	687b      	ldr	r3, [r7, #4]
 8005e32:	2240      	movs	r2, #64	; 0x40
 8005e34:	2102      	movs	r1, #2
 8005e36:	5499      	strb	r1, [r3, r2]
 8005e38:	e013      	b.n	8005e62 <HAL_TIM_PWM_Start+0xf2>
 8005e3a:	683b      	ldr	r3, [r7, #0]
 8005e3c:	2b0c      	cmp	r3, #12
 8005e3e:	d104      	bne.n	8005e4a <HAL_TIM_PWM_Start+0xda>
 8005e40:	687b      	ldr	r3, [r7, #4]
 8005e42:	2241      	movs	r2, #65	; 0x41
 8005e44:	2102      	movs	r1, #2
 8005e46:	5499      	strb	r1, [r3, r2]
 8005e48:	e00b      	b.n	8005e62 <HAL_TIM_PWM_Start+0xf2>
 8005e4a:	683b      	ldr	r3, [r7, #0]
 8005e4c:	2b10      	cmp	r3, #16
 8005e4e:	d104      	bne.n	8005e5a <HAL_TIM_PWM_Start+0xea>
 8005e50:	687b      	ldr	r3, [r7, #4]
 8005e52:	2242      	movs	r2, #66	; 0x42
 8005e54:	2102      	movs	r1, #2
 8005e56:	5499      	strb	r1, [r3, r2]
 8005e58:	e003      	b.n	8005e62 <HAL_TIM_PWM_Start+0xf2>
 8005e5a:	687b      	ldr	r3, [r7, #4]
 8005e5c:	2243      	movs	r2, #67	; 0x43
 8005e5e:	2102      	movs	r1, #2
 8005e60:	5499      	strb	r1, [r3, r2]

  /* Enable the Capture compare channel */
  TIM_CCxChannelCmd(htim->Instance, Channel, TIM_CCx_ENABLE);
 8005e62:	687b      	ldr	r3, [r7, #4]
 8005e64:	681b      	ldr	r3, [r3, #0]
 8005e66:	6839      	ldr	r1, [r7, #0]
 8005e68:	2201      	movs	r2, #1
 8005e6a:	0018      	movs	r0, r3
 8005e6c:	f000 fdf6 	bl	8006a5c <TIM_CCxChannelCmd>

  if (IS_TIM_BREAK_INSTANCE(htim->Instance) != RESET)
 8005e70:	687b      	ldr	r3, [r7, #4]
 8005e72:	681b      	ldr	r3, [r3, #0]
 8005e74:	4a2d      	ldr	r2, [pc, #180]	; (8005f2c <HAL_TIM_PWM_Start+0x1bc>)
 8005e76:	4293      	cmp	r3, r2
 8005e78:	d00e      	beq.n	8005e98 <HAL_TIM_PWM_Start+0x128>
 8005e7a:	687b      	ldr	r3, [r7, #4]
 8005e7c:	681b      	ldr	r3, [r3, #0]
 8005e7e:	4a2c      	ldr	r2, [pc, #176]	; (8005f30 <HAL_TIM_PWM_Start+0x1c0>)
 8005e80:	4293      	cmp	r3, r2
 8005e82:	d009      	beq.n	8005e98 <HAL_TIM_PWM_Start+0x128>
 8005e84:	687b      	ldr	r3, [r7, #4]
 8005e86:	681b      	ldr	r3, [r3, #0]
 8005e88:	4a2a      	ldr	r2, [pc, #168]	; (8005f34 <HAL_TIM_PWM_Start+0x1c4>)
 8005e8a:	4293      	cmp	r3, r2
 8005e8c:	d004      	beq.n	8005e98 <HAL_TIM_PWM_Start+0x128>
 8005e8e:	687b      	ldr	r3, [r7, #4]
 8005e90:	681b      	ldr	r3, [r3, #0]
 8005e92:	4a29      	ldr	r2, [pc, #164]	; (8005f38 <HAL_TIM_PWM_Start+0x1c8>)
 8005e94:	4293      	cmp	r3, r2
 8005e96:	d101      	bne.n	8005e9c <HAL_TIM_PWM_Start+0x12c>
 8005e98:	2301      	movs	r3, #1
 8005e9a:	e000      	b.n	8005e9e <HAL_TIM_PWM_Start+0x12e>
 8005e9c:	2300      	movs	r3, #0
 8005e9e:	2b00      	cmp	r3, #0
 8005ea0:	d008      	beq.n	8005eb4 <HAL_TIM_PWM_Start+0x144>
  {
    /* Enable the main output */
    __HAL_TIM_MOE_ENABLE(htim);
 8005ea2:	687b      	ldr	r3, [r7, #4]
 8005ea4:	681b      	ldr	r3, [r3, #0]
 8005ea6:	6c5a      	ldr	r2, [r3, #68]	; 0x44
 8005ea8:	687b      	ldr	r3, [r7, #4]
 8005eaa:	681b      	ldr	r3, [r3, #0]
 8005eac:	2180      	movs	r1, #128	; 0x80
 8005eae:	0209      	lsls	r1, r1, #8
 8005eb0:	430a      	orrs	r2, r1
 8005eb2:	645a      	str	r2, [r3, #68]	; 0x44
  }

  /* Enable the Peripheral, except in trigger mode where enable is automatically done with trigger */
  if (IS_TIM_SLAVE_INSTANCE(htim->Instance))
 8005eb4:	687b      	ldr	r3, [r7, #4]
 8005eb6:	681b      	ldr	r3, [r3, #0]
 8005eb8:	4a1c      	ldr	r2, [pc, #112]	; (8005f2c <HAL_TIM_PWM_Start+0x1bc>)
 8005eba:	4293      	cmp	r3, r2
 8005ebc:	d00f      	beq.n	8005ede <HAL_TIM_PWM_Start+0x16e>
 8005ebe:	687b      	ldr	r3, [r7, #4]
 8005ec0:	681a      	ldr	r2, [r3, #0]
 8005ec2:	2380      	movs	r3, #128	; 0x80
 8005ec4:	05db      	lsls	r3, r3, #23
 8005ec6:	429a      	cmp	r2, r3
 8005ec8:	d009      	beq.n	8005ede <HAL_TIM_PWM_Start+0x16e>
 8005eca:	687b      	ldr	r3, [r7, #4]
 8005ecc:	681b      	ldr	r3, [r3, #0]
 8005ece:	4a1b      	ldr	r2, [pc, #108]	; (8005f3c <HAL_TIM_PWM_Start+0x1cc>)
 8005ed0:	4293      	cmp	r3, r2
 8005ed2:	d004      	beq.n	8005ede <HAL_TIM_PWM_Start+0x16e>
 8005ed4:	687b      	ldr	r3, [r7, #4]
 8005ed6:	681b      	ldr	r3, [r3, #0]
 8005ed8:	4a15      	ldr	r2, [pc, #84]	; (8005f30 <HAL_TIM_PWM_Start+0x1c0>)
 8005eda:	4293      	cmp	r3, r2
 8005edc:	d116      	bne.n	8005f0c <HAL_TIM_PWM_Start+0x19c>
  {
    tmpsmcr = htim->Instance->SMCR & TIM_SMCR_SMS;
 8005ede:	687b      	ldr	r3, [r7, #4]
 8005ee0:	681b      	ldr	r3, [r3, #0]
 8005ee2:	689b      	ldr	r3, [r3, #8]
 8005ee4:	4a16      	ldr	r2, [pc, #88]	; (8005f40 <HAL_TIM_PWM_Start+0x1d0>)
 8005ee6:	4013      	ands	r3, r2
 8005ee8:	60fb      	str	r3, [r7, #12]
    if (!IS_TIM_SLAVEMODE_TRIGGER_ENABLED(tmpsmcr))
 8005eea:	68fb      	ldr	r3, [r7, #12]
 8005eec:	2b06      	cmp	r3, #6
 8005eee:	d016      	beq.n	8005f1e <HAL_TIM_PWM_Start+0x1ae>
 8005ef0:	68fa      	ldr	r2, [r7, #12]
 8005ef2:	2380      	movs	r3, #128	; 0x80
 8005ef4:	025b      	lsls	r3, r3, #9
 8005ef6:	429a      	cmp	r2, r3
 8005ef8:	d011      	beq.n	8005f1e <HAL_TIM_PWM_Start+0x1ae>
    {
      __HAL_TIM_ENABLE(htim);
 8005efa:	687b      	ldr	r3, [r7, #4]
 8005efc:	681b      	ldr	r3, [r3, #0]
 8005efe:	681a      	ldr	r2, [r3, #0]
 8005f00:	687b      	ldr	r3, [r7, #4]
 8005f02:	681b      	ldr	r3, [r3, #0]
 8005f04:	2101      	movs	r1, #1
 8005f06:	430a      	orrs	r2, r1
 8005f08:	601a      	str	r2, [r3, #0]
    if (!IS_TIM_SLAVEMODE_TRIGGER_ENABLED(tmpsmcr))
 8005f0a:	e008      	b.n	8005f1e <HAL_TIM_PWM_Start+0x1ae>
    }
  }
  else
  {
    __HAL_TIM_ENABLE(htim);
 8005f0c:	687b      	ldr	r3, [r7, #4]
 8005f0e:	681b      	ldr	r3, [r3, #0]
 8005f10:	681a      	ldr	r2, [r3, #0]
 8005f12:	687b      	ldr	r3, [r7, #4]
 8005f14:	681b      	ldr	r3, [r3, #0]
 8005f16:	2101      	movs	r1, #1
 8005f18:	430a      	orrs	r2, r1
 8005f1a:	601a      	str	r2, [r3, #0]
 8005f1c:	e000      	b.n	8005f20 <HAL_TIM_PWM_Start+0x1b0>
    if (!IS_TIM_SLAVEMODE_TRIGGER_ENABLED(tmpsmcr))
 8005f1e:	46c0      	nop			; (mov r8, r8)
  }

  /* Return function status */
  return HAL_OK;
 8005f20:	2300      	movs	r3, #0
}
 8005f22:	0018      	movs	r0, r3
 8005f24:	46bd      	mov	sp, r7
 8005f26:	b004      	add	sp, #16
 8005f28:	bd80      	pop	{r7, pc}
 8005f2a:	46c0      	nop			; (mov r8, r8)
 8005f2c:	40012c00 	.word	0x40012c00
 8005f30:	40014000 	.word	0x40014000
 8005f34:	40014400 	.word	0x40014400
 8005f38:	40014800 	.word	0x40014800
 8005f3c:	40000400 	.word	0x40000400
 8005f40:	00010007 	.word	0x00010007

08005f44 <HAL_TIM_IRQHandler>:
  * @brief  This function handles TIM interrupts requests.
  * @param  htim TIM  handle
  * @retval None
  */
void HAL_TIM_IRQHandler(TIM_HandleTypeDef *htim)
{
 8005f44:	b580      	push	{r7, lr}
 8005f46:	b082      	sub	sp, #8
 8005f48:	af00      	add	r7, sp, #0
 8005f4a:	6078      	str	r0, [r7, #4]
  /* Capture compare 1 event */
  if (__HAL_TIM_GET_FLAG(htim, TIM_FLAG_CC1) != RESET)
 8005f4c:	687b      	ldr	r3, [r7, #4]
 8005f4e:	681b      	ldr	r3, [r3, #0]
 8005f50:	691b      	ldr	r3, [r3, #16]
 8005f52:	2202      	movs	r2, #2
 8005f54:	4013      	ands	r3, r2
 8005f56:	2b02      	cmp	r3, #2
 8005f58:	d124      	bne.n	8005fa4 <HAL_TIM_IRQHandler+0x60>
  {
    if (__HAL_TIM_GET_IT_SOURCE(htim, TIM_IT_CC1) != RESET)
 8005f5a:	687b      	ldr	r3, [r7, #4]
 8005f5c:	681b      	ldr	r3, [r3, #0]
 8005f5e:	68db      	ldr	r3, [r3, #12]
 8005f60:	2202      	movs	r2, #2
 8005f62:	4013      	ands	r3, r2
 8005f64:	2b02      	cmp	r3, #2
 8005f66:	d11d      	bne.n	8005fa4 <HAL_TIM_IRQHandler+0x60>
    {
      {
        __HAL_TIM_CLEAR_IT(htim, TIM_IT_CC1);
 8005f68:	687b      	ldr	r3, [r7, #4]
 8005f6a:	681b      	ldr	r3, [r3, #0]
 8005f6c:	2203      	movs	r2, #3
 8005f6e:	4252      	negs	r2, r2
 8005f70:	611a      	str	r2, [r3, #16]
        htim->Channel = HAL_TIM_ACTIVE_CHANNEL_1;
 8005f72:	687b      	ldr	r3, [r7, #4]
 8005f74:	2201      	movs	r2, #1
 8005f76:	771a      	strb	r2, [r3, #28]

        /* Input capture event */
        if ((htim->Instance->CCMR1 & TIM_CCMR1_CC1S) != 0x00U)
 8005f78:	687b      	ldr	r3, [r7, #4]
 8005f7a:	681b      	ldr	r3, [r3, #0]
 8005f7c:	699b      	ldr	r3, [r3, #24]
 8005f7e:	2203      	movs	r2, #3
 8005f80:	4013      	ands	r3, r2
 8005f82:	d004      	beq.n	8005f8e <HAL_TIM_IRQHandler+0x4a>
        {
#if (USE_HAL_TIM_REGISTER_CALLBACKS == 1)
          htim->IC_CaptureCallback(htim);
#else
          HAL_TIM_IC_CaptureCallback(htim);
 8005f84:	687b      	ldr	r3, [r7, #4]
 8005f86:	0018      	movs	r0, r3
 8005f88:	f000 fa0c 	bl	80063a4 <HAL_TIM_IC_CaptureCallback>
 8005f8c:	e007      	b.n	8005f9e <HAL_TIM_IRQHandler+0x5a>
        {
#if (USE_HAL_TIM_REGISTER_CALLBACKS == 1)
          htim->OC_DelayElapsedCallback(htim);
          htim->PWM_PulseFinishedCallback(htim);
#else
          HAL_TIM_OC_DelayElapsedCallback(htim);
 8005f8e:	687b      	ldr	r3, [r7, #4]
 8005f90:	0018      	movs	r0, r3
 8005f92:	f000 f9ff 	bl	8006394 <HAL_TIM_OC_DelayElapsedCallback>
          HAL_TIM_PWM_PulseFinishedCallback(htim);
 8005f96:	687b      	ldr	r3, [r7, #4]
 8005f98:	0018      	movs	r0, r3
 8005f9a:	f000 fa0b 	bl	80063b4 <HAL_TIM_PWM_PulseFinishedCallback>
#endif /* USE_HAL_TIM_REGISTER_CALLBACKS */
        }
        htim->Channel = HAL_TIM_ACTIVE_CHANNEL_CLEARED;
 8005f9e:	687b      	ldr	r3, [r7, #4]
 8005fa0:	2200      	movs	r2, #0
 8005fa2:	771a      	strb	r2, [r3, #28]
      }
    }
  }
  /* Capture compare 2 event */
  if (__HAL_TIM_GET_FLAG(htim, TIM_FLAG_CC2) != RESET)
 8005fa4:	687b      	ldr	r3, [r7, #4]
 8005fa6:	681b      	ldr	r3, [r3, #0]
 8005fa8:	691b      	ldr	r3, [r3, #16]
 8005faa:	2204      	movs	r2, #4
 8005fac:	4013      	ands	r3, r2
 8005fae:	2b04      	cmp	r3, #4
 8005fb0:	d125      	bne.n	8005ffe <HAL_TIM_IRQHandler+0xba>
  {
    if (__HAL_TIM_GET_IT_SOURCE(htim, TIM_IT_CC2) != RESET)
 8005fb2:	687b      	ldr	r3, [r7, #4]
 8005fb4:	681b      	ldr	r3, [r3, #0]
 8005fb6:	68db      	ldr	r3, [r3, #12]
 8005fb8:	2204      	movs	r2, #4
 8005fba:	4013      	ands	r3, r2
 8005fbc:	2b04      	cmp	r3, #4
 8005fbe:	d11e      	bne.n	8005ffe <HAL_TIM_IRQHandler+0xba>
    {
      __HAL_TIM_CLEAR_IT(htim, TIM_IT_CC2);
 8005fc0:	687b      	ldr	r3, [r7, #4]
 8005fc2:	681b      	ldr	r3, [r3, #0]
 8005fc4:	2205      	movs	r2, #5
 8005fc6:	4252      	negs	r2, r2
 8005fc8:	611a      	str	r2, [r3, #16]
      htim->Channel = HAL_TIM_ACTIVE_CHANNEL_2;
 8005fca:	687b      	ldr	r3, [r7, #4]
 8005fcc:	2202      	movs	r2, #2
 8005fce:	771a      	strb	r2, [r3, #28]
      /* Input capture event */
      if ((htim->Instance->CCMR1 & TIM_CCMR1_CC2S) != 0x00U)
 8005fd0:	687b      	ldr	r3, [r7, #4]
 8005fd2:	681b      	ldr	r3, [r3, #0]
 8005fd4:	699a      	ldr	r2, [r3, #24]
 8005fd6:	23c0      	movs	r3, #192	; 0xc0
 8005fd8:	009b      	lsls	r3, r3, #2
 8005fda:	4013      	ands	r3, r2
 8005fdc:	d004      	beq.n	8005fe8 <HAL_TIM_IRQHandler+0xa4>
      {
#if (USE_HAL_TIM_REGISTER_CALLBACKS == 1)
        htim->IC_CaptureCallback(htim);
#else
        HAL_TIM_IC_CaptureCallback(htim);
 8005fde:	687b      	ldr	r3, [r7, #4]
 8005fe0:	0018      	movs	r0, r3
 8005fe2:	f000 f9df 	bl	80063a4 <HAL_TIM_IC_CaptureCallback>
 8005fe6:	e007      	b.n	8005ff8 <HAL_TIM_IRQHandler+0xb4>
      {
#if (USE_HAL_TIM_REGISTER_CALLBACKS == 1)
        htim->OC_DelayElapsedCallback(htim);
        htim->PWM_PulseFinishedCallback(htim);
#else
        HAL_TIM_OC_DelayElapsedCallback(htim);
 8005fe8:	687b      	ldr	r3, [r7, #4]
 8005fea:	0018      	movs	r0, r3
 8005fec:	f000 f9d2 	bl	8006394 <HAL_TIM_OC_DelayElapsedCallback>
        HAL_TIM_PWM_PulseFinishedCallback(htim);
 8005ff0:	687b      	ldr	r3, [r7, #4]
 8005ff2:	0018      	movs	r0, r3
 8005ff4:	f000 f9de 	bl	80063b4 <HAL_TIM_PWM_PulseFinishedCallback>
#endif /* USE_HAL_TIM_REGISTER_CALLBACKS */
      }
      htim->Channel = HAL_TIM_ACTIVE_CHANNEL_CLEARED;
 8005ff8:	687b      	ldr	r3, [r7, #4]
 8005ffa:	2200      	movs	r2, #0
 8005ffc:	771a      	strb	r2, [r3, #28]
    }
  }
  /* Capture compare 3 event */
  if (__HAL_TIM_GET_FLAG(htim, TIM_FLAG_CC3) != RESET)
 8005ffe:	687b      	ldr	r3, [r7, #4]
 8006000:	681b      	ldr	r3, [r3, #0]
 8006002:	691b      	ldr	r3, [r3, #16]
 8006004:	2208      	movs	r2, #8
 8006006:	4013      	ands	r3, r2
 8006008:	2b08      	cmp	r3, #8
 800600a:	d124      	bne.n	8006056 <HAL_TIM_IRQHandler+0x112>
  {
    if (__HAL_TIM_GET_IT_SOURCE(htim, TIM_IT_CC3) != RESET)
 800600c:	687b      	ldr	r3, [r7, #4]
 800600e:	681b      	ldr	r3, [r3, #0]
 8006010:	68db      	ldr	r3, [r3, #12]
 8006012:	2208      	movs	r2, #8
 8006014:	4013      	ands	r3, r2
 8006016:	2b08      	cmp	r3, #8
 8006018:	d11d      	bne.n	8006056 <HAL_TIM_IRQHandler+0x112>
    {
      __HAL_TIM_CLEAR_IT(htim, TIM_IT_CC3);
 800601a:	687b      	ldr	r3, [r7, #4]
 800601c:	681b      	ldr	r3, [r3, #0]
 800601e:	2209      	movs	r2, #9
 8006020:	4252      	negs	r2, r2
 8006022:	611a      	str	r2, [r3, #16]
      htim->Channel = HAL_TIM_ACTIVE_CHANNEL_3;
 8006024:	687b      	ldr	r3, [r7, #4]
 8006026:	2204      	movs	r2, #4
 8006028:	771a      	strb	r2, [r3, #28]
      /* Input capture event */
      if ((htim->Instance->CCMR2 & TIM_CCMR2_CC3S) != 0x00U)
 800602a:	687b      	ldr	r3, [r7, #4]
 800602c:	681b      	ldr	r3, [r3, #0]
 800602e:	69db      	ldr	r3, [r3, #28]
 8006030:	2203      	movs	r2, #3
 8006032:	4013      	ands	r3, r2
 8006034:	d004      	beq.n	8006040 <HAL_TIM_IRQHandler+0xfc>
      {
#if (USE_HAL_TIM_REGISTER_CALLBACKS == 1)
        htim->IC_CaptureCallback(htim);
#else
        HAL_TIM_IC_CaptureCallback(htim);
 8006036:	687b      	ldr	r3, [r7, #4]
 8006038:	0018      	movs	r0, r3
 800603a:	f000 f9b3 	bl	80063a4 <HAL_TIM_IC_CaptureCallback>
 800603e:	e007      	b.n	8006050 <HAL_TIM_IRQHandler+0x10c>
      {
#if (USE_HAL_TIM_REGISTER_CALLBACKS == 1)
        htim->OC_DelayElapsedCallback(htim);
        htim->PWM_PulseFinishedCallback(htim);
#else
        HAL_TIM_OC_DelayElapsedCallback(htim);
 8006040:	687b      	ldr	r3, [r7, #4]
 8006042:	0018      	movs	r0, r3
 8006044:	f000 f9a6 	bl	8006394 <HAL_TIM_OC_DelayElapsedCallback>
        HAL_TIM_PWM_PulseFinishedCallback(htim);
 8006048:	687b      	ldr	r3, [r7, #4]
 800604a:	0018      	movs	r0, r3
 800604c:	f000 f9b2 	bl	80063b4 <HAL_TIM_PWM_PulseFinishedCallback>
#endif /* USE_HAL_TIM_REGISTER_CALLBACKS */
      }
      htim->Channel = HAL_TIM_ACTIVE_CHANNEL_CLEARED;
 8006050:	687b      	ldr	r3, [r7, #4]
 8006052:	2200      	movs	r2, #0
 8006054:	771a      	strb	r2, [r3, #28]
    }
  }
  /* Capture compare 4 event */
  if (__HAL_TIM_GET_FLAG(htim, TIM_FLAG_CC4) != RESET)
 8006056:	687b      	ldr	r3, [r7, #4]
 8006058:	681b      	ldr	r3, [r3, #0]
 800605a:	691b      	ldr	r3, [r3, #16]
 800605c:	2210      	movs	r2, #16
 800605e:	4013      	ands	r3, r2
 8006060:	2b10      	cmp	r3, #16
 8006062:	d125      	bne.n	80060b0 <HAL_TIM_IRQHandler+0x16c>
  {
    if (__HAL_TIM_GET_IT_SOURCE(htim, TIM_IT_CC4) != RESET)
 8006064:	687b      	ldr	r3, [r7, #4]
 8006066:	681b      	ldr	r3, [r3, #0]
 8006068:	68db      	ldr	r3, [r3, #12]
 800606a:	2210      	movs	r2, #16
 800606c:	4013      	ands	r3, r2
 800606e:	2b10      	cmp	r3, #16
 8006070:	d11e      	bne.n	80060b0 <HAL_TIM_IRQHandler+0x16c>
    {
      __HAL_TIM_CLEAR_IT(htim, TIM_IT_CC4);
 8006072:	687b      	ldr	r3, [r7, #4]
 8006074:	681b      	ldr	r3, [r3, #0]
 8006076:	2211      	movs	r2, #17
 8006078:	4252      	negs	r2, r2
 800607a:	611a      	str	r2, [r3, #16]
      htim->Channel = HAL_TIM_ACTIVE_CHANNEL_4;
 800607c:	687b      	ldr	r3, [r7, #4]
 800607e:	2208      	movs	r2, #8
 8006080:	771a      	strb	r2, [r3, #28]
      /* Input capture event */
      if ((htim->Instance->CCMR2 & TIM_CCMR2_CC4S) != 0x00U)
 8006082:	687b      	ldr	r3, [r7, #4]
 8006084:	681b      	ldr	r3, [r3, #0]
 8006086:	69da      	ldr	r2, [r3, #28]
 8006088:	23c0      	movs	r3, #192	; 0xc0
 800608a:	009b      	lsls	r3, r3, #2
 800608c:	4013      	ands	r3, r2
 800608e:	d004      	beq.n	800609a <HAL_TIM_IRQHandler+0x156>
      {
#if (USE_HAL_TIM_REGISTER_CALLBACKS == 1)
        htim->IC_CaptureCallback(htim);
#else
        HAL_TIM_IC_CaptureCallback(htim);
 8006090:	687b      	ldr	r3, [r7, #4]
 8006092:	0018      	movs	r0, r3
 8006094:	f000 f986 	bl	80063a4 <HAL_TIM_IC_CaptureCallback>
 8006098:	e007      	b.n	80060aa <HAL_TIM_IRQHandler+0x166>
      {
#if (USE_HAL_TIM_REGISTER_CALLBACKS == 1)
        htim->OC_DelayElapsedCallback(htim);
        htim->PWM_PulseFinishedCallback(htim);
#else
        HAL_TIM_OC_DelayElapsedCallback(htim);
 800609a:	687b      	ldr	r3, [r7, #4]
 800609c:	0018      	movs	r0, r3
 800609e:	f000 f979 	bl	8006394 <HAL_TIM_OC_DelayElapsedCallback>
        HAL_TIM_PWM_PulseFinishedCallback(htim);
 80060a2:	687b      	ldr	r3, [r7, #4]
 80060a4:	0018      	movs	r0, r3
 80060a6:	f000 f985 	bl	80063b4 <HAL_TIM_PWM_PulseFinishedCallback>
#endif /* USE_HAL_TIM_REGISTER_CALLBACKS */
      }
      htim->Channel = HAL_TIM_ACTIVE_CHANNEL_CLEARED;
 80060aa:	687b      	ldr	r3, [r7, #4]
 80060ac:	2200      	movs	r2, #0
 80060ae:	771a      	strb	r2, [r3, #28]
    }
  }
  /* TIM Update event */
  if (__HAL_TIM_GET_FLAG(htim, TIM_FLAG_UPDATE) != RESET)
 80060b0:	687b      	ldr	r3, [r7, #4]
 80060b2:	681b      	ldr	r3, [r3, #0]
 80060b4:	691b      	ldr	r3, [r3, #16]
 80060b6:	2201      	movs	r2, #1
 80060b8:	4013      	ands	r3, r2
 80060ba:	2b01      	cmp	r3, #1
 80060bc:	d10f      	bne.n	80060de <HAL_TIM_IRQHandler+0x19a>
  {
    if (__HAL_TIM_GET_IT_SOURCE(htim, TIM_IT_UPDATE) != RESET)
 80060be:	687b      	ldr	r3, [r7, #4]
 80060c0:	681b      	ldr	r3, [r3, #0]
 80060c2:	68db      	ldr	r3, [r3, #12]
 80060c4:	2201      	movs	r2, #1
 80060c6:	4013      	ands	r3, r2
 80060c8:	2b01      	cmp	r3, #1
 80060ca:	d108      	bne.n	80060de <HAL_TIM_IRQHandler+0x19a>
    {
      __HAL_TIM_CLEAR_IT(htim, TIM_IT_UPDATE);
 80060cc:	687b      	ldr	r3, [r7, #4]
 80060ce:	681b      	ldr	r3, [r3, #0]
 80060d0:	2202      	movs	r2, #2
 80060d2:	4252      	negs	r2, r2
 80060d4:	611a      	str	r2, [r3, #16]
#if (USE_HAL_TIM_REGISTER_CALLBACKS == 1)
      htim->PeriodElapsedCallback(htim);
#else
      HAL_TIM_PeriodElapsedCallback(htim);
 80060d6:	687b      	ldr	r3, [r7, #4]
 80060d8:	0018      	movs	r0, r3
 80060da:	f7fa fe6f 	bl	8000dbc <HAL_TIM_PeriodElapsedCallback>
#endif /* USE_HAL_TIM_REGISTER_CALLBACKS */
    }
  }
  /* TIM Break input event */
  if (__HAL_TIM_GET_FLAG(htim, TIM_FLAG_BREAK) != RESET)
 80060de:	687b      	ldr	r3, [r7, #4]
 80060e0:	681b      	ldr	r3, [r3, #0]
 80060e2:	691b      	ldr	r3, [r3, #16]
 80060e4:	2280      	movs	r2, #128	; 0x80
 80060e6:	4013      	ands	r3, r2
 80060e8:	2b80      	cmp	r3, #128	; 0x80
 80060ea:	d10f      	bne.n	800610c <HAL_TIM_IRQHandler+0x1c8>
  {
    if (__HAL_TIM_GET_IT_SOURCE(htim, TIM_IT_BREAK) != RESET)
 80060ec:	687b      	ldr	r3, [r7, #4]
 80060ee:	681b      	ldr	r3, [r3, #0]
 80060f0:	68db      	ldr	r3, [r3, #12]
 80060f2:	2280      	movs	r2, #128	; 0x80
 80060f4:	4013      	ands	r3, r2
 80060f6:	2b80      	cmp	r3, #128	; 0x80
 80060f8:	d108      	bne.n	800610c <HAL_TIM_IRQHandler+0x1c8>
    {
      __HAL_TIM_CLEAR_IT(htim, TIM_IT_BREAK);
 80060fa:	687b      	ldr	r3, [r7, #4]
 80060fc:	681b      	ldr	r3, [r3, #0]
 80060fe:	2281      	movs	r2, #129	; 0x81
 8006100:	4252      	negs	r2, r2
 8006102:	611a      	str	r2, [r3, #16]
#if (USE_HAL_TIM_REGISTER_CALLBACKS == 1)
      htim->BreakCallback(htim);
#else
      HAL_TIMEx_BreakCallback(htim);
 8006104:	687b      	ldr	r3, [r7, #4]
 8006106:	0018      	movs	r0, r3
 8006108:	f000 fde8 	bl	8006cdc <HAL_TIMEx_BreakCallback>
#endif /* USE_HAL_TIM_REGISTER_CALLBACKS */
    }
  }
  /* TIM Break2 input event */
  if (__HAL_TIM_GET_FLAG(htim, TIM_FLAG_BREAK2) != RESET)
 800610c:	687b      	ldr	r3, [r7, #4]
 800610e:	681b      	ldr	r3, [r3, #0]
 8006110:	691a      	ldr	r2, [r3, #16]
 8006112:	2380      	movs	r3, #128	; 0x80
 8006114:	005b      	lsls	r3, r3, #1
 8006116:	401a      	ands	r2, r3
 8006118:	2380      	movs	r3, #128	; 0x80
 800611a:	005b      	lsls	r3, r3, #1
 800611c:	429a      	cmp	r2, r3
 800611e:	d10e      	bne.n	800613e <HAL_TIM_IRQHandler+0x1fa>
  {
    if (__HAL_TIM_GET_IT_SOURCE(htim, TIM_IT_BREAK) != RESET)
 8006120:	687b      	ldr	r3, [r7, #4]
 8006122:	681b      	ldr	r3, [r3, #0]
 8006124:	68db      	ldr	r3, [r3, #12]
 8006126:	2280      	movs	r2, #128	; 0x80
 8006128:	4013      	ands	r3, r2
 800612a:	2b80      	cmp	r3, #128	; 0x80
 800612c:	d107      	bne.n	800613e <HAL_TIM_IRQHandler+0x1fa>
    {
      __HAL_TIM_CLEAR_FLAG(htim, TIM_FLAG_BREAK2);
 800612e:	687b      	ldr	r3, [r7, #4]
 8006130:	681b      	ldr	r3, [r3, #0]
 8006132:	4a1c      	ldr	r2, [pc, #112]	; (80061a4 <HAL_TIM_IRQHandler+0x260>)
 8006134:	611a      	str	r2, [r3, #16]
#if (USE_HAL_TIM_REGISTER_CALLBACKS == 1)
      htim->Break2Callback(htim);
#else
      HAL_TIMEx_Break2Callback(htim);
 8006136:	687b      	ldr	r3, [r7, #4]
 8006138:	0018      	movs	r0, r3
 800613a:	f000 fdd7 	bl	8006cec <HAL_TIMEx_Break2Callback>
#endif /* USE_HAL_TIM_REGISTER_CALLBACKS */
    }
  }
  /* TIM Trigger detection event */
  if (__HAL_TIM_GET_FLAG(htim, TIM_FLAG_TRIGGER) != RESET)
 800613e:	687b      	ldr	r3, [r7, #4]
 8006140:	681b      	ldr	r3, [r3, #0]
 8006142:	691b      	ldr	r3, [r3, #16]
 8006144:	2240      	movs	r2, #64	; 0x40
 8006146:	4013      	ands	r3, r2
 8006148:	2b40      	cmp	r3, #64	; 0x40
 800614a:	d10f      	bne.n	800616c <HAL_TIM_IRQHandler+0x228>
  {
    if (__HAL_TIM_GET_IT_SOURCE(htim, TIM_IT_TRIGGER) != RESET)
 800614c:	687b      	ldr	r3, [r7, #4]
 800614e:	681b      	ldr	r3, [r3, #0]
 8006150:	68db      	ldr	r3, [r3, #12]
 8006152:	2240      	movs	r2, #64	; 0x40
 8006154:	4013      	ands	r3, r2
 8006156:	2b40      	cmp	r3, #64	; 0x40
 8006158:	d108      	bne.n	800616c <HAL_TIM_IRQHandler+0x228>
    {
      __HAL_TIM_CLEAR_IT(htim, TIM_IT_TRIGGER);
 800615a:	687b      	ldr	r3, [r7, #4]
 800615c:	681b      	ldr	r3, [r3, #0]
 800615e:	2241      	movs	r2, #65	; 0x41
 8006160:	4252      	negs	r2, r2
 8006162:	611a      	str	r2, [r3, #16]
#if (USE_HAL_TIM_REGISTER_CALLBACKS == 1)
      htim->TriggerCallback(htim);
#else
      HAL_TIM_TriggerCallback(htim);
 8006164:	687b      	ldr	r3, [r7, #4]
 8006166:	0018      	movs	r0, r3
 8006168:	f000 f92c 	bl	80063c4 <HAL_TIM_TriggerCallback>
#endif /* USE_HAL_TIM_REGISTER_CALLBACKS */
    }
  }
  /* TIM commutation event */
  if (__HAL_TIM_GET_FLAG(htim, TIM_FLAG_COM) != RESET)
 800616c:	687b      	ldr	r3, [r7, #4]
 800616e:	681b      	ldr	r3, [r3, #0]
 8006170:	691b      	ldr	r3, [r3, #16]
 8006172:	2220      	movs	r2, #32
 8006174:	4013      	ands	r3, r2
 8006176:	2b20      	cmp	r3, #32
 8006178:	d10f      	bne.n	800619a <HAL_TIM_IRQHandler+0x256>
  {
    if (__HAL_TIM_GET_IT_SOURCE(htim, TIM_IT_COM) != RESET)
 800617a:	687b      	ldr	r3, [r7, #4]
 800617c:	681b      	ldr	r3, [r3, #0]
 800617e:	68db      	ldr	r3, [r3, #12]
 8006180:	2220      	movs	r2, #32
 8006182:	4013      	ands	r3, r2
 8006184:	2b20      	cmp	r3, #32
 8006186:	d108      	bne.n	800619a <HAL_TIM_IRQHandler+0x256>
    {
      __HAL_TIM_CLEAR_IT(htim, TIM_FLAG_COM);
 8006188:	687b      	ldr	r3, [r7, #4]
 800618a:	681b      	ldr	r3, [r3, #0]
 800618c:	2221      	movs	r2, #33	; 0x21
 800618e:	4252      	negs	r2, r2
 8006190:	611a      	str	r2, [r3, #16]
#if (USE_HAL_TIM_REGISTER_CALLBACKS == 1)
      htim->CommutationCallback(htim);
#else
      HAL_TIMEx_CommutCallback(htim);
 8006192:	687b      	ldr	r3, [r7, #4]
 8006194:	0018      	movs	r0, r3
 8006196:	f000 fd99 	bl	8006ccc <HAL_TIMEx_CommutCallback>
#endif /* USE_HAL_TIM_REGISTER_CALLBACKS */
    }
  }
}
 800619a:	46c0      	nop			; (mov r8, r8)
 800619c:	46bd      	mov	sp, r7
 800619e:	b002      	add	sp, #8
 80061a0:	bd80      	pop	{r7, pc}
 80061a2:	46c0      	nop			; (mov r8, r8)
 80061a4:	fffffeff 	.word	0xfffffeff

080061a8 <HAL_TIM_PWM_ConfigChannel>:
  * @retval HAL status
  */
HAL_StatusTypeDef HAL_TIM_PWM_ConfigChannel(TIM_HandleTypeDef *htim,
                                            TIM_OC_InitTypeDef *sConfig,
                                            uint32_t Channel)
{
 80061a8:	b580      	push	{r7, lr}
 80061aa:	b084      	sub	sp, #16
 80061ac:	af00      	add	r7, sp, #0
 80061ae:	60f8      	str	r0, [r7, #12]
 80061b0:	60b9      	str	r1, [r7, #8]
 80061b2:	607a      	str	r2, [r7, #4]
  assert_param(IS_TIM_PWM_MODE(sConfig->OCMode));
  assert_param(IS_TIM_OC_POLARITY(sConfig->OCPolarity));
  assert_param(IS_TIM_FAST_STATE(sConfig->OCFastMode));

  /* Process Locked */
  __HAL_LOCK(htim);
 80061b4:	68fb      	ldr	r3, [r7, #12]
 80061b6:	223c      	movs	r2, #60	; 0x3c
 80061b8:	5c9b      	ldrb	r3, [r3, r2]
 80061ba:	2b01      	cmp	r3, #1
 80061bc:	d101      	bne.n	80061c2 <HAL_TIM_PWM_ConfigChannel+0x1a>
 80061be:	2302      	movs	r3, #2
 80061c0:	e0df      	b.n	8006382 <HAL_TIM_PWM_ConfigChannel+0x1da>
 80061c2:	68fb      	ldr	r3, [r7, #12]
 80061c4:	223c      	movs	r2, #60	; 0x3c
 80061c6:	2101      	movs	r1, #1
 80061c8:	5499      	strb	r1, [r3, r2]

  switch (Channel)
 80061ca:	687b      	ldr	r3, [r7, #4]
 80061cc:	2b14      	cmp	r3, #20
 80061ce:	d900      	bls.n	80061d2 <HAL_TIM_PWM_ConfigChannel+0x2a>
 80061d0:	e0d1      	b.n	8006376 <HAL_TIM_PWM_ConfigChannel+0x1ce>
 80061d2:	687b      	ldr	r3, [r7, #4]
 80061d4:	009a      	lsls	r2, r3, #2
 80061d6:	4b6d      	ldr	r3, [pc, #436]	; (800638c <HAL_TIM_PWM_ConfigChannel+0x1e4>)
 80061d8:	18d3      	adds	r3, r2, r3
 80061da:	681b      	ldr	r3, [r3, #0]
 80061dc:	469f      	mov	pc, r3
    {
      /* Check the parameters */
      assert_param(IS_TIM_CC1_INSTANCE(htim->Instance));

      /* Configure the Channel 1 in PWM mode */
      TIM_OC1_SetConfig(htim->Instance, sConfig);
 80061de:	68fb      	ldr	r3, [r7, #12]
 80061e0:	681b      	ldr	r3, [r3, #0]
 80061e2:	68ba      	ldr	r2, [r7, #8]
 80061e4:	0011      	movs	r1, r2
 80061e6:	0018      	movs	r0, r3
 80061e8:	f000 f974 	bl	80064d4 <TIM_OC1_SetConfig>

      /* Set the Preload enable bit for channel1 */
      htim->Instance->CCMR1 |= TIM_CCMR1_OC1PE;
 80061ec:	68fb      	ldr	r3, [r7, #12]
 80061ee:	681b      	ldr	r3, [r3, #0]
 80061f0:	699a      	ldr	r2, [r3, #24]
 80061f2:	68fb      	ldr	r3, [r7, #12]
 80061f4:	681b      	ldr	r3, [r3, #0]
 80061f6:	2108      	movs	r1, #8
 80061f8:	430a      	orrs	r2, r1
 80061fa:	619a      	str	r2, [r3, #24]

      /* Configure the Output Fast mode */
      htim->Instance->CCMR1 &= ~TIM_CCMR1_OC1FE;
 80061fc:	68fb      	ldr	r3, [r7, #12]
 80061fe:	681b      	ldr	r3, [r3, #0]
 8006200:	699a      	ldr	r2, [r3, #24]
 8006202:	68fb      	ldr	r3, [r7, #12]
 8006204:	681b      	ldr	r3, [r3, #0]
 8006206:	2104      	movs	r1, #4
 8006208:	438a      	bics	r2, r1
 800620a:	619a      	str	r2, [r3, #24]
      htim->Instance->CCMR1 |= sConfig->OCFastMode;
 800620c:	68fb      	ldr	r3, [r7, #12]
 800620e:	681b      	ldr	r3, [r3, #0]
 8006210:	6999      	ldr	r1, [r3, #24]
 8006212:	68bb      	ldr	r3, [r7, #8]
 8006214:	691a      	ldr	r2, [r3, #16]
 8006216:	68fb      	ldr	r3, [r7, #12]
 8006218:	681b      	ldr	r3, [r3, #0]
 800621a:	430a      	orrs	r2, r1
 800621c:	619a      	str	r2, [r3, #24]
      break;
 800621e:	e0ab      	b.n	8006378 <HAL_TIM_PWM_ConfigChannel+0x1d0>
    {
      /* Check the parameters */
      assert_param(IS_TIM_CC2_INSTANCE(htim->Instance));

      /* Configure the Channel 2 in PWM mode */
      TIM_OC2_SetConfig(htim->Instance, sConfig);
 8006220:	68fb      	ldr	r3, [r7, #12]
 8006222:	681b      	ldr	r3, [r3, #0]
 8006224:	68ba      	ldr	r2, [r7, #8]
 8006226:	0011      	movs	r1, r2
 8006228:	0018      	movs	r0, r3
 800622a:	f000 f9dd 	bl	80065e8 <TIM_OC2_SetConfig>

      /* Set the Preload enable bit for channel2 */
      htim->Instance->CCMR1 |= TIM_CCMR1_OC2PE;
 800622e:	68fb      	ldr	r3, [r7, #12]
 8006230:	681b      	ldr	r3, [r3, #0]
 8006232:	699a      	ldr	r2, [r3, #24]
 8006234:	68fb      	ldr	r3, [r7, #12]
 8006236:	681b      	ldr	r3, [r3, #0]
 8006238:	2180      	movs	r1, #128	; 0x80
 800623a:	0109      	lsls	r1, r1, #4
 800623c:	430a      	orrs	r2, r1
 800623e:	619a      	str	r2, [r3, #24]

      /* Configure the Output Fast mode */
      htim->Instance->CCMR1 &= ~TIM_CCMR1_OC2FE;
 8006240:	68fb      	ldr	r3, [r7, #12]
 8006242:	681b      	ldr	r3, [r3, #0]
 8006244:	699a      	ldr	r2, [r3, #24]
 8006246:	68fb      	ldr	r3, [r7, #12]
 8006248:	681b      	ldr	r3, [r3, #0]
 800624a:	4951      	ldr	r1, [pc, #324]	; (8006390 <HAL_TIM_PWM_ConfigChannel+0x1e8>)
 800624c:	400a      	ands	r2, r1
 800624e:	619a      	str	r2, [r3, #24]
      htim->Instance->CCMR1 |= sConfig->OCFastMode << 8U;
 8006250:	68fb      	ldr	r3, [r7, #12]
 8006252:	681b      	ldr	r3, [r3, #0]
 8006254:	6999      	ldr	r1, [r3, #24]
 8006256:	68bb      	ldr	r3, [r7, #8]
 8006258:	691b      	ldr	r3, [r3, #16]
 800625a:	021a      	lsls	r2, r3, #8
 800625c:	68fb      	ldr	r3, [r7, #12]
 800625e:	681b      	ldr	r3, [r3, #0]
 8006260:	430a      	orrs	r2, r1
 8006262:	619a      	str	r2, [r3, #24]
      break;
 8006264:	e088      	b.n	8006378 <HAL_TIM_PWM_ConfigChannel+0x1d0>
    {
      /* Check the parameters */
      assert_param(IS_TIM_CC3_INSTANCE(htim->Instance));

      /* Configure the Channel 3 in PWM mode */
      TIM_OC3_SetConfig(htim->Instance, sConfig);
 8006266:	68fb      	ldr	r3, [r7, #12]
 8006268:	681b      	ldr	r3, [r3, #0]
 800626a:	68ba      	ldr	r2, [r7, #8]
 800626c:	0011      	movs	r1, r2
 800626e:	0018      	movs	r0, r3
 8006270:	f000 fa3e 	bl	80066f0 <TIM_OC3_SetConfig>

      /* Set the Preload enable bit for channel3 */
      htim->Instance->CCMR2 |= TIM_CCMR2_OC3PE;
 8006274:	68fb      	ldr	r3, [r7, #12]
 8006276:	681b      	ldr	r3, [r3, #0]
 8006278:	69da      	ldr	r2, [r3, #28]
 800627a:	68fb      	ldr	r3, [r7, #12]
 800627c:	681b      	ldr	r3, [r3, #0]
 800627e:	2108      	movs	r1, #8
 8006280:	430a      	orrs	r2, r1
 8006282:	61da      	str	r2, [r3, #28]

      /* Configure the Output Fast mode */
      htim->Instance->CCMR2 &= ~TIM_CCMR2_OC3FE;
 8006284:	68fb      	ldr	r3, [r7, #12]
 8006286:	681b      	ldr	r3, [r3, #0]
 8006288:	69da      	ldr	r2, [r3, #28]
 800628a:	68fb      	ldr	r3, [r7, #12]
 800628c:	681b      	ldr	r3, [r3, #0]
 800628e:	2104      	movs	r1, #4
 8006290:	438a      	bics	r2, r1
 8006292:	61da      	str	r2, [r3, #28]
      htim->Instance->CCMR2 |= sConfig->OCFastMode;
 8006294:	68fb      	ldr	r3, [r7, #12]
 8006296:	681b      	ldr	r3, [r3, #0]
 8006298:	69d9      	ldr	r1, [r3, #28]
 800629a:	68bb      	ldr	r3, [r7, #8]
 800629c:	691a      	ldr	r2, [r3, #16]
 800629e:	68fb      	ldr	r3, [r7, #12]
 80062a0:	681b      	ldr	r3, [r3, #0]
 80062a2:	430a      	orrs	r2, r1
 80062a4:	61da      	str	r2, [r3, #28]
      break;
 80062a6:	e067      	b.n	8006378 <HAL_TIM_PWM_ConfigChannel+0x1d0>
    {
      /* Check the parameters */
      assert_param(IS_TIM_CC4_INSTANCE(htim->Instance));

      /* Configure the Channel 4 in PWM mode */
      TIM_OC4_SetConfig(htim->Instance, sConfig);
 80062a8:	68fb      	ldr	r3, [r7, #12]
 80062aa:	681b      	ldr	r3, [r3, #0]
 80062ac:	68ba      	ldr	r2, [r7, #8]
 80062ae:	0011      	movs	r1, r2
 80062b0:	0018      	movs	r0, r3
 80062b2:	f000 faa5 	bl	8006800 <TIM_OC4_SetConfig>

      /* Set the Preload enable bit for channel4 */
      htim->Instance->CCMR2 |= TIM_CCMR2_OC4PE;
 80062b6:	68fb      	ldr	r3, [r7, #12]
 80062b8:	681b      	ldr	r3, [r3, #0]
 80062ba:	69da      	ldr	r2, [r3, #28]
 80062bc:	68fb      	ldr	r3, [r7, #12]
 80062be:	681b      	ldr	r3, [r3, #0]
 80062c0:	2180      	movs	r1, #128	; 0x80
 80062c2:	0109      	lsls	r1, r1, #4
 80062c4:	430a      	orrs	r2, r1
 80062c6:	61da      	str	r2, [r3, #28]

      /* Configure the Output Fast mode */
      htim->Instance->CCMR2 &= ~TIM_CCMR2_OC4FE;
 80062c8:	68fb      	ldr	r3, [r7, #12]
 80062ca:	681b      	ldr	r3, [r3, #0]
 80062cc:	69da      	ldr	r2, [r3, #28]
 80062ce:	68fb      	ldr	r3, [r7, #12]
 80062d0:	681b      	ldr	r3, [r3, #0]
 80062d2:	492f      	ldr	r1, [pc, #188]	; (8006390 <HAL_TIM_PWM_ConfigChannel+0x1e8>)
 80062d4:	400a      	ands	r2, r1
 80062d6:	61da      	str	r2, [r3, #28]
      htim->Instance->CCMR2 |= sConfig->OCFastMode << 8U;
 80062d8:	68fb      	ldr	r3, [r7, #12]
 80062da:	681b      	ldr	r3, [r3, #0]
 80062dc:	69d9      	ldr	r1, [r3, #28]
 80062de:	68bb      	ldr	r3, [r7, #8]
 80062e0:	691b      	ldr	r3, [r3, #16]
 80062e2:	021a      	lsls	r2, r3, #8
 80062e4:	68fb      	ldr	r3, [r7, #12]
 80062e6:	681b      	ldr	r3, [r3, #0]
 80062e8:	430a      	orrs	r2, r1
 80062ea:	61da      	str	r2, [r3, #28]
      break;
 80062ec:	e044      	b.n	8006378 <HAL_TIM_PWM_ConfigChannel+0x1d0>
    {
      /* Check the parameters */
      assert_param(IS_TIM_CC5_INSTANCE(htim->Instance));

      /* Configure the Channel 5 in PWM mode */
      TIM_OC5_SetConfig(htim->Instance, sConfig);
 80062ee:	68fb      	ldr	r3, [r7, #12]
 80062f0:	681b      	ldr	r3, [r3, #0]
 80062f2:	68ba      	ldr	r2, [r7, #8]
 80062f4:	0011      	movs	r1, r2
 80062f6:	0018      	movs	r0, r3
 80062f8:	f000 faec 	bl	80068d4 <TIM_OC5_SetConfig>

      /* Set the Preload enable bit for channel5*/
      htim->Instance->CCMR3 |= TIM_CCMR3_OC5PE;
 80062fc:	68fb      	ldr	r3, [r7, #12]
 80062fe:	681b      	ldr	r3, [r3, #0]
 8006300:	6d5a      	ldr	r2, [r3, #84]	; 0x54
 8006302:	68fb      	ldr	r3, [r7, #12]
 8006304:	681b      	ldr	r3, [r3, #0]
 8006306:	2108      	movs	r1, #8
 8006308:	430a      	orrs	r2, r1
 800630a:	655a      	str	r2, [r3, #84]	; 0x54

      /* Configure the Output Fast mode */
      htim->Instance->CCMR3 &= ~TIM_CCMR3_OC5FE;
 800630c:	68fb      	ldr	r3, [r7, #12]
 800630e:	681b      	ldr	r3, [r3, #0]
 8006310:	6d5a      	ldr	r2, [r3, #84]	; 0x54
 8006312:	68fb      	ldr	r3, [r7, #12]
 8006314:	681b      	ldr	r3, [r3, #0]
 8006316:	2104      	movs	r1, #4
 8006318:	438a      	bics	r2, r1
 800631a:	655a      	str	r2, [r3, #84]	; 0x54
      htim->Instance->CCMR3 |= sConfig->OCFastMode;
 800631c:	68fb      	ldr	r3, [r7, #12]
 800631e:	681b      	ldr	r3, [r3, #0]
 8006320:	6d59      	ldr	r1, [r3, #84]	; 0x54
 8006322:	68bb      	ldr	r3, [r7, #8]
 8006324:	691a      	ldr	r2, [r3, #16]
 8006326:	68fb      	ldr	r3, [r7, #12]
 8006328:	681b      	ldr	r3, [r3, #0]
 800632a:	430a      	orrs	r2, r1
 800632c:	655a      	str	r2, [r3, #84]	; 0x54
      break;
 800632e:	e023      	b.n	8006378 <HAL_TIM_PWM_ConfigChannel+0x1d0>
    {
      /* Check the parameters */
      assert_param(IS_TIM_CC6_INSTANCE(htim->Instance));

      /* Configure the Channel 6 in PWM mode */
      TIM_OC6_SetConfig(htim->Instance, sConfig);
 8006330:	68fb      	ldr	r3, [r7, #12]
 8006332:	681b      	ldr	r3, [r3, #0]
 8006334:	68ba      	ldr	r2, [r7, #8]
 8006336:	0011      	movs	r1, r2
 8006338:	0018      	movs	r0, r3
 800633a:	f000 fb2b 	bl	8006994 <TIM_OC6_SetConfig>

      /* Set the Preload enable bit for channel6 */
      htim->Instance->CCMR3 |= TIM_CCMR3_OC6PE;
 800633e:	68fb      	ldr	r3, [r7, #12]
 8006340:	681b      	ldr	r3, [r3, #0]
 8006342:	6d5a      	ldr	r2, [r3, #84]	; 0x54
 8006344:	68fb      	ldr	r3, [r7, #12]
 8006346:	681b      	ldr	r3, [r3, #0]
 8006348:	2180      	movs	r1, #128	; 0x80
 800634a:	0109      	lsls	r1, r1, #4
 800634c:	430a      	orrs	r2, r1
 800634e:	655a      	str	r2, [r3, #84]	; 0x54

      /* Configure the Output Fast mode */
      htim->Instance->CCMR3 &= ~TIM_CCMR3_OC6FE;
 8006350:	68fb      	ldr	r3, [r7, #12]
 8006352:	681b      	ldr	r3, [r3, #0]
 8006354:	6d5a      	ldr	r2, [r3, #84]	; 0x54
 8006356:	68fb      	ldr	r3, [r7, #12]
 8006358:	681b      	ldr	r3, [r3, #0]
 800635a:	490d      	ldr	r1, [pc, #52]	; (8006390 <HAL_TIM_PWM_ConfigChannel+0x1e8>)
 800635c:	400a      	ands	r2, r1
 800635e:	655a      	str	r2, [r3, #84]	; 0x54
      htim->Instance->CCMR3 |= sConfig->OCFastMode << 8U;
 8006360:	68fb      	ldr	r3, [r7, #12]
 8006362:	681b      	ldr	r3, [r3, #0]
 8006364:	6d59      	ldr	r1, [r3, #84]	; 0x54
 8006366:	68bb      	ldr	r3, [r7, #8]
 8006368:	691b      	ldr	r3, [r3, #16]
 800636a:	021a      	lsls	r2, r3, #8
 800636c:	68fb      	ldr	r3, [r7, #12]
 800636e:	681b      	ldr	r3, [r3, #0]
 8006370:	430a      	orrs	r2, r1
 8006372:	655a      	str	r2, [r3, #84]	; 0x54
      break;
 8006374:	e000      	b.n	8006378 <HAL_TIM_PWM_ConfigChannel+0x1d0>
    }

    default:
      break;
 8006376:	46c0      	nop			; (mov r8, r8)
  }

  __HAL_UNLOCK(htim);
 8006378:	68fb      	ldr	r3, [r7, #12]
 800637a:	223c      	movs	r2, #60	; 0x3c
 800637c:	2100      	movs	r1, #0
 800637e:	5499      	strb	r1, [r3, r2]

  return HAL_OK;
 8006380:	2300      	movs	r3, #0
}
 8006382:	0018      	movs	r0, r3
 8006384:	46bd      	mov	sp, r7
 8006386:	b004      	add	sp, #16
 8006388:	bd80      	pop	{r7, pc}
 800638a:	46c0      	nop			; (mov r8, r8)
 800638c:	08009504 	.word	0x08009504
 8006390:	fffffbff 	.word	0xfffffbff

08006394 <HAL_TIM_OC_DelayElapsedCallback>:
  * @brief  Output Compare callback in non-blocking mode
  * @param  htim TIM OC handle
  * @retval None
  */
__weak void HAL_TIM_OC_DelayElapsedCallback(TIM_HandleTypeDef *htim)
{
 8006394:	b580      	push	{r7, lr}
 8006396:	b082      	sub	sp, #8
 8006398:	af00      	add	r7, sp, #0
 800639a:	6078      	str	r0, [r7, #4]
  UNUSED(htim);

  /* NOTE : This function should not be modified, when the callback is needed,
            the HAL_TIM_OC_DelayElapsedCallback could be implemented in the user file
   */
}
 800639c:	46c0      	nop			; (mov r8, r8)
 800639e:	46bd      	mov	sp, r7
 80063a0:	b002      	add	sp, #8
 80063a2:	bd80      	pop	{r7, pc}

080063a4 <HAL_TIM_IC_CaptureCallback>:
  * @brief  Input Capture callback in non-blocking mode
  * @param  htim TIM IC handle
  * @retval None
  */
__weak void HAL_TIM_IC_CaptureCallback(TIM_HandleTypeDef *htim)
{
 80063a4:	b580      	push	{r7, lr}
 80063a6:	b082      	sub	sp, #8
 80063a8:	af00      	add	r7, sp, #0
 80063aa:	6078      	str	r0, [r7, #4]
  UNUSED(htim);

  /* NOTE : This function should not be modified, when the callback is needed,
            the HAL_TIM_IC_CaptureCallback could be implemented in the user file
   */
}
 80063ac:	46c0      	nop			; (mov r8, r8)
 80063ae:	46bd      	mov	sp, r7
 80063b0:	b002      	add	sp, #8
 80063b2:	bd80      	pop	{r7, pc}

080063b4 <HAL_TIM_PWM_PulseFinishedCallback>:
  * @brief  PWM Pulse finished callback in non-blocking mode
  * @param  htim TIM handle
  * @retval None
  */
__weak void HAL_TIM_PWM_PulseFinishedCallback(TIM_HandleTypeDef *htim)
{
 80063b4:	b580      	push	{r7, lr}
 80063b6:	b082      	sub	sp, #8
 80063b8:	af00      	add	r7, sp, #0
 80063ba:	6078      	str	r0, [r7, #4]
  UNUSED(htim);

  /* NOTE : This function should not be modified, when the callback is needed,
            the HAL_TIM_PWM_PulseFinishedCallback could be implemented in the user file
   */
}
 80063bc:	46c0      	nop			; (mov r8, r8)
 80063be:	46bd      	mov	sp, r7
 80063c0:	b002      	add	sp, #8
 80063c2:	bd80      	pop	{r7, pc}

080063c4 <HAL_TIM_TriggerCallback>:
  * @brief  Hall Trigger detection callback in non-blocking mode
  * @param  htim TIM handle
  * @retval None
  */
__weak void HAL_TIM_TriggerCallback(TIM_HandleTypeDef *htim)
{
 80063c4:	b580      	push	{r7, lr}
 80063c6:	b082      	sub	sp, #8
 80063c8:	af00      	add	r7, sp, #0
 80063ca:	6078      	str	r0, [r7, #4]
  UNUSED(htim);

  /* NOTE : This function should not be modified, when the callback is needed,
            the HAL_TIM_TriggerCallback could be implemented in the user file
   */
}
 80063cc:	46c0      	nop			; (mov r8, r8)
 80063ce:	46bd      	mov	sp, r7
 80063d0:	b002      	add	sp, #8
 80063d2:	bd80      	pop	{r7, pc}

080063d4 <TIM_Base_SetConfig>:
  * @param  TIMx TIM peripheral
  * @param  Structure TIM Base configuration structure
  * @retval None
  */
void TIM_Base_SetConfig(TIM_TypeDef *TIMx, TIM_Base_InitTypeDef *Structure)
{
 80063d4:	b580      	push	{r7, lr}
 80063d6:	b084      	sub	sp, #16
 80063d8:	af00      	add	r7, sp, #0
 80063da:	6078      	str	r0, [r7, #4]
 80063dc:	6039      	str	r1, [r7, #0]
  uint32_t tmpcr1;
  tmpcr1 = TIMx->CR1;
 80063de:	687b      	ldr	r3, [r7, #4]
 80063e0:	681b      	ldr	r3, [r3, #0]
 80063e2:	60fb      	str	r3, [r7, #12]

  /* Set TIM Time Base Unit parameters ---------------------------------------*/
  if (IS_TIM_COUNTER_MODE_SELECT_INSTANCE(TIMx))
 80063e4:	687b      	ldr	r3, [r7, #4]
 80063e6:	4a34      	ldr	r2, [pc, #208]	; (80064b8 <TIM_Base_SetConfig+0xe4>)
 80063e8:	4293      	cmp	r3, r2
 80063ea:	d008      	beq.n	80063fe <TIM_Base_SetConfig+0x2a>
 80063ec:	687a      	ldr	r2, [r7, #4]
 80063ee:	2380      	movs	r3, #128	; 0x80
 80063f0:	05db      	lsls	r3, r3, #23
 80063f2:	429a      	cmp	r2, r3
 80063f4:	d003      	beq.n	80063fe <TIM_Base_SetConfig+0x2a>
 80063f6:	687b      	ldr	r3, [r7, #4]
 80063f8:	4a30      	ldr	r2, [pc, #192]	; (80064bc <TIM_Base_SetConfig+0xe8>)
 80063fa:	4293      	cmp	r3, r2
 80063fc:	d108      	bne.n	8006410 <TIM_Base_SetConfig+0x3c>
  {
    /* Select the Counter Mode */
    tmpcr1 &= ~(TIM_CR1_DIR | TIM_CR1_CMS);
 80063fe:	68fb      	ldr	r3, [r7, #12]
 8006400:	2270      	movs	r2, #112	; 0x70
 8006402:	4393      	bics	r3, r2
 8006404:	60fb      	str	r3, [r7, #12]
    tmpcr1 |= Structure->CounterMode;
 8006406:	683b      	ldr	r3, [r7, #0]
 8006408:	685b      	ldr	r3, [r3, #4]
 800640a:	68fa      	ldr	r2, [r7, #12]
 800640c:	4313      	orrs	r3, r2
 800640e:	60fb      	str	r3, [r7, #12]
  }

  if (IS_TIM_CLOCK_DIVISION_INSTANCE(TIMx))
 8006410:	687b      	ldr	r3, [r7, #4]
 8006412:	4a29      	ldr	r2, [pc, #164]	; (80064b8 <TIM_Base_SetConfig+0xe4>)
 8006414:	4293      	cmp	r3, r2
 8006416:	d018      	beq.n	800644a <TIM_Base_SetConfig+0x76>
 8006418:	687a      	ldr	r2, [r7, #4]
 800641a:	2380      	movs	r3, #128	; 0x80
 800641c:	05db      	lsls	r3, r3, #23
 800641e:	429a      	cmp	r2, r3
 8006420:	d013      	beq.n	800644a <TIM_Base_SetConfig+0x76>
 8006422:	687b      	ldr	r3, [r7, #4]
 8006424:	4a25      	ldr	r2, [pc, #148]	; (80064bc <TIM_Base_SetConfig+0xe8>)
 8006426:	4293      	cmp	r3, r2
 8006428:	d00f      	beq.n	800644a <TIM_Base_SetConfig+0x76>
 800642a:	687b      	ldr	r3, [r7, #4]
 800642c:	4a24      	ldr	r2, [pc, #144]	; (80064c0 <TIM_Base_SetConfig+0xec>)
 800642e:	4293      	cmp	r3, r2
 8006430:	d00b      	beq.n	800644a <TIM_Base_SetConfig+0x76>
 8006432:	687b      	ldr	r3, [r7, #4]
 8006434:	4a23      	ldr	r2, [pc, #140]	; (80064c4 <TIM_Base_SetConfig+0xf0>)
 8006436:	4293      	cmp	r3, r2
 8006438:	d007      	beq.n	800644a <TIM_Base_SetConfig+0x76>
 800643a:	687b      	ldr	r3, [r7, #4]
 800643c:	4a22      	ldr	r2, [pc, #136]	; (80064c8 <TIM_Base_SetConfig+0xf4>)
 800643e:	4293      	cmp	r3, r2
 8006440:	d003      	beq.n	800644a <TIM_Base_SetConfig+0x76>
 8006442:	687b      	ldr	r3, [r7, #4]
 8006444:	4a21      	ldr	r2, [pc, #132]	; (80064cc <TIM_Base_SetConfig+0xf8>)
 8006446:	4293      	cmp	r3, r2
 8006448:	d108      	bne.n	800645c <TIM_Base_SetConfig+0x88>
  {
    /* Set the clock division */
    tmpcr1 &= ~TIM_CR1_CKD;
 800644a:	68fb      	ldr	r3, [r7, #12]
 800644c:	4a20      	ldr	r2, [pc, #128]	; (80064d0 <TIM_Base_SetConfig+0xfc>)
 800644e:	4013      	ands	r3, r2
 8006450:	60fb      	str	r3, [r7, #12]
    tmpcr1 |= (uint32_t)Structure->ClockDivision;
 8006452:	683b      	ldr	r3, [r7, #0]
 8006454:	68db      	ldr	r3, [r3, #12]
 8006456:	68fa      	ldr	r2, [r7, #12]
 8006458:	4313      	orrs	r3, r2
 800645a:	60fb      	str	r3, [r7, #12]
  }

  /* Set the auto-reload preload */
  MODIFY_REG(tmpcr1, TIM_CR1_ARPE, Structure->AutoReloadPreload);
 800645c:	68fb      	ldr	r3, [r7, #12]
 800645e:	2280      	movs	r2, #128	; 0x80
 8006460:	4393      	bics	r3, r2
 8006462:	001a      	movs	r2, r3
 8006464:	683b      	ldr	r3, [r7, #0]
 8006466:	695b      	ldr	r3, [r3, #20]
 8006468:	4313      	orrs	r3, r2
 800646a:	60fb      	str	r3, [r7, #12]

  TIMx->CR1 = tmpcr1;
 800646c:	687b      	ldr	r3, [r7, #4]
 800646e:	68fa      	ldr	r2, [r7, #12]
 8006470:	601a      	str	r2, [r3, #0]

  /* Set the Autoreload value */
  TIMx->ARR = (uint32_t)Structure->Period ;
 8006472:	683b      	ldr	r3, [r7, #0]
 8006474:	689a      	ldr	r2, [r3, #8]
 8006476:	687b      	ldr	r3, [r7, #4]
 8006478:	62da      	str	r2, [r3, #44]	; 0x2c

  /* Set the Prescaler value */
  TIMx->PSC = Structure->Prescaler;
 800647a:	683b      	ldr	r3, [r7, #0]
 800647c:	681a      	ldr	r2, [r3, #0]
 800647e:	687b      	ldr	r3, [r7, #4]
 8006480:	629a      	str	r2, [r3, #40]	; 0x28

  if (IS_TIM_REPETITION_COUNTER_INSTANCE(TIMx))
 8006482:	687b      	ldr	r3, [r7, #4]
 8006484:	4a0c      	ldr	r2, [pc, #48]	; (80064b8 <TIM_Base_SetConfig+0xe4>)
 8006486:	4293      	cmp	r3, r2
 8006488:	d00b      	beq.n	80064a2 <TIM_Base_SetConfig+0xce>
 800648a:	687b      	ldr	r3, [r7, #4]
 800648c:	4a0d      	ldr	r2, [pc, #52]	; (80064c4 <TIM_Base_SetConfig+0xf0>)
 800648e:	4293      	cmp	r3, r2
 8006490:	d007      	beq.n	80064a2 <TIM_Base_SetConfig+0xce>
 8006492:	687b      	ldr	r3, [r7, #4]
 8006494:	4a0c      	ldr	r2, [pc, #48]	; (80064c8 <TIM_Base_SetConfig+0xf4>)
 8006496:	4293      	cmp	r3, r2
 8006498:	d003      	beq.n	80064a2 <TIM_Base_SetConfig+0xce>
 800649a:	687b      	ldr	r3, [r7, #4]
 800649c:	4a0b      	ldr	r2, [pc, #44]	; (80064cc <TIM_Base_SetConfig+0xf8>)
 800649e:	4293      	cmp	r3, r2
 80064a0:	d103      	bne.n	80064aa <TIM_Base_SetConfig+0xd6>
  {
    /* Set the Repetition Counter value */
    TIMx->RCR = Structure->RepetitionCounter;
 80064a2:	683b      	ldr	r3, [r7, #0]
 80064a4:	691a      	ldr	r2, [r3, #16]
 80064a6:	687b      	ldr	r3, [r7, #4]
 80064a8:	631a      	str	r2, [r3, #48]	; 0x30
  }

  /* Generate an update event to reload the Prescaler
     and the repetition counter (only for advanced timer) value immediately */
  TIMx->EGR = TIM_EGR_UG;
 80064aa:	687b      	ldr	r3, [r7, #4]
 80064ac:	2201      	movs	r2, #1
 80064ae:	615a      	str	r2, [r3, #20]
}
 80064b0:	46c0      	nop			; (mov r8, r8)
 80064b2:	46bd      	mov	sp, r7
 80064b4:	b004      	add	sp, #16
 80064b6:	bd80      	pop	{r7, pc}
 80064b8:	40012c00 	.word	0x40012c00
 80064bc:	40000400 	.word	0x40000400
 80064c0:	40002000 	.word	0x40002000
 80064c4:	40014000 	.word	0x40014000
 80064c8:	40014400 	.word	0x40014400
 80064cc:	40014800 	.word	0x40014800
 80064d0:	fffffcff 	.word	0xfffffcff

080064d4 <TIM_OC1_SetConfig>:
  * @param  TIMx to select the TIM peripheral
  * @param  OC_Config The output configuration structure
  * @retval None
  */
static void TIM_OC1_SetConfig(TIM_TypeDef *TIMx, TIM_OC_InitTypeDef *OC_Config)
{
 80064d4:	b580      	push	{r7, lr}
 80064d6:	b086      	sub	sp, #24
 80064d8:	af00      	add	r7, sp, #0
 80064da:	6078      	str	r0, [r7, #4]
 80064dc:	6039      	str	r1, [r7, #0]
  uint32_t tmpccmrx;
  uint32_t tmpccer;
  uint32_t tmpcr2;

  /* Disable the Channel 1: Reset the CC1E Bit */
  TIMx->CCER &= ~TIM_CCER_CC1E;
 80064de:	687b      	ldr	r3, [r7, #4]
 80064e0:	6a1b      	ldr	r3, [r3, #32]
 80064e2:	2201      	movs	r2, #1
 80064e4:	4393      	bics	r3, r2
 80064e6:	001a      	movs	r2, r3
 80064e8:	687b      	ldr	r3, [r7, #4]
 80064ea:	621a      	str	r2, [r3, #32]

  /* Get the TIMx CCER register value */
  tmpccer = TIMx->CCER;
 80064ec:	687b      	ldr	r3, [r7, #4]
 80064ee:	6a1b      	ldr	r3, [r3, #32]
 80064f0:	617b      	str	r3, [r7, #20]
  /* Get the TIMx CR2 register value */
  tmpcr2 =  TIMx->CR2;
 80064f2:	687b      	ldr	r3, [r7, #4]
 80064f4:	685b      	ldr	r3, [r3, #4]
 80064f6:	613b      	str	r3, [r7, #16]

  /* Get the TIMx CCMR1 register value */
  tmpccmrx = TIMx->CCMR1;
 80064f8:	687b      	ldr	r3, [r7, #4]
 80064fa:	699b      	ldr	r3, [r3, #24]
 80064fc:	60fb      	str	r3, [r7, #12]

  /* Reset the Output Compare Mode Bits */
  tmpccmrx &= ~TIM_CCMR1_OC1M;
 80064fe:	68fb      	ldr	r3, [r7, #12]
 8006500:	4a32      	ldr	r2, [pc, #200]	; (80065cc <TIM_OC1_SetConfig+0xf8>)
 8006502:	4013      	ands	r3, r2
 8006504:	60fb      	str	r3, [r7, #12]
  tmpccmrx &= ~TIM_CCMR1_CC1S;
 8006506:	68fb      	ldr	r3, [r7, #12]
 8006508:	2203      	movs	r2, #3
 800650a:	4393      	bics	r3, r2
 800650c:	60fb      	str	r3, [r7, #12]
  /* Select the Output Compare Mode */
  tmpccmrx |= OC_Config->OCMode;
 800650e:	683b      	ldr	r3, [r7, #0]
 8006510:	681b      	ldr	r3, [r3, #0]
 8006512:	68fa      	ldr	r2, [r7, #12]
 8006514:	4313      	orrs	r3, r2
 8006516:	60fb      	str	r3, [r7, #12]

  /* Reset the Output Polarity level */
  tmpccer &= ~TIM_CCER_CC1P;
 8006518:	697b      	ldr	r3, [r7, #20]
 800651a:	2202      	movs	r2, #2
 800651c:	4393      	bics	r3, r2
 800651e:	617b      	str	r3, [r7, #20]
  /* Set the Output Compare Polarity */
  tmpccer |= OC_Config->OCPolarity;
 8006520:	683b      	ldr	r3, [r7, #0]
 8006522:	689b      	ldr	r3, [r3, #8]
 8006524:	697a      	ldr	r2, [r7, #20]
 8006526:	4313      	orrs	r3, r2
 8006528:	617b      	str	r3, [r7, #20]

  if (IS_TIM_CCXN_INSTANCE(TIMx, TIM_CHANNEL_1))
 800652a:	687b      	ldr	r3, [r7, #4]
 800652c:	4a28      	ldr	r2, [pc, #160]	; (80065d0 <TIM_OC1_SetConfig+0xfc>)
 800652e:	4293      	cmp	r3, r2
 8006530:	d00b      	beq.n	800654a <TIM_OC1_SetConfig+0x76>
 8006532:	687b      	ldr	r3, [r7, #4]
 8006534:	4a27      	ldr	r2, [pc, #156]	; (80065d4 <TIM_OC1_SetConfig+0x100>)
 8006536:	4293      	cmp	r3, r2
 8006538:	d007      	beq.n	800654a <TIM_OC1_SetConfig+0x76>
 800653a:	687b      	ldr	r3, [r7, #4]
 800653c:	4a26      	ldr	r2, [pc, #152]	; (80065d8 <TIM_OC1_SetConfig+0x104>)
 800653e:	4293      	cmp	r3, r2
 8006540:	d003      	beq.n	800654a <TIM_OC1_SetConfig+0x76>
 8006542:	687b      	ldr	r3, [r7, #4]
 8006544:	4a25      	ldr	r2, [pc, #148]	; (80065dc <TIM_OC1_SetConfig+0x108>)
 8006546:	4293      	cmp	r3, r2
 8006548:	d10c      	bne.n	8006564 <TIM_OC1_SetConfig+0x90>
  {
    /* Check parameters */
    assert_param(IS_TIM_OCN_POLARITY(OC_Config->OCNPolarity));

    /* Reset the Output N Polarity level */
    tmpccer &= ~TIM_CCER_CC1NP;
 800654a:	697b      	ldr	r3, [r7, #20]
 800654c:	2208      	movs	r2, #8
 800654e:	4393      	bics	r3, r2
 8006550:	617b      	str	r3, [r7, #20]
    /* Set the Output N Polarity */
    tmpccer |= OC_Config->OCNPolarity;
 8006552:	683b      	ldr	r3, [r7, #0]
 8006554:	68db      	ldr	r3, [r3, #12]
 8006556:	697a      	ldr	r2, [r7, #20]
 8006558:	4313      	orrs	r3, r2
 800655a:	617b      	str	r3, [r7, #20]
    /* Reset the Output N State */
    tmpccer &= ~TIM_CCER_CC1NE;
 800655c:	697b      	ldr	r3, [r7, #20]
 800655e:	2204      	movs	r2, #4
 8006560:	4393      	bics	r3, r2
 8006562:	617b      	str	r3, [r7, #20]
  }

  if (IS_TIM_BREAK_INSTANCE(TIMx))
 8006564:	687b      	ldr	r3, [r7, #4]
 8006566:	4a1a      	ldr	r2, [pc, #104]	; (80065d0 <TIM_OC1_SetConfig+0xfc>)
 8006568:	4293      	cmp	r3, r2
 800656a:	d00b      	beq.n	8006584 <TIM_OC1_SetConfig+0xb0>
 800656c:	687b      	ldr	r3, [r7, #4]
 800656e:	4a19      	ldr	r2, [pc, #100]	; (80065d4 <TIM_OC1_SetConfig+0x100>)
 8006570:	4293      	cmp	r3, r2
 8006572:	d007      	beq.n	8006584 <TIM_OC1_SetConfig+0xb0>
 8006574:	687b      	ldr	r3, [r7, #4]
 8006576:	4a18      	ldr	r2, [pc, #96]	; (80065d8 <TIM_OC1_SetConfig+0x104>)
 8006578:	4293      	cmp	r3, r2
 800657a:	d003      	beq.n	8006584 <TIM_OC1_SetConfig+0xb0>
 800657c:	687b      	ldr	r3, [r7, #4]
 800657e:	4a17      	ldr	r2, [pc, #92]	; (80065dc <TIM_OC1_SetConfig+0x108>)
 8006580:	4293      	cmp	r3, r2
 8006582:	d111      	bne.n	80065a8 <TIM_OC1_SetConfig+0xd4>
    /* Check parameters */
    assert_param(IS_TIM_OCNIDLE_STATE(OC_Config->OCNIdleState));
    assert_param(IS_TIM_OCIDLE_STATE(OC_Config->OCIdleState));

    /* Reset the Output Compare and Output Compare N IDLE State */
    tmpcr2 &= ~TIM_CR2_OIS1;
 8006584:	693b      	ldr	r3, [r7, #16]
 8006586:	4a16      	ldr	r2, [pc, #88]	; (80065e0 <TIM_OC1_SetConfig+0x10c>)
 8006588:	4013      	ands	r3, r2
 800658a:	613b      	str	r3, [r7, #16]
    tmpcr2 &= ~TIM_CR2_OIS1N;
 800658c:	693b      	ldr	r3, [r7, #16]
 800658e:	4a15      	ldr	r2, [pc, #84]	; (80065e4 <TIM_OC1_SetConfig+0x110>)
 8006590:	4013      	ands	r3, r2
 8006592:	613b      	str	r3, [r7, #16]
    /* Set the Output Idle state */
    tmpcr2 |= OC_Config->OCIdleState;
 8006594:	683b      	ldr	r3, [r7, #0]
 8006596:	695b      	ldr	r3, [r3, #20]
 8006598:	693a      	ldr	r2, [r7, #16]
 800659a:	4313      	orrs	r3, r2
 800659c:	613b      	str	r3, [r7, #16]
    /* Set the Output N Idle state */
    tmpcr2 |= OC_Config->OCNIdleState;
 800659e:	683b      	ldr	r3, [r7, #0]
 80065a0:	699b      	ldr	r3, [r3, #24]
 80065a2:	693a      	ldr	r2, [r7, #16]
 80065a4:	4313      	orrs	r3, r2
 80065a6:	613b      	str	r3, [r7, #16]
  }

  /* Write to TIMx CR2 */
  TIMx->CR2 = tmpcr2;
 80065a8:	687b      	ldr	r3, [r7, #4]
 80065aa:	693a      	ldr	r2, [r7, #16]
 80065ac:	605a      	str	r2, [r3, #4]

  /* Write to TIMx CCMR1 */
  TIMx->CCMR1 = tmpccmrx;
 80065ae:	687b      	ldr	r3, [r7, #4]
 80065b0:	68fa      	ldr	r2, [r7, #12]
 80065b2:	619a      	str	r2, [r3, #24]

  /* Set the Capture Compare Register value */
  TIMx->CCR1 = OC_Config->Pulse;
 80065b4:	683b      	ldr	r3, [r7, #0]
 80065b6:	685a      	ldr	r2, [r3, #4]
 80065b8:	687b      	ldr	r3, [r7, #4]
 80065ba:	635a      	str	r2, [r3, #52]	; 0x34

  /* Write to TIMx CCER */
  TIMx->CCER = tmpccer;
 80065bc:	687b      	ldr	r3, [r7, #4]
 80065be:	697a      	ldr	r2, [r7, #20]
 80065c0:	621a      	str	r2, [r3, #32]
}
 80065c2:	46c0      	nop			; (mov r8, r8)
 80065c4:	46bd      	mov	sp, r7
 80065c6:	b006      	add	sp, #24
 80065c8:	bd80      	pop	{r7, pc}
 80065ca:	46c0      	nop			; (mov r8, r8)
 80065cc:	fffeff8f 	.word	0xfffeff8f
 80065d0:	40012c00 	.word	0x40012c00
 80065d4:	40014000 	.word	0x40014000
 80065d8:	40014400 	.word	0x40014400
 80065dc:	40014800 	.word	0x40014800
 80065e0:	fffffeff 	.word	0xfffffeff
 80065e4:	fffffdff 	.word	0xfffffdff

080065e8 <TIM_OC2_SetConfig>:
  * @param  TIMx to select the TIM peripheral
  * @param  OC_Config The output configuration structure
  * @retval None
  */
void TIM_OC2_SetConfig(TIM_TypeDef *TIMx, TIM_OC_InitTypeDef *OC_Config)
{
 80065e8:	b580      	push	{r7, lr}
 80065ea:	b086      	sub	sp, #24
 80065ec:	af00      	add	r7, sp, #0
 80065ee:	6078      	str	r0, [r7, #4]
 80065f0:	6039      	str	r1, [r7, #0]
  uint32_t tmpccmrx;
  uint32_t tmpccer;
  uint32_t tmpcr2;

  /* Disable the Channel 2: Reset the CC2E Bit */
  TIMx->CCER &= ~TIM_CCER_CC2E;
 80065f2:	687b      	ldr	r3, [r7, #4]
 80065f4:	6a1b      	ldr	r3, [r3, #32]
 80065f6:	2210      	movs	r2, #16
 80065f8:	4393      	bics	r3, r2
 80065fa:	001a      	movs	r2, r3
 80065fc:	687b      	ldr	r3, [r7, #4]
 80065fe:	621a      	str	r2, [r3, #32]

  /* Get the TIMx CCER register value */
  tmpccer = TIMx->CCER;
 8006600:	687b      	ldr	r3, [r7, #4]
 8006602:	6a1b      	ldr	r3, [r3, #32]
 8006604:	617b      	str	r3, [r7, #20]
  /* Get the TIMx CR2 register value */
  tmpcr2 =  TIMx->CR2;
 8006606:	687b      	ldr	r3, [r7, #4]
 8006608:	685b      	ldr	r3, [r3, #4]
 800660a:	613b      	str	r3, [r7, #16]

  /* Get the TIMx CCMR1 register value */
  tmpccmrx = TIMx->CCMR1;
 800660c:	687b      	ldr	r3, [r7, #4]
 800660e:	699b      	ldr	r3, [r3, #24]
 8006610:	60fb      	str	r3, [r7, #12]

  /* Reset the Output Compare mode and Capture/Compare selection Bits */
  tmpccmrx &= ~TIM_CCMR1_OC2M;
 8006612:	68fb      	ldr	r3, [r7, #12]
 8006614:	4a2e      	ldr	r2, [pc, #184]	; (80066d0 <TIM_OC2_SetConfig+0xe8>)
 8006616:	4013      	ands	r3, r2
 8006618:	60fb      	str	r3, [r7, #12]
  tmpccmrx &= ~TIM_CCMR1_CC2S;
 800661a:	68fb      	ldr	r3, [r7, #12]
 800661c:	4a2d      	ldr	r2, [pc, #180]	; (80066d4 <TIM_OC2_SetConfig+0xec>)
 800661e:	4013      	ands	r3, r2
 8006620:	60fb      	str	r3, [r7, #12]

  /* Select the Output Compare Mode */
  tmpccmrx |= (OC_Config->OCMode << 8U);
 8006622:	683b      	ldr	r3, [r7, #0]
 8006624:	681b      	ldr	r3, [r3, #0]
 8006626:	021b      	lsls	r3, r3, #8
 8006628:	68fa      	ldr	r2, [r7, #12]
 800662a:	4313      	orrs	r3, r2
 800662c:	60fb      	str	r3, [r7, #12]

  /* Reset the Output Polarity level */
  tmpccer &= ~TIM_CCER_CC2P;
 800662e:	697b      	ldr	r3, [r7, #20]
 8006630:	2220      	movs	r2, #32
 8006632:	4393      	bics	r3, r2
 8006634:	617b      	str	r3, [r7, #20]
  /* Set the Output Compare Polarity */
  tmpccer |= (OC_Config->OCPolarity << 4U);
 8006636:	683b      	ldr	r3, [r7, #0]
 8006638:	689b      	ldr	r3, [r3, #8]
 800663a:	011b      	lsls	r3, r3, #4
 800663c:	697a      	ldr	r2, [r7, #20]
 800663e:	4313      	orrs	r3, r2
 8006640:	617b      	str	r3, [r7, #20]

  if (IS_TIM_CCXN_INSTANCE(TIMx, TIM_CHANNEL_2))
 8006642:	687b      	ldr	r3, [r7, #4]
 8006644:	4a24      	ldr	r2, [pc, #144]	; (80066d8 <TIM_OC2_SetConfig+0xf0>)
 8006646:	4293      	cmp	r3, r2
 8006648:	d10d      	bne.n	8006666 <TIM_OC2_SetConfig+0x7e>
  {
    assert_param(IS_TIM_OCN_POLARITY(OC_Config->OCNPolarity));

    /* Reset the Output N Polarity level */
    tmpccer &= ~TIM_CCER_CC2NP;
 800664a:	697b      	ldr	r3, [r7, #20]
 800664c:	2280      	movs	r2, #128	; 0x80
 800664e:	4393      	bics	r3, r2
 8006650:	617b      	str	r3, [r7, #20]
    /* Set the Output N Polarity */
    tmpccer |= (OC_Config->OCNPolarity << 4U);
 8006652:	683b      	ldr	r3, [r7, #0]
 8006654:	68db      	ldr	r3, [r3, #12]
 8006656:	011b      	lsls	r3, r3, #4
 8006658:	697a      	ldr	r2, [r7, #20]
 800665a:	4313      	orrs	r3, r2
 800665c:	617b      	str	r3, [r7, #20]
    /* Reset the Output N State */
    tmpccer &= ~TIM_CCER_CC2NE;
 800665e:	697b      	ldr	r3, [r7, #20]
 8006660:	2240      	movs	r2, #64	; 0x40
 8006662:	4393      	bics	r3, r2
 8006664:	617b      	str	r3, [r7, #20]

  }

  if (IS_TIM_BREAK_INSTANCE(TIMx))
 8006666:	687b      	ldr	r3, [r7, #4]
 8006668:	4a1b      	ldr	r2, [pc, #108]	; (80066d8 <TIM_OC2_SetConfig+0xf0>)
 800666a:	4293      	cmp	r3, r2
 800666c:	d00b      	beq.n	8006686 <TIM_OC2_SetConfig+0x9e>
 800666e:	687b      	ldr	r3, [r7, #4]
 8006670:	4a1a      	ldr	r2, [pc, #104]	; (80066dc <TIM_OC2_SetConfig+0xf4>)
 8006672:	4293      	cmp	r3, r2
 8006674:	d007      	beq.n	8006686 <TIM_OC2_SetConfig+0x9e>
 8006676:	687b      	ldr	r3, [r7, #4]
 8006678:	4a19      	ldr	r2, [pc, #100]	; (80066e0 <TIM_OC2_SetConfig+0xf8>)
 800667a:	4293      	cmp	r3, r2
 800667c:	d003      	beq.n	8006686 <TIM_OC2_SetConfig+0x9e>
 800667e:	687b      	ldr	r3, [r7, #4]
 8006680:	4a18      	ldr	r2, [pc, #96]	; (80066e4 <TIM_OC2_SetConfig+0xfc>)
 8006682:	4293      	cmp	r3, r2
 8006684:	d113      	bne.n	80066ae <TIM_OC2_SetConfig+0xc6>
    /* Check parameters */
    assert_param(IS_TIM_OCNIDLE_STATE(OC_Config->OCNIdleState));
    assert_param(IS_TIM_OCIDLE_STATE(OC_Config->OCIdleState));

    /* Reset the Output Compare and Output Compare N IDLE State */
    tmpcr2 &= ~TIM_CR2_OIS2;
 8006686:	693b      	ldr	r3, [r7, #16]
 8006688:	4a17      	ldr	r2, [pc, #92]	; (80066e8 <TIM_OC2_SetConfig+0x100>)
 800668a:	4013      	ands	r3, r2
 800668c:	613b      	str	r3, [r7, #16]
    tmpcr2 &= ~TIM_CR2_OIS2N;
 800668e:	693b      	ldr	r3, [r7, #16]
 8006690:	4a16      	ldr	r2, [pc, #88]	; (80066ec <TIM_OC2_SetConfig+0x104>)
 8006692:	4013      	ands	r3, r2
 8006694:	613b      	str	r3, [r7, #16]
    /* Set the Output Idle state */
    tmpcr2 |= (OC_Config->OCIdleState << 2U);
 8006696:	683b      	ldr	r3, [r7, #0]
 8006698:	695b      	ldr	r3, [r3, #20]
 800669a:	009b      	lsls	r3, r3, #2
 800669c:	693a      	ldr	r2, [r7, #16]
 800669e:	4313      	orrs	r3, r2
 80066a0:	613b      	str	r3, [r7, #16]
    /* Set the Output N Idle state */
    tmpcr2 |= (OC_Config->OCNIdleState << 2U);
 80066a2:	683b      	ldr	r3, [r7, #0]
 80066a4:	699b      	ldr	r3, [r3, #24]
 80066a6:	009b      	lsls	r3, r3, #2
 80066a8:	693a      	ldr	r2, [r7, #16]
 80066aa:	4313      	orrs	r3, r2
 80066ac:	613b      	str	r3, [r7, #16]
  }

  /* Write to TIMx CR2 */
  TIMx->CR2 = tmpcr2;
 80066ae:	687b      	ldr	r3, [r7, #4]
 80066b0:	693a      	ldr	r2, [r7, #16]
 80066b2:	605a      	str	r2, [r3, #4]

  /* Write to TIMx CCMR1 */
  TIMx->CCMR1 = tmpccmrx;
 80066b4:	687b      	ldr	r3, [r7, #4]
 80066b6:	68fa      	ldr	r2, [r7, #12]
 80066b8:	619a      	str	r2, [r3, #24]

  /* Set the Capture Compare Register value */
  TIMx->CCR2 = OC_Config->Pulse;
 80066ba:	683b      	ldr	r3, [r7, #0]
 80066bc:	685a      	ldr	r2, [r3, #4]
 80066be:	687b      	ldr	r3, [r7, #4]
 80066c0:	639a      	str	r2, [r3, #56]	; 0x38

  /* Write to TIMx CCER */
  TIMx->CCER = tmpccer;
 80066c2:	687b      	ldr	r3, [r7, #4]
 80066c4:	697a      	ldr	r2, [r7, #20]
 80066c6:	621a      	str	r2, [r3, #32]
}
 80066c8:	46c0      	nop			; (mov r8, r8)
 80066ca:	46bd      	mov	sp, r7
 80066cc:	b006      	add	sp, #24
 80066ce:	bd80      	pop	{r7, pc}
 80066d0:	feff8fff 	.word	0xfeff8fff
 80066d4:	fffffcff 	.word	0xfffffcff
 80066d8:	40012c00 	.word	0x40012c00
 80066dc:	40014000 	.word	0x40014000
 80066e0:	40014400 	.word	0x40014400
 80066e4:	40014800 	.word	0x40014800
 80066e8:	fffffbff 	.word	0xfffffbff
 80066ec:	fffff7ff 	.word	0xfffff7ff

080066f0 <TIM_OC3_SetConfig>:
  * @param  TIMx to select the TIM peripheral
  * @param  OC_Config The output configuration structure
  * @retval None
  */
static void TIM_OC3_SetConfig(TIM_TypeDef *TIMx, TIM_OC_InitTypeDef *OC_Config)
{
 80066f0:	b580      	push	{r7, lr}
 80066f2:	b086      	sub	sp, #24
 80066f4:	af00      	add	r7, sp, #0
 80066f6:	6078      	str	r0, [r7, #4]
 80066f8:	6039      	str	r1, [r7, #0]
  uint32_t tmpccmrx;
  uint32_t tmpccer;
  uint32_t tmpcr2;

  /* Disable the Channel 3: Reset the CC2E Bit */
  TIMx->CCER &= ~TIM_CCER_CC3E;
 80066fa:	687b      	ldr	r3, [r7, #4]
 80066fc:	6a1b      	ldr	r3, [r3, #32]
 80066fe:	4a35      	ldr	r2, [pc, #212]	; (80067d4 <TIM_OC3_SetConfig+0xe4>)
 8006700:	401a      	ands	r2, r3
 8006702:	687b      	ldr	r3, [r7, #4]
 8006704:	621a      	str	r2, [r3, #32]

  /* Get the TIMx CCER register value */
  tmpccer = TIMx->CCER;
 8006706:	687b      	ldr	r3, [r7, #4]
 8006708:	6a1b      	ldr	r3, [r3, #32]
 800670a:	617b      	str	r3, [r7, #20]
  /* Get the TIMx CR2 register value */
  tmpcr2 =  TIMx->CR2;
 800670c:	687b      	ldr	r3, [r7, #4]
 800670e:	685b      	ldr	r3, [r3, #4]
 8006710:	613b      	str	r3, [r7, #16]

  /* Get the TIMx CCMR2 register value */
  tmpccmrx = TIMx->CCMR2;
 8006712:	687b      	ldr	r3, [r7, #4]
 8006714:	69db      	ldr	r3, [r3, #28]
 8006716:	60fb      	str	r3, [r7, #12]

  /* Reset the Output Compare mode and Capture/Compare selection Bits */
  tmpccmrx &= ~TIM_CCMR2_OC3M;
 8006718:	68fb      	ldr	r3, [r7, #12]
 800671a:	4a2f      	ldr	r2, [pc, #188]	; (80067d8 <TIM_OC3_SetConfig+0xe8>)
 800671c:	4013      	ands	r3, r2
 800671e:	60fb      	str	r3, [r7, #12]
  tmpccmrx &= ~TIM_CCMR2_CC3S;
 8006720:	68fb      	ldr	r3, [r7, #12]
 8006722:	2203      	movs	r2, #3
 8006724:	4393      	bics	r3, r2
 8006726:	60fb      	str	r3, [r7, #12]
  /* Select the Output Compare Mode */
  tmpccmrx |= OC_Config->OCMode;
 8006728:	683b      	ldr	r3, [r7, #0]
 800672a:	681b      	ldr	r3, [r3, #0]
 800672c:	68fa      	ldr	r2, [r7, #12]
 800672e:	4313      	orrs	r3, r2
 8006730:	60fb      	str	r3, [r7, #12]

  /* Reset the Output Polarity level */
  tmpccer &= ~TIM_CCER_CC3P;
 8006732:	697b      	ldr	r3, [r7, #20]
 8006734:	4a29      	ldr	r2, [pc, #164]	; (80067dc <TIM_OC3_SetConfig+0xec>)
 8006736:	4013      	ands	r3, r2
 8006738:	617b      	str	r3, [r7, #20]
  /* Set the Output Compare Polarity */
  tmpccer |= (OC_Config->OCPolarity << 8U);
 800673a:	683b      	ldr	r3, [r7, #0]
 800673c:	689b      	ldr	r3, [r3, #8]
 800673e:	021b      	lsls	r3, r3, #8
 8006740:	697a      	ldr	r2, [r7, #20]
 8006742:	4313      	orrs	r3, r2
 8006744:	617b      	str	r3, [r7, #20]

  if (IS_TIM_CCXN_INSTANCE(TIMx, TIM_CHANNEL_3))
 8006746:	687b      	ldr	r3, [r7, #4]
 8006748:	4a25      	ldr	r2, [pc, #148]	; (80067e0 <TIM_OC3_SetConfig+0xf0>)
 800674a:	4293      	cmp	r3, r2
 800674c:	d10d      	bne.n	800676a <TIM_OC3_SetConfig+0x7a>
  {
    assert_param(IS_TIM_OCN_POLARITY(OC_Config->OCNPolarity));

    /* Reset the Output N Polarity level */
    tmpccer &= ~TIM_CCER_CC3NP;
 800674e:	697b      	ldr	r3, [r7, #20]
 8006750:	4a24      	ldr	r2, [pc, #144]	; (80067e4 <TIM_OC3_SetConfig+0xf4>)
 8006752:	4013      	ands	r3, r2
 8006754:	617b      	str	r3, [r7, #20]
    /* Set the Output N Polarity */
    tmpccer |= (OC_Config->OCNPolarity << 8U);
 8006756:	683b      	ldr	r3, [r7, #0]
 8006758:	68db      	ldr	r3, [r3, #12]
 800675a:	021b      	lsls	r3, r3, #8
 800675c:	697a      	ldr	r2, [r7, #20]
 800675e:	4313      	orrs	r3, r2
 8006760:	617b      	str	r3, [r7, #20]
    /* Reset the Output N State */
    tmpccer &= ~TIM_CCER_CC3NE;
 8006762:	697b      	ldr	r3, [r7, #20]
 8006764:	4a20      	ldr	r2, [pc, #128]	; (80067e8 <TIM_OC3_SetConfig+0xf8>)
 8006766:	4013      	ands	r3, r2
 8006768:	617b      	str	r3, [r7, #20]
  }

  if (IS_TIM_BREAK_INSTANCE(TIMx))
 800676a:	687b      	ldr	r3, [r7, #4]
 800676c:	4a1c      	ldr	r2, [pc, #112]	; (80067e0 <TIM_OC3_SetConfig+0xf0>)
 800676e:	4293      	cmp	r3, r2
 8006770:	d00b      	beq.n	800678a <TIM_OC3_SetConfig+0x9a>
 8006772:	687b      	ldr	r3, [r7, #4]
 8006774:	4a1d      	ldr	r2, [pc, #116]	; (80067ec <TIM_OC3_SetConfig+0xfc>)
 8006776:	4293      	cmp	r3, r2
 8006778:	d007      	beq.n	800678a <TIM_OC3_SetConfig+0x9a>
 800677a:	687b      	ldr	r3, [r7, #4]
 800677c:	4a1c      	ldr	r2, [pc, #112]	; (80067f0 <TIM_OC3_SetConfig+0x100>)
 800677e:	4293      	cmp	r3, r2
 8006780:	d003      	beq.n	800678a <TIM_OC3_SetConfig+0x9a>
 8006782:	687b      	ldr	r3, [r7, #4]
 8006784:	4a1b      	ldr	r2, [pc, #108]	; (80067f4 <TIM_OC3_SetConfig+0x104>)
 8006786:	4293      	cmp	r3, r2
 8006788:	d113      	bne.n	80067b2 <TIM_OC3_SetConfig+0xc2>
    /* Check parameters */
    assert_param(IS_TIM_OCNIDLE_STATE(OC_Config->OCNIdleState));
    assert_param(IS_TIM_OCIDLE_STATE(OC_Config->OCIdleState));

    /* Reset the Output Compare and Output Compare N IDLE State */
    tmpcr2 &= ~TIM_CR2_OIS3;
 800678a:	693b      	ldr	r3, [r7, #16]
 800678c:	4a1a      	ldr	r2, [pc, #104]	; (80067f8 <TIM_OC3_SetConfig+0x108>)
 800678e:	4013      	ands	r3, r2
 8006790:	613b      	str	r3, [r7, #16]
    tmpcr2 &= ~TIM_CR2_OIS3N;
 8006792:	693b      	ldr	r3, [r7, #16]
 8006794:	4a19      	ldr	r2, [pc, #100]	; (80067fc <TIM_OC3_SetConfig+0x10c>)
 8006796:	4013      	ands	r3, r2
 8006798:	613b      	str	r3, [r7, #16]
    /* Set the Output Idle state */
    tmpcr2 |= (OC_Config->OCIdleState << 4U);
 800679a:	683b      	ldr	r3, [r7, #0]
 800679c:	695b      	ldr	r3, [r3, #20]
 800679e:	011b      	lsls	r3, r3, #4
 80067a0:	693a      	ldr	r2, [r7, #16]
 80067a2:	4313      	orrs	r3, r2
 80067a4:	613b      	str	r3, [r7, #16]
    /* Set the Output N Idle state */
    tmpcr2 |= (OC_Config->OCNIdleState << 4U);
 80067a6:	683b      	ldr	r3, [r7, #0]
 80067a8:	699b      	ldr	r3, [r3, #24]
 80067aa:	011b      	lsls	r3, r3, #4
 80067ac:	693a      	ldr	r2, [r7, #16]
 80067ae:	4313      	orrs	r3, r2
 80067b0:	613b      	str	r3, [r7, #16]
  }

  /* Write to TIMx CR2 */
  TIMx->CR2 = tmpcr2;
 80067b2:	687b      	ldr	r3, [r7, #4]
 80067b4:	693a      	ldr	r2, [r7, #16]
 80067b6:	605a      	str	r2, [r3, #4]

  /* Write to TIMx CCMR2 */
  TIMx->CCMR2 = tmpccmrx;
 80067b8:	687b      	ldr	r3, [r7, #4]
 80067ba:	68fa      	ldr	r2, [r7, #12]
 80067bc:	61da      	str	r2, [r3, #28]

  /* Set the Capture Compare Register value */
  TIMx->CCR3 = OC_Config->Pulse;
 80067be:	683b      	ldr	r3, [r7, #0]
 80067c0:	685a      	ldr	r2, [r3, #4]
 80067c2:	687b      	ldr	r3, [r7, #4]
 80067c4:	63da      	str	r2, [r3, #60]	; 0x3c

  /* Write to TIMx CCER */
  TIMx->CCER = tmpccer;
 80067c6:	687b      	ldr	r3, [r7, #4]
 80067c8:	697a      	ldr	r2, [r7, #20]
 80067ca:	621a      	str	r2, [r3, #32]
}
 80067cc:	46c0      	nop			; (mov r8, r8)
 80067ce:	46bd      	mov	sp, r7
 80067d0:	b006      	add	sp, #24
 80067d2:	bd80      	pop	{r7, pc}
 80067d4:	fffffeff 	.word	0xfffffeff
 80067d8:	fffeff8f 	.word	0xfffeff8f
 80067dc:	fffffdff 	.word	0xfffffdff
 80067e0:	40012c00 	.word	0x40012c00
 80067e4:	fffff7ff 	.word	0xfffff7ff
 80067e8:	fffffbff 	.word	0xfffffbff
 80067ec:	40014000 	.word	0x40014000
 80067f0:	40014400 	.word	0x40014400
 80067f4:	40014800 	.word	0x40014800
 80067f8:	ffffefff 	.word	0xffffefff
 80067fc:	ffffdfff 	.word	0xffffdfff

08006800 <TIM_OC4_SetConfig>:
  * @param  TIMx to select the TIM peripheral
  * @param  OC_Config The output configuration structure
  * @retval None
  */
static void TIM_OC4_SetConfig(TIM_TypeDef *TIMx, TIM_OC_InitTypeDef *OC_Config)
{
 8006800:	b580      	push	{r7, lr}
 8006802:	b086      	sub	sp, #24
 8006804:	af00      	add	r7, sp, #0
 8006806:	6078      	str	r0, [r7, #4]
 8006808:	6039      	str	r1, [r7, #0]
  uint32_t tmpccmrx;
  uint32_t tmpccer;
  uint32_t tmpcr2;

  /* Disable the Channel 4: Reset the CC4E Bit */
  TIMx->CCER &= ~TIM_CCER_CC4E;
 800680a:	687b      	ldr	r3, [r7, #4]
 800680c:	6a1b      	ldr	r3, [r3, #32]
 800680e:	4a28      	ldr	r2, [pc, #160]	; (80068b0 <TIM_OC4_SetConfig+0xb0>)
 8006810:	401a      	ands	r2, r3
 8006812:	687b      	ldr	r3, [r7, #4]
 8006814:	621a      	str	r2, [r3, #32]

  /* Get the TIMx CCER register value */
  tmpccer = TIMx->CCER;
 8006816:	687b      	ldr	r3, [r7, #4]
 8006818:	6a1b      	ldr	r3, [r3, #32]
 800681a:	613b      	str	r3, [r7, #16]
  /* Get the TIMx CR2 register value */
  tmpcr2 =  TIMx->CR2;
 800681c:	687b      	ldr	r3, [r7, #4]
 800681e:	685b      	ldr	r3, [r3, #4]
 8006820:	617b      	str	r3, [r7, #20]

  /* Get the TIMx CCMR2 register value */
  tmpccmrx = TIMx->CCMR2;
 8006822:	687b      	ldr	r3, [r7, #4]
 8006824:	69db      	ldr	r3, [r3, #28]
 8006826:	60fb      	str	r3, [r7, #12]

  /* Reset the Output Compare mode and Capture/Compare selection Bits */
  tmpccmrx &= ~TIM_CCMR2_OC4M;
 8006828:	68fb      	ldr	r3, [r7, #12]
 800682a:	4a22      	ldr	r2, [pc, #136]	; (80068b4 <TIM_OC4_SetConfig+0xb4>)
 800682c:	4013      	ands	r3, r2
 800682e:	60fb      	str	r3, [r7, #12]
  tmpccmrx &= ~TIM_CCMR2_CC4S;
 8006830:	68fb      	ldr	r3, [r7, #12]
 8006832:	4a21      	ldr	r2, [pc, #132]	; (80068b8 <TIM_OC4_SetConfig+0xb8>)
 8006834:	4013      	ands	r3, r2
 8006836:	60fb      	str	r3, [r7, #12]

  /* Select the Output Compare Mode */
  tmpccmrx |= (OC_Config->OCMode << 8U);
 8006838:	683b      	ldr	r3, [r7, #0]
 800683a:	681b      	ldr	r3, [r3, #0]
 800683c:	021b      	lsls	r3, r3, #8
 800683e:	68fa      	ldr	r2, [r7, #12]
 8006840:	4313      	orrs	r3, r2
 8006842:	60fb      	str	r3, [r7, #12]

  /* Reset the Output Polarity level */
  tmpccer &= ~TIM_CCER_CC4P;
 8006844:	693b      	ldr	r3, [r7, #16]
 8006846:	4a1d      	ldr	r2, [pc, #116]	; (80068bc <TIM_OC4_SetConfig+0xbc>)
 8006848:	4013      	ands	r3, r2
 800684a:	613b      	str	r3, [r7, #16]
  /* Set the Output Compare Polarity */
  tmpccer |= (OC_Config->OCPolarity << 12U);
 800684c:	683b      	ldr	r3, [r7, #0]
 800684e:	689b      	ldr	r3, [r3, #8]
 8006850:	031b      	lsls	r3, r3, #12
 8006852:	693a      	ldr	r2, [r7, #16]
 8006854:	4313      	orrs	r3, r2
 8006856:	613b      	str	r3, [r7, #16]

  if (IS_TIM_BREAK_INSTANCE(TIMx))
 8006858:	687b      	ldr	r3, [r7, #4]
 800685a:	4a19      	ldr	r2, [pc, #100]	; (80068c0 <TIM_OC4_SetConfig+0xc0>)
 800685c:	4293      	cmp	r3, r2
 800685e:	d00b      	beq.n	8006878 <TIM_OC4_SetConfig+0x78>
 8006860:	687b      	ldr	r3, [r7, #4]
 8006862:	4a18      	ldr	r2, [pc, #96]	; (80068c4 <TIM_OC4_SetConfig+0xc4>)
 8006864:	4293      	cmp	r3, r2
 8006866:	d007      	beq.n	8006878 <TIM_OC4_SetConfig+0x78>
 8006868:	687b      	ldr	r3, [r7, #4]
 800686a:	4a17      	ldr	r2, [pc, #92]	; (80068c8 <TIM_OC4_SetConfig+0xc8>)
 800686c:	4293      	cmp	r3, r2
 800686e:	d003      	beq.n	8006878 <TIM_OC4_SetConfig+0x78>
 8006870:	687b      	ldr	r3, [r7, #4]
 8006872:	4a16      	ldr	r2, [pc, #88]	; (80068cc <TIM_OC4_SetConfig+0xcc>)
 8006874:	4293      	cmp	r3, r2
 8006876:	d109      	bne.n	800688c <TIM_OC4_SetConfig+0x8c>
  {
    /* Check parameters */
    assert_param(IS_TIM_OCIDLE_STATE(OC_Config->OCIdleState));

    /* Reset the Output Compare IDLE State */
    tmpcr2 &= ~TIM_CR2_OIS4;
 8006878:	697b      	ldr	r3, [r7, #20]
 800687a:	4a15      	ldr	r2, [pc, #84]	; (80068d0 <TIM_OC4_SetConfig+0xd0>)
 800687c:	4013      	ands	r3, r2
 800687e:	617b      	str	r3, [r7, #20]

    /* Set the Output Idle state */
    tmpcr2 |= (OC_Config->OCIdleState << 6U);
 8006880:	683b      	ldr	r3, [r7, #0]
 8006882:	695b      	ldr	r3, [r3, #20]
 8006884:	019b      	lsls	r3, r3, #6
 8006886:	697a      	ldr	r2, [r7, #20]
 8006888:	4313      	orrs	r3, r2
 800688a:	617b      	str	r3, [r7, #20]
  }

  /* Write to TIMx CR2 */
  TIMx->CR2 = tmpcr2;
 800688c:	687b      	ldr	r3, [r7, #4]
 800688e:	697a      	ldr	r2, [r7, #20]
 8006890:	605a      	str	r2, [r3, #4]

  /* Write to TIMx CCMR2 */
  TIMx->CCMR2 = tmpccmrx;
 8006892:	687b      	ldr	r3, [r7, #4]
 8006894:	68fa      	ldr	r2, [r7, #12]
 8006896:	61da      	str	r2, [r3, #28]

  /* Set the Capture Compare Register value */
  TIMx->CCR4 = OC_Config->Pulse;
 8006898:	683b      	ldr	r3, [r7, #0]
 800689a:	685a      	ldr	r2, [r3, #4]
 800689c:	687b      	ldr	r3, [r7, #4]
 800689e:	641a      	str	r2, [r3, #64]	; 0x40

  /* Write to TIMx CCER */
  TIMx->CCER = tmpccer;
 80068a0:	687b      	ldr	r3, [r7, #4]
 80068a2:	693a      	ldr	r2, [r7, #16]
 80068a4:	621a      	str	r2, [r3, #32]
}
 80068a6:	46c0      	nop			; (mov r8, r8)
 80068a8:	46bd      	mov	sp, r7
 80068aa:	b006      	add	sp, #24
 80068ac:	bd80      	pop	{r7, pc}
 80068ae:	46c0      	nop			; (mov r8, r8)
 80068b0:	ffffefff 	.word	0xffffefff
 80068b4:	feff8fff 	.word	0xfeff8fff
 80068b8:	fffffcff 	.word	0xfffffcff
 80068bc:	ffffdfff 	.word	0xffffdfff
 80068c0:	40012c00 	.word	0x40012c00
 80068c4:	40014000 	.word	0x40014000
 80068c8:	40014400 	.word	0x40014400
 80068cc:	40014800 	.word	0x40014800
 80068d0:	ffffbfff 	.word	0xffffbfff

080068d4 <TIM_OC5_SetConfig>:
  * @param  OC_Config The output configuration structure
  * @retval None
  */
static void TIM_OC5_SetConfig(TIM_TypeDef *TIMx,
                              TIM_OC_InitTypeDef *OC_Config)
{
 80068d4:	b580      	push	{r7, lr}
 80068d6:	b086      	sub	sp, #24
 80068d8:	af00      	add	r7, sp, #0
 80068da:	6078      	str	r0, [r7, #4]
 80068dc:	6039      	str	r1, [r7, #0]
  uint32_t tmpccmrx;
  uint32_t tmpccer;
  uint32_t tmpcr2;

  /* Disable the output: Reset the CCxE Bit */
  TIMx->CCER &= ~TIM_CCER_CC5E;
 80068de:	687b      	ldr	r3, [r7, #4]
 80068e0:	6a1b      	ldr	r3, [r3, #32]
 80068e2:	4a25      	ldr	r2, [pc, #148]	; (8006978 <TIM_OC5_SetConfig+0xa4>)
 80068e4:	401a      	ands	r2, r3
 80068e6:	687b      	ldr	r3, [r7, #4]
 80068e8:	621a      	str	r2, [r3, #32]

  /* Get the TIMx CCER register value */
  tmpccer = TIMx->CCER;
 80068ea:	687b      	ldr	r3, [r7, #4]
 80068ec:	6a1b      	ldr	r3, [r3, #32]
 80068ee:	613b      	str	r3, [r7, #16]
  /* Get the TIMx CR2 register value */
  tmpcr2 =  TIMx->CR2;
 80068f0:	687b      	ldr	r3, [r7, #4]
 80068f2:	685b      	ldr	r3, [r3, #4]
 80068f4:	617b      	str	r3, [r7, #20]
  /* Get the TIMx CCMR1 register value */
  tmpccmrx = TIMx->CCMR3;
 80068f6:	687b      	ldr	r3, [r7, #4]
 80068f8:	6d5b      	ldr	r3, [r3, #84]	; 0x54
 80068fa:	60fb      	str	r3, [r7, #12]

  /* Reset the Output Compare Mode Bits */
  tmpccmrx &= ~(TIM_CCMR3_OC5M);
 80068fc:	68fb      	ldr	r3, [r7, #12]
 80068fe:	4a1f      	ldr	r2, [pc, #124]	; (800697c <TIM_OC5_SetConfig+0xa8>)
 8006900:	4013      	ands	r3, r2
 8006902:	60fb      	str	r3, [r7, #12]
  /* Select the Output Compare Mode */
  tmpccmrx |= OC_Config->OCMode;
 8006904:	683b      	ldr	r3, [r7, #0]
 8006906:	681b      	ldr	r3, [r3, #0]
 8006908:	68fa      	ldr	r2, [r7, #12]
 800690a:	4313      	orrs	r3, r2
 800690c:	60fb      	str	r3, [r7, #12]

  /* Reset the Output Polarity level */
  tmpccer &= ~TIM_CCER_CC5P;
 800690e:	693b      	ldr	r3, [r7, #16]
 8006910:	4a1b      	ldr	r2, [pc, #108]	; (8006980 <TIM_OC5_SetConfig+0xac>)
 8006912:	4013      	ands	r3, r2
 8006914:	613b      	str	r3, [r7, #16]
  /* Set the Output Compare Polarity */
  tmpccer |= (OC_Config->OCPolarity << 16U);
 8006916:	683b      	ldr	r3, [r7, #0]
 8006918:	689b      	ldr	r3, [r3, #8]
 800691a:	041b      	lsls	r3, r3, #16
 800691c:	693a      	ldr	r2, [r7, #16]
 800691e:	4313      	orrs	r3, r2
 8006920:	613b      	str	r3, [r7, #16]

  if (IS_TIM_BREAK_INSTANCE(TIMx))
 8006922:	687b      	ldr	r3, [r7, #4]
 8006924:	4a17      	ldr	r2, [pc, #92]	; (8006984 <TIM_OC5_SetConfig+0xb0>)
 8006926:	4293      	cmp	r3, r2
 8006928:	d00b      	beq.n	8006942 <TIM_OC5_SetConfig+0x6e>
 800692a:	687b      	ldr	r3, [r7, #4]
 800692c:	4a16      	ldr	r2, [pc, #88]	; (8006988 <TIM_OC5_SetConfig+0xb4>)
 800692e:	4293      	cmp	r3, r2
 8006930:	d007      	beq.n	8006942 <TIM_OC5_SetConfig+0x6e>
 8006932:	687b      	ldr	r3, [r7, #4]
 8006934:	4a15      	ldr	r2, [pc, #84]	; (800698c <TIM_OC5_SetConfig+0xb8>)
 8006936:	4293      	cmp	r3, r2
 8006938:	d003      	beq.n	8006942 <TIM_OC5_SetConfig+0x6e>
 800693a:	687b      	ldr	r3, [r7, #4]
 800693c:	4a14      	ldr	r2, [pc, #80]	; (8006990 <TIM_OC5_SetConfig+0xbc>)
 800693e:	4293      	cmp	r3, r2
 8006940:	d109      	bne.n	8006956 <TIM_OC5_SetConfig+0x82>
  {
    /* Reset the Output Compare IDLE State */
    tmpcr2 &= ~TIM_CR2_OIS5;
 8006942:	697b      	ldr	r3, [r7, #20]
 8006944:	4a0c      	ldr	r2, [pc, #48]	; (8006978 <TIM_OC5_SetConfig+0xa4>)
 8006946:	4013      	ands	r3, r2
 8006948:	617b      	str	r3, [r7, #20]
    /* Set the Output Idle state */
    tmpcr2 |= (OC_Config->OCIdleState << 8U);
 800694a:	683b      	ldr	r3, [r7, #0]
 800694c:	695b      	ldr	r3, [r3, #20]
 800694e:	021b      	lsls	r3, r3, #8
 8006950:	697a      	ldr	r2, [r7, #20]
 8006952:	4313      	orrs	r3, r2
 8006954:	617b      	str	r3, [r7, #20]
  }
  /* Write to TIMx CR2 */
  TIMx->CR2 = tmpcr2;
 8006956:	687b      	ldr	r3, [r7, #4]
 8006958:	697a      	ldr	r2, [r7, #20]
 800695a:	605a      	str	r2, [r3, #4]

  /* Write to TIMx CCMR3 */
  TIMx->CCMR3 = tmpccmrx;
 800695c:	687b      	ldr	r3, [r7, #4]
 800695e:	68fa      	ldr	r2, [r7, #12]
 8006960:	655a      	str	r2, [r3, #84]	; 0x54

  /* Set the Capture Compare Register value */
  TIMx->CCR5 = OC_Config->Pulse;
 8006962:	683b      	ldr	r3, [r7, #0]
 8006964:	685a      	ldr	r2, [r3, #4]
 8006966:	687b      	ldr	r3, [r7, #4]
 8006968:	659a      	str	r2, [r3, #88]	; 0x58

  /* Write to TIMx CCER */
  TIMx->CCER = tmpccer;
 800696a:	687b      	ldr	r3, [r7, #4]
 800696c:	693a      	ldr	r2, [r7, #16]
 800696e:	621a      	str	r2, [r3, #32]
}
 8006970:	46c0      	nop			; (mov r8, r8)
 8006972:	46bd      	mov	sp, r7
 8006974:	b006      	add	sp, #24
 8006976:	bd80      	pop	{r7, pc}
 8006978:	fffeffff 	.word	0xfffeffff
 800697c:	fffeff8f 	.word	0xfffeff8f
 8006980:	fffdffff 	.word	0xfffdffff
 8006984:	40012c00 	.word	0x40012c00
 8006988:	40014000 	.word	0x40014000
 800698c:	40014400 	.word	0x40014400
 8006990:	40014800 	.word	0x40014800

08006994 <TIM_OC6_SetConfig>:
  * @param  OC_Config The output configuration structure
  * @retval None
  */
static void TIM_OC6_SetConfig(TIM_TypeDef *TIMx,
                              TIM_OC_InitTypeDef *OC_Config)
{
 8006994:	b580      	push	{r7, lr}
 8006996:	b086      	sub	sp, #24
 8006998:	af00      	add	r7, sp, #0
 800699a:	6078      	str	r0, [r7, #4]
 800699c:	6039      	str	r1, [r7, #0]
  uint32_t tmpccmrx;
  uint32_t tmpccer;
  uint32_t tmpcr2;

  /* Disable the output: Reset the CCxE Bit */
  TIMx->CCER &= ~TIM_CCER_CC6E;
 800699e:	687b      	ldr	r3, [r7, #4]
 80069a0:	6a1b      	ldr	r3, [r3, #32]
 80069a2:	4a26      	ldr	r2, [pc, #152]	; (8006a3c <TIM_OC6_SetConfig+0xa8>)
 80069a4:	401a      	ands	r2, r3
 80069a6:	687b      	ldr	r3, [r7, #4]
 80069a8:	621a      	str	r2, [r3, #32]

  /* Get the TIMx CCER register value */
  tmpccer = TIMx->CCER;
 80069aa:	687b      	ldr	r3, [r7, #4]
 80069ac:	6a1b      	ldr	r3, [r3, #32]
 80069ae:	613b      	str	r3, [r7, #16]
  /* Get the TIMx CR2 register value */
  tmpcr2 =  TIMx->CR2;
 80069b0:	687b      	ldr	r3, [r7, #4]
 80069b2:	685b      	ldr	r3, [r3, #4]
 80069b4:	617b      	str	r3, [r7, #20]
  /* Get the TIMx CCMR1 register value */
  tmpccmrx = TIMx->CCMR3;
 80069b6:	687b      	ldr	r3, [r7, #4]
 80069b8:	6d5b      	ldr	r3, [r3, #84]	; 0x54
 80069ba:	60fb      	str	r3, [r7, #12]

  /* Reset the Output Compare Mode Bits */
  tmpccmrx &= ~(TIM_CCMR3_OC6M);
 80069bc:	68fb      	ldr	r3, [r7, #12]
 80069be:	4a20      	ldr	r2, [pc, #128]	; (8006a40 <TIM_OC6_SetConfig+0xac>)
 80069c0:	4013      	ands	r3, r2
 80069c2:	60fb      	str	r3, [r7, #12]
  /* Select the Output Compare Mode */
  tmpccmrx |= (OC_Config->OCMode << 8U);
 80069c4:	683b      	ldr	r3, [r7, #0]
 80069c6:	681b      	ldr	r3, [r3, #0]
 80069c8:	021b      	lsls	r3, r3, #8
 80069ca:	68fa      	ldr	r2, [r7, #12]
 80069cc:	4313      	orrs	r3, r2
 80069ce:	60fb      	str	r3, [r7, #12]

  /* Reset the Output Polarity level */
  tmpccer &= (uint32_t)~TIM_CCER_CC6P;
 80069d0:	693b      	ldr	r3, [r7, #16]
 80069d2:	4a1c      	ldr	r2, [pc, #112]	; (8006a44 <TIM_OC6_SetConfig+0xb0>)
 80069d4:	4013      	ands	r3, r2
 80069d6:	613b      	str	r3, [r7, #16]
  /* Set the Output Compare Polarity */
  tmpccer |= (OC_Config->OCPolarity << 20U);
 80069d8:	683b      	ldr	r3, [r7, #0]
 80069da:	689b      	ldr	r3, [r3, #8]
 80069dc:	051b      	lsls	r3, r3, #20
 80069de:	693a      	ldr	r2, [r7, #16]
 80069e0:	4313      	orrs	r3, r2
 80069e2:	613b      	str	r3, [r7, #16]

  if (IS_TIM_BREAK_INSTANCE(TIMx))
 80069e4:	687b      	ldr	r3, [r7, #4]
 80069e6:	4a18      	ldr	r2, [pc, #96]	; (8006a48 <TIM_OC6_SetConfig+0xb4>)
 80069e8:	4293      	cmp	r3, r2
 80069ea:	d00b      	beq.n	8006a04 <TIM_OC6_SetConfig+0x70>
 80069ec:	687b      	ldr	r3, [r7, #4]
 80069ee:	4a17      	ldr	r2, [pc, #92]	; (8006a4c <TIM_OC6_SetConfig+0xb8>)
 80069f0:	4293      	cmp	r3, r2
 80069f2:	d007      	beq.n	8006a04 <TIM_OC6_SetConfig+0x70>
 80069f4:	687b      	ldr	r3, [r7, #4]
 80069f6:	4a16      	ldr	r2, [pc, #88]	; (8006a50 <TIM_OC6_SetConfig+0xbc>)
 80069f8:	4293      	cmp	r3, r2
 80069fa:	d003      	beq.n	8006a04 <TIM_OC6_SetConfig+0x70>
 80069fc:	687b      	ldr	r3, [r7, #4]
 80069fe:	4a15      	ldr	r2, [pc, #84]	; (8006a54 <TIM_OC6_SetConfig+0xc0>)
 8006a00:	4293      	cmp	r3, r2
 8006a02:	d109      	bne.n	8006a18 <TIM_OC6_SetConfig+0x84>
  {
    /* Reset the Output Compare IDLE State */
    tmpcr2 &= ~TIM_CR2_OIS6;
 8006a04:	697b      	ldr	r3, [r7, #20]
 8006a06:	4a14      	ldr	r2, [pc, #80]	; (8006a58 <TIM_OC6_SetConfig+0xc4>)
 8006a08:	4013      	ands	r3, r2
 8006a0a:	617b      	str	r3, [r7, #20]
    /* Set the Output Idle state */
    tmpcr2 |= (OC_Config->OCIdleState << 10U);
 8006a0c:	683b      	ldr	r3, [r7, #0]
 8006a0e:	695b      	ldr	r3, [r3, #20]
 8006a10:	029b      	lsls	r3, r3, #10
 8006a12:	697a      	ldr	r2, [r7, #20]
 8006a14:	4313      	orrs	r3, r2
 8006a16:	617b      	str	r3, [r7, #20]
  }

  /* Write to TIMx CR2 */
  TIMx->CR2 = tmpcr2;
 8006a18:	687b      	ldr	r3, [r7, #4]
 8006a1a:	697a      	ldr	r2, [r7, #20]
 8006a1c:	605a      	str	r2, [r3, #4]

  /* Write to TIMx CCMR3 */
  TIMx->CCMR3 = tmpccmrx;
 8006a1e:	687b      	ldr	r3, [r7, #4]
 8006a20:	68fa      	ldr	r2, [r7, #12]
 8006a22:	655a      	str	r2, [r3, #84]	; 0x54

  /* Set the Capture Compare Register value */
  TIMx->CCR6 = OC_Config->Pulse;
 8006a24:	683b      	ldr	r3, [r7, #0]
 8006a26:	685a      	ldr	r2, [r3, #4]
 8006a28:	687b      	ldr	r3, [r7, #4]
 8006a2a:	65da      	str	r2, [r3, #92]	; 0x5c

  /* Write to TIMx CCER */
  TIMx->CCER = tmpccer;
 8006a2c:	687b      	ldr	r3, [r7, #4]
 8006a2e:	693a      	ldr	r2, [r7, #16]
 8006a30:	621a      	str	r2, [r3, #32]
}
 8006a32:	46c0      	nop			; (mov r8, r8)
 8006a34:	46bd      	mov	sp, r7
 8006a36:	b006      	add	sp, #24
 8006a38:	bd80      	pop	{r7, pc}
 8006a3a:	46c0      	nop			; (mov r8, r8)
 8006a3c:	ffefffff 	.word	0xffefffff
 8006a40:	feff8fff 	.word	0xfeff8fff
 8006a44:	ffdfffff 	.word	0xffdfffff
 8006a48:	40012c00 	.word	0x40012c00
 8006a4c:	40014000 	.word	0x40014000
 8006a50:	40014400 	.word	0x40014400
 8006a54:	40014800 	.word	0x40014800
 8006a58:	fffbffff 	.word	0xfffbffff

08006a5c <TIM_CCxChannelCmd>:
  * @param  ChannelState specifies the TIM Channel CCxE bit new state.
  *          This parameter can be: TIM_CCx_ENABLE or TIM_CCx_DISABLE.
  * @retval None
  */
void TIM_CCxChannelCmd(TIM_TypeDef *TIMx, uint32_t Channel, uint32_t ChannelState)
{
 8006a5c:	b580      	push	{r7, lr}
 8006a5e:	b086      	sub	sp, #24
 8006a60:	af00      	add	r7, sp, #0
 8006a62:	60f8      	str	r0, [r7, #12]
 8006a64:	60b9      	str	r1, [r7, #8]
 8006a66:	607a      	str	r2, [r7, #4]

  /* Check the parameters */
  assert_param(IS_TIM_CC1_INSTANCE(TIMx));
  assert_param(IS_TIM_CHANNELS(Channel));

  tmp = TIM_CCER_CC1E << (Channel & 0x1FU); /* 0x1FU = 31 bits max shift */
 8006a68:	68bb      	ldr	r3, [r7, #8]
 8006a6a:	221f      	movs	r2, #31
 8006a6c:	4013      	ands	r3, r2
 8006a6e:	2201      	movs	r2, #1
 8006a70:	409a      	lsls	r2, r3
 8006a72:	0013      	movs	r3, r2
 8006a74:	617b      	str	r3, [r7, #20]

  /* Reset the CCxE Bit */
  TIMx->CCER &= ~tmp;
 8006a76:	68fb      	ldr	r3, [r7, #12]
 8006a78:	6a1b      	ldr	r3, [r3, #32]
 8006a7a:	697a      	ldr	r2, [r7, #20]
 8006a7c:	43d2      	mvns	r2, r2
 8006a7e:	401a      	ands	r2, r3
 8006a80:	68fb      	ldr	r3, [r7, #12]
 8006a82:	621a      	str	r2, [r3, #32]

  /* Set or reset the CCxE Bit */
  TIMx->CCER |= (uint32_t)(ChannelState << (Channel & 0x1FU)); /* 0x1FU = 31 bits max shift */
 8006a84:	68fb      	ldr	r3, [r7, #12]
 8006a86:	6a1a      	ldr	r2, [r3, #32]
 8006a88:	68bb      	ldr	r3, [r7, #8]
 8006a8a:	211f      	movs	r1, #31
 8006a8c:	400b      	ands	r3, r1
 8006a8e:	6879      	ldr	r1, [r7, #4]
 8006a90:	4099      	lsls	r1, r3
 8006a92:	000b      	movs	r3, r1
 8006a94:	431a      	orrs	r2, r3
 8006a96:	68fb      	ldr	r3, [r7, #12]
 8006a98:	621a      	str	r2, [r3, #32]
}
 8006a9a:	46c0      	nop			; (mov r8, r8)
 8006a9c:	46bd      	mov	sp, r7
 8006a9e:	b006      	add	sp, #24
 8006aa0:	bd80      	pop	{r7, pc}
	...

08006aa4 <HAL_TIMEx_MasterConfigSynchronization>:
  *         mode.
  * @retval HAL status
  */
HAL_StatusTypeDef HAL_TIMEx_MasterConfigSynchronization(TIM_HandleTypeDef *htim,
                                                        TIM_MasterConfigTypeDef *sMasterConfig)
{
 8006aa4:	b580      	push	{r7, lr}
 8006aa6:	b084      	sub	sp, #16
 8006aa8:	af00      	add	r7, sp, #0
 8006aaa:	6078      	str	r0, [r7, #4]
 8006aac:	6039      	str	r1, [r7, #0]
  assert_param(IS_TIM_MASTER_INSTANCE(htim->Instance));
  assert_param(IS_TIM_TRGO_SOURCE(sMasterConfig->MasterOutputTrigger));
  assert_param(IS_TIM_MSM_STATE(sMasterConfig->MasterSlaveMode));

  /* Check input state */
  __HAL_LOCK(htim);
 8006aae:	687b      	ldr	r3, [r7, #4]
 8006ab0:	223c      	movs	r2, #60	; 0x3c
 8006ab2:	5c9b      	ldrb	r3, [r3, r2]
 8006ab4:	2b01      	cmp	r3, #1
 8006ab6:	d101      	bne.n	8006abc <HAL_TIMEx_MasterConfigSynchronization+0x18>
 8006ab8:	2302      	movs	r3, #2
 8006aba:	e055      	b.n	8006b68 <HAL_TIMEx_MasterConfigSynchronization+0xc4>
 8006abc:	687b      	ldr	r3, [r7, #4]
 8006abe:	223c      	movs	r2, #60	; 0x3c
 8006ac0:	2101      	movs	r1, #1
 8006ac2:	5499      	strb	r1, [r3, r2]

  /* Change the handler state */
  htim->State = HAL_TIM_STATE_BUSY;
 8006ac4:	687b      	ldr	r3, [r7, #4]
 8006ac6:	223d      	movs	r2, #61	; 0x3d
 8006ac8:	2102      	movs	r1, #2
 8006aca:	5499      	strb	r1, [r3, r2]

  /* Get the TIMx CR2 register value */
  tmpcr2 = htim->Instance->CR2;
 8006acc:	687b      	ldr	r3, [r7, #4]
 8006ace:	681b      	ldr	r3, [r3, #0]
 8006ad0:	685b      	ldr	r3, [r3, #4]
 8006ad2:	60fb      	str	r3, [r7, #12]

  /* Get the TIMx SMCR register value */
  tmpsmcr = htim->Instance->SMCR;
 8006ad4:	687b      	ldr	r3, [r7, #4]
 8006ad6:	681b      	ldr	r3, [r3, #0]
 8006ad8:	689b      	ldr	r3, [r3, #8]
 8006ada:	60bb      	str	r3, [r7, #8]

  /* If the timer supports ADC synchronization through TRGO2, set the master mode selection 2 */
  if (IS_TIM_TRGO2_INSTANCE(htim->Instance))
 8006adc:	687b      	ldr	r3, [r7, #4]
 8006ade:	681b      	ldr	r3, [r3, #0]
 8006ae0:	4a23      	ldr	r2, [pc, #140]	; (8006b70 <HAL_TIMEx_MasterConfigSynchronization+0xcc>)
 8006ae2:	4293      	cmp	r3, r2
 8006ae4:	d108      	bne.n	8006af8 <HAL_TIMEx_MasterConfigSynchronization+0x54>
  {
    /* Check the parameters */
    assert_param(IS_TIM_TRGO2_SOURCE(sMasterConfig->MasterOutputTrigger2));

    /* Clear the MMS2 bits */
    tmpcr2 &= ~TIM_CR2_MMS2;
 8006ae6:	68fb      	ldr	r3, [r7, #12]
 8006ae8:	4a22      	ldr	r2, [pc, #136]	; (8006b74 <HAL_TIMEx_MasterConfigSynchronization+0xd0>)
 8006aea:	4013      	ands	r3, r2
 8006aec:	60fb      	str	r3, [r7, #12]
    /* Select the TRGO2 source*/
    tmpcr2 |= sMasterConfig->MasterOutputTrigger2;
 8006aee:	683b      	ldr	r3, [r7, #0]
 8006af0:	685b      	ldr	r3, [r3, #4]
 8006af2:	68fa      	ldr	r2, [r7, #12]
 8006af4:	4313      	orrs	r3, r2
 8006af6:	60fb      	str	r3, [r7, #12]
  }

  /* Reset the MMS Bits */
  tmpcr2 &= ~TIM_CR2_MMS;
 8006af8:	68fb      	ldr	r3, [r7, #12]
 8006afa:	2270      	movs	r2, #112	; 0x70
 8006afc:	4393      	bics	r3, r2
 8006afe:	60fb      	str	r3, [r7, #12]
  /* Select the TRGO source */
  tmpcr2 |=  sMasterConfig->MasterOutputTrigger;
 8006b00:	683b      	ldr	r3, [r7, #0]
 8006b02:	681b      	ldr	r3, [r3, #0]
 8006b04:	68fa      	ldr	r2, [r7, #12]
 8006b06:	4313      	orrs	r3, r2
 8006b08:	60fb      	str	r3, [r7, #12]

  /* Update TIMx CR2 */
  htim->Instance->CR2 = tmpcr2;
 8006b0a:	687b      	ldr	r3, [r7, #4]
 8006b0c:	681b      	ldr	r3, [r3, #0]
 8006b0e:	68fa      	ldr	r2, [r7, #12]
 8006b10:	605a      	str	r2, [r3, #4]

  if (IS_TIM_SLAVE_INSTANCE(htim->Instance))
 8006b12:	687b      	ldr	r3, [r7, #4]
 8006b14:	681b      	ldr	r3, [r3, #0]
 8006b16:	4a16      	ldr	r2, [pc, #88]	; (8006b70 <HAL_TIMEx_MasterConfigSynchronization+0xcc>)
 8006b18:	4293      	cmp	r3, r2
 8006b1a:	d00f      	beq.n	8006b3c <HAL_TIMEx_MasterConfigSynchronization+0x98>
 8006b1c:	687b      	ldr	r3, [r7, #4]
 8006b1e:	681a      	ldr	r2, [r3, #0]
 8006b20:	2380      	movs	r3, #128	; 0x80
 8006b22:	05db      	lsls	r3, r3, #23
 8006b24:	429a      	cmp	r2, r3
 8006b26:	d009      	beq.n	8006b3c <HAL_TIMEx_MasterConfigSynchronization+0x98>
 8006b28:	687b      	ldr	r3, [r7, #4]
 8006b2a:	681b      	ldr	r3, [r3, #0]
 8006b2c:	4a12      	ldr	r2, [pc, #72]	; (8006b78 <HAL_TIMEx_MasterConfigSynchronization+0xd4>)
 8006b2e:	4293      	cmp	r3, r2
 8006b30:	d004      	beq.n	8006b3c <HAL_TIMEx_MasterConfigSynchronization+0x98>
 8006b32:	687b      	ldr	r3, [r7, #4]
 8006b34:	681b      	ldr	r3, [r3, #0]
 8006b36:	4a11      	ldr	r2, [pc, #68]	; (8006b7c <HAL_TIMEx_MasterConfigSynchronization+0xd8>)
 8006b38:	4293      	cmp	r3, r2
 8006b3a:	d10c      	bne.n	8006b56 <HAL_TIMEx_MasterConfigSynchronization+0xb2>
  {
    /* Reset the MSM Bit */
    tmpsmcr &= ~TIM_SMCR_MSM;
 8006b3c:	68bb      	ldr	r3, [r7, #8]
 8006b3e:	2280      	movs	r2, #128	; 0x80
 8006b40:	4393      	bics	r3, r2
 8006b42:	60bb      	str	r3, [r7, #8]
    /* Set master mode */
    tmpsmcr |= sMasterConfig->MasterSlaveMode;
 8006b44:	683b      	ldr	r3, [r7, #0]
 8006b46:	689b      	ldr	r3, [r3, #8]
 8006b48:	68ba      	ldr	r2, [r7, #8]
 8006b4a:	4313      	orrs	r3, r2
 8006b4c:	60bb      	str	r3, [r7, #8]

    /* Update TIMx SMCR */
    htim->Instance->SMCR = tmpsmcr;
 8006b4e:	687b      	ldr	r3, [r7, #4]
 8006b50:	681b      	ldr	r3, [r3, #0]
 8006b52:	68ba      	ldr	r2, [r7, #8]
 8006b54:	609a      	str	r2, [r3, #8]
  }

  /* Change the htim state */
  htim->State = HAL_TIM_STATE_READY;
 8006b56:	687b      	ldr	r3, [r7, #4]
 8006b58:	223d      	movs	r2, #61	; 0x3d
 8006b5a:	2101      	movs	r1, #1
 8006b5c:	5499      	strb	r1, [r3, r2]

  __HAL_UNLOCK(htim);
 8006b5e:	687b      	ldr	r3, [r7, #4]
 8006b60:	223c      	movs	r2, #60	; 0x3c
 8006b62:	2100      	movs	r1, #0
 8006b64:	5499      	strb	r1, [r3, r2]

  return HAL_OK;
 8006b66:	2300      	movs	r3, #0
}
 8006b68:	0018      	movs	r0, r3
 8006b6a:	46bd      	mov	sp, r7
 8006b6c:	b004      	add	sp, #16
 8006b6e:	bd80      	pop	{r7, pc}
 8006b70:	40012c00 	.word	0x40012c00
 8006b74:	ff0fffff 	.word	0xff0fffff
 8006b78:	40000400 	.word	0x40000400
 8006b7c:	40014000 	.word	0x40014000

08006b80 <HAL_TIMEx_ConfigBreakDeadTime>:
  *         interrupt can be enabled by calling the @ref __HAL_TIM_ENABLE_IT macro.
  * @retval HAL status
  */
HAL_StatusTypeDef HAL_TIMEx_ConfigBreakDeadTime(TIM_HandleTypeDef *htim,
                                                TIM_BreakDeadTimeConfigTypeDef *sBreakDeadTimeConfig)
{
 8006b80:	b580      	push	{r7, lr}
 8006b82:	b084      	sub	sp, #16
 8006b84:	af00      	add	r7, sp, #0
 8006b86:	6078      	str	r0, [r7, #4]
 8006b88:	6039      	str	r1, [r7, #0]
  /* Keep this variable initialized to 0 as it is used to configure BDTR register */
  uint32_t tmpbdtr = 0U;
 8006b8a:	2300      	movs	r3, #0
 8006b8c:	60fb      	str	r3, [r7, #12]
  assert_param(IS_TIM_BREAK_POLARITY(sBreakDeadTimeConfig->BreakPolarity));
  assert_param(IS_TIM_BREAK_FILTER(sBreakDeadTimeConfig->BreakFilter));
  assert_param(IS_TIM_AUTOMATIC_OUTPUT_STATE(sBreakDeadTimeConfig->AutomaticOutput));

  /* Check input state */
  __HAL_LOCK(htim);
 8006b8e:	687b      	ldr	r3, [r7, #4]
 8006b90:	223c      	movs	r2, #60	; 0x3c
 8006b92:	5c9b      	ldrb	r3, [r3, r2]
 8006b94:	2b01      	cmp	r3, #1
 8006b96:	d101      	bne.n	8006b9c <HAL_TIMEx_ConfigBreakDeadTime+0x1c>
 8006b98:	2302      	movs	r3, #2
 8006b9a:	e079      	b.n	8006c90 <HAL_TIMEx_ConfigBreakDeadTime+0x110>
 8006b9c:	687b      	ldr	r3, [r7, #4]
 8006b9e:	223c      	movs	r2, #60	; 0x3c
 8006ba0:	2101      	movs	r1, #1
 8006ba2:	5499      	strb	r1, [r3, r2]

  /* Set the Lock level, the Break enable Bit and the Polarity, the OSSR State,
     the OSSI State, the dead time value and the Automatic Output Enable Bit */

  /* Set the BDTR bits */
  MODIFY_REG(tmpbdtr, TIM_BDTR_DTG, sBreakDeadTimeConfig->DeadTime);
 8006ba4:	68fb      	ldr	r3, [r7, #12]
 8006ba6:	22ff      	movs	r2, #255	; 0xff
 8006ba8:	4393      	bics	r3, r2
 8006baa:	001a      	movs	r2, r3
 8006bac:	683b      	ldr	r3, [r7, #0]
 8006bae:	68db      	ldr	r3, [r3, #12]
 8006bb0:	4313      	orrs	r3, r2
 8006bb2:	60fb      	str	r3, [r7, #12]
  MODIFY_REG(tmpbdtr, TIM_BDTR_LOCK, sBreakDeadTimeConfig->LockLevel);
 8006bb4:	68fb      	ldr	r3, [r7, #12]
 8006bb6:	4a38      	ldr	r2, [pc, #224]	; (8006c98 <HAL_TIMEx_ConfigBreakDeadTime+0x118>)
 8006bb8:	401a      	ands	r2, r3
 8006bba:	683b      	ldr	r3, [r7, #0]
 8006bbc:	689b      	ldr	r3, [r3, #8]
 8006bbe:	4313      	orrs	r3, r2
 8006bc0:	60fb      	str	r3, [r7, #12]
  MODIFY_REG(tmpbdtr, TIM_BDTR_OSSI, sBreakDeadTimeConfig->OffStateIDLEMode);
 8006bc2:	68fb      	ldr	r3, [r7, #12]
 8006bc4:	4a35      	ldr	r2, [pc, #212]	; (8006c9c <HAL_TIMEx_ConfigBreakDeadTime+0x11c>)
 8006bc6:	401a      	ands	r2, r3
 8006bc8:	683b      	ldr	r3, [r7, #0]
 8006bca:	685b      	ldr	r3, [r3, #4]
 8006bcc:	4313      	orrs	r3, r2
 8006bce:	60fb      	str	r3, [r7, #12]
  MODIFY_REG(tmpbdtr, TIM_BDTR_OSSR, sBreakDeadTimeConfig->OffStateRunMode);
 8006bd0:	68fb      	ldr	r3, [r7, #12]
 8006bd2:	4a33      	ldr	r2, [pc, #204]	; (8006ca0 <HAL_TIMEx_ConfigBreakDeadTime+0x120>)
 8006bd4:	401a      	ands	r2, r3
 8006bd6:	683b      	ldr	r3, [r7, #0]
 8006bd8:	681b      	ldr	r3, [r3, #0]
 8006bda:	4313      	orrs	r3, r2
 8006bdc:	60fb      	str	r3, [r7, #12]
  MODIFY_REG(tmpbdtr, TIM_BDTR_BKE, sBreakDeadTimeConfig->BreakState);
 8006bde:	68fb      	ldr	r3, [r7, #12]
 8006be0:	4a30      	ldr	r2, [pc, #192]	; (8006ca4 <HAL_TIMEx_ConfigBreakDeadTime+0x124>)
 8006be2:	401a      	ands	r2, r3
 8006be4:	683b      	ldr	r3, [r7, #0]
 8006be6:	691b      	ldr	r3, [r3, #16]
 8006be8:	4313      	orrs	r3, r2
 8006bea:	60fb      	str	r3, [r7, #12]
  MODIFY_REG(tmpbdtr, TIM_BDTR_BKP, sBreakDeadTimeConfig->BreakPolarity);
 8006bec:	68fb      	ldr	r3, [r7, #12]
 8006bee:	4a2e      	ldr	r2, [pc, #184]	; (8006ca8 <HAL_TIMEx_ConfigBreakDeadTime+0x128>)
 8006bf0:	401a      	ands	r2, r3
 8006bf2:	683b      	ldr	r3, [r7, #0]
 8006bf4:	695b      	ldr	r3, [r3, #20]
 8006bf6:	4313      	orrs	r3, r2
 8006bf8:	60fb      	str	r3, [r7, #12]
  MODIFY_REG(tmpbdtr, TIM_BDTR_AOE, sBreakDeadTimeConfig->AutomaticOutput);
 8006bfa:	68fb      	ldr	r3, [r7, #12]
 8006bfc:	4a2b      	ldr	r2, [pc, #172]	; (8006cac <HAL_TIMEx_ConfigBreakDeadTime+0x12c>)
 8006bfe:	401a      	ands	r2, r3
 8006c00:	683b      	ldr	r3, [r7, #0]
 8006c02:	6b1b      	ldr	r3, [r3, #48]	; 0x30
 8006c04:	4313      	orrs	r3, r2
 8006c06:	60fb      	str	r3, [r7, #12]
  MODIFY_REG(tmpbdtr, TIM_BDTR_BKF, (sBreakDeadTimeConfig->BreakFilter << TIM_BDTR_BKF_Pos));
 8006c08:	68fb      	ldr	r3, [r7, #12]
 8006c0a:	4a29      	ldr	r2, [pc, #164]	; (8006cb0 <HAL_TIMEx_ConfigBreakDeadTime+0x130>)
 8006c0c:	401a      	ands	r2, r3
 8006c0e:	683b      	ldr	r3, [r7, #0]
 8006c10:	699b      	ldr	r3, [r3, #24]
 8006c12:	041b      	lsls	r3, r3, #16
 8006c14:	4313      	orrs	r3, r2
 8006c16:	60fb      	str	r3, [r7, #12]

  if (IS_TIM_ADVANCED_INSTANCE(htim->Instance))
 8006c18:	687b      	ldr	r3, [r7, #4]
 8006c1a:	681b      	ldr	r3, [r3, #0]
 8006c1c:	4a25      	ldr	r2, [pc, #148]	; (8006cb4 <HAL_TIMEx_ConfigBreakDeadTime+0x134>)
 8006c1e:	4293      	cmp	r3, r2
 8006c20:	d106      	bne.n	8006c30 <HAL_TIMEx_ConfigBreakDeadTime+0xb0>
  {
    /* Check the parameters */
    assert_param(IS_TIM_BREAK_AFMODE(sBreakDeadTimeConfig->BreakAFMode));

    /* Set BREAK AF mode */
    MODIFY_REG(tmpbdtr, TIM_BDTR_BKBID, sBreakDeadTimeConfig->BreakAFMode);
 8006c22:	68fb      	ldr	r3, [r7, #12]
 8006c24:	4a24      	ldr	r2, [pc, #144]	; (8006cb8 <HAL_TIMEx_ConfigBreakDeadTime+0x138>)
 8006c26:	401a      	ands	r2, r3
 8006c28:	683b      	ldr	r3, [r7, #0]
 8006c2a:	69db      	ldr	r3, [r3, #28]
 8006c2c:	4313      	orrs	r3, r2
 8006c2e:	60fb      	str	r3, [r7, #12]
  }

  if (IS_TIM_BKIN2_INSTANCE(htim->Instance))
 8006c30:	687b      	ldr	r3, [r7, #4]
 8006c32:	681b      	ldr	r3, [r3, #0]
 8006c34:	4a1f      	ldr	r2, [pc, #124]	; (8006cb4 <HAL_TIMEx_ConfigBreakDeadTime+0x134>)
 8006c36:	4293      	cmp	r3, r2
 8006c38:	d121      	bne.n	8006c7e <HAL_TIMEx_ConfigBreakDeadTime+0xfe>
    assert_param(IS_TIM_BREAK2_STATE(sBreakDeadTimeConfig->Break2State));
    assert_param(IS_TIM_BREAK2_POLARITY(sBreakDeadTimeConfig->Break2Polarity));
    assert_param(IS_TIM_BREAK_FILTER(sBreakDeadTimeConfig->Break2Filter));

    /* Set the BREAK2 input related BDTR bits */
    MODIFY_REG(tmpbdtr, TIM_BDTR_BK2F, (sBreakDeadTimeConfig->Break2Filter << TIM_BDTR_BK2F_Pos));
 8006c3a:	68fb      	ldr	r3, [r7, #12]
 8006c3c:	4a1f      	ldr	r2, [pc, #124]	; (8006cbc <HAL_TIMEx_ConfigBreakDeadTime+0x13c>)
 8006c3e:	401a      	ands	r2, r3
 8006c40:	683b      	ldr	r3, [r7, #0]
 8006c42:	6a9b      	ldr	r3, [r3, #40]	; 0x28
 8006c44:	051b      	lsls	r3, r3, #20
 8006c46:	4313      	orrs	r3, r2
 8006c48:	60fb      	str	r3, [r7, #12]
    MODIFY_REG(tmpbdtr, TIM_BDTR_BK2E, sBreakDeadTimeConfig->Break2State);
 8006c4a:	68fb      	ldr	r3, [r7, #12]
 8006c4c:	4a1c      	ldr	r2, [pc, #112]	; (8006cc0 <HAL_TIMEx_ConfigBreakDeadTime+0x140>)
 8006c4e:	401a      	ands	r2, r3
 8006c50:	683b      	ldr	r3, [r7, #0]
 8006c52:	6a1b      	ldr	r3, [r3, #32]
 8006c54:	4313      	orrs	r3, r2
 8006c56:	60fb      	str	r3, [r7, #12]
    MODIFY_REG(tmpbdtr, TIM_BDTR_BK2P, sBreakDeadTimeConfig->Break2Polarity);
 8006c58:	68fb      	ldr	r3, [r7, #12]
 8006c5a:	4a1a      	ldr	r2, [pc, #104]	; (8006cc4 <HAL_TIMEx_ConfigBreakDeadTime+0x144>)
 8006c5c:	401a      	ands	r2, r3
 8006c5e:	683b      	ldr	r3, [r7, #0]
 8006c60:	6a5b      	ldr	r3, [r3, #36]	; 0x24
 8006c62:	4313      	orrs	r3, r2
 8006c64:	60fb      	str	r3, [r7, #12]

    if (IS_TIM_ADVANCED_INSTANCE(htim->Instance))
 8006c66:	687b      	ldr	r3, [r7, #4]
 8006c68:	681b      	ldr	r3, [r3, #0]
 8006c6a:	4a12      	ldr	r2, [pc, #72]	; (8006cb4 <HAL_TIMEx_ConfigBreakDeadTime+0x134>)
 8006c6c:	4293      	cmp	r3, r2
 8006c6e:	d106      	bne.n	8006c7e <HAL_TIMEx_ConfigBreakDeadTime+0xfe>
    {
      /* Check the parameters */
      assert_param(IS_TIM_BREAK2_AFMODE(sBreakDeadTimeConfig->Break2AFMode));

      /* Set BREAK2 AF mode */
      MODIFY_REG(tmpbdtr, TIM_BDTR_BK2BID, sBreakDeadTimeConfig->Break2AFMode);
 8006c70:	68fb      	ldr	r3, [r7, #12]
 8006c72:	4a15      	ldr	r2, [pc, #84]	; (8006cc8 <HAL_TIMEx_ConfigBreakDeadTime+0x148>)
 8006c74:	401a      	ands	r2, r3
 8006c76:	683b      	ldr	r3, [r7, #0]
 8006c78:	6adb      	ldr	r3, [r3, #44]	; 0x2c
 8006c7a:	4313      	orrs	r3, r2
 8006c7c:	60fb      	str	r3, [r7, #12]
    }
  }

  /* Set TIMx_BDTR */
  htim->Instance->BDTR = tmpbdtr;
 8006c7e:	687b      	ldr	r3, [r7, #4]
 8006c80:	681b      	ldr	r3, [r3, #0]
 8006c82:	68fa      	ldr	r2, [r7, #12]
 8006c84:	645a      	str	r2, [r3, #68]	; 0x44

  __HAL_UNLOCK(htim);
 8006c86:	687b      	ldr	r3, [r7, #4]
 8006c88:	223c      	movs	r2, #60	; 0x3c
 8006c8a:	2100      	movs	r1, #0
 8006c8c:	5499      	strb	r1, [r3, r2]

  return HAL_OK;
 8006c8e:	2300      	movs	r3, #0
}
 8006c90:	0018      	movs	r0, r3
 8006c92:	46bd      	mov	sp, r7
 8006c94:	b004      	add	sp, #16
 8006c96:	bd80      	pop	{r7, pc}
 8006c98:	fffffcff 	.word	0xfffffcff
 8006c9c:	fffffbff 	.word	0xfffffbff
 8006ca0:	fffff7ff 	.word	0xfffff7ff
 8006ca4:	ffffefff 	.word	0xffffefff
 8006ca8:	ffffdfff 	.word	0xffffdfff
 8006cac:	ffffbfff 	.word	0xffffbfff
 8006cb0:	fff0ffff 	.word	0xfff0ffff
 8006cb4:	40012c00 	.word	0x40012c00
 8006cb8:	efffffff 	.word	0xefffffff
 8006cbc:	ff0fffff 	.word	0xff0fffff
 8006cc0:	feffffff 	.word	0xfeffffff
 8006cc4:	fdffffff 	.word	0xfdffffff
 8006cc8:	dfffffff 	.word	0xdfffffff

08006ccc <HAL_TIMEx_CommutCallback>:
  * @brief  Hall commutation changed callback in non-blocking mode
  * @param  htim TIM handle
  * @retval None
  */
__weak void HAL_TIMEx_CommutCallback(TIM_HandleTypeDef *htim)
{
 8006ccc:	b580      	push	{r7, lr}
 8006cce:	b082      	sub	sp, #8
 8006cd0:	af00      	add	r7, sp, #0
 8006cd2:	6078      	str	r0, [r7, #4]
  UNUSED(htim);

  /* NOTE : This function should not be modified, when the callback is needed,
            the HAL_TIMEx_CommutCallback could be implemented in the user file
   */
}
 8006cd4:	46c0      	nop			; (mov r8, r8)
 8006cd6:	46bd      	mov	sp, r7
 8006cd8:	b002      	add	sp, #8
 8006cda:	bd80      	pop	{r7, pc}

08006cdc <HAL_TIMEx_BreakCallback>:
  * @brief  Hall Break detection callback in non-blocking mode
  * @param  htim TIM handle
  * @retval None
  */
__weak void HAL_TIMEx_BreakCallback(TIM_HandleTypeDef *htim)
{
 8006cdc:	b580      	push	{r7, lr}
 8006cde:	b082      	sub	sp, #8
 8006ce0:	af00      	add	r7, sp, #0
 8006ce2:	6078      	str	r0, [r7, #4]
  UNUSED(htim);

  /* NOTE : This function should not be modified, when the callback is needed,
            the HAL_TIMEx_BreakCallback could be implemented in the user file
   */
}
 8006ce4:	46c0      	nop			; (mov r8, r8)
 8006ce6:	46bd      	mov	sp, r7
 8006ce8:	b002      	add	sp, #8
 8006cea:	bd80      	pop	{r7, pc}

08006cec <HAL_TIMEx_Break2Callback>:
  * @brief  Hall Break2 detection callback in non blocking mode
  * @param  htim: TIM handle
  * @retval None
  */
__weak void HAL_TIMEx_Break2Callback(TIM_HandleTypeDef *htim)
{
 8006cec:	b580      	push	{r7, lr}
 8006cee:	b082      	sub	sp, #8
 8006cf0:	af00      	add	r7, sp, #0
 8006cf2:	6078      	str	r0, [r7, #4]
  UNUSED(htim);

  /* NOTE : This function Should not be modified, when the callback is needed,
            the HAL_TIMEx_Break2Callback could be implemented in the user file
   */
}
 8006cf4:	46c0      	nop			; (mov r8, r8)
 8006cf6:	46bd      	mov	sp, r7
 8006cf8:	b002      	add	sp, #8
 8006cfa:	bd80      	pop	{r7, pc}

08006cfc <fe25519_unpack>:
 8006cfc:	788b      	ldrb	r3, [r1, #2]
 8006cfe:	78ca      	ldrb	r2, [r1, #3]
 8006d00:	041b      	lsls	r3, r3, #16
 8006d02:	0612      	lsls	r2, r2, #24
 8006d04:	4313      	orrs	r3, r2
 8006d06:	780a      	ldrb	r2, [r1, #0]
 8006d08:	4313      	orrs	r3, r2
 8006d0a:	784a      	ldrb	r2, [r1, #1]
 8006d0c:	0212      	lsls	r2, r2, #8
 8006d0e:	4313      	orrs	r3, r2
 8006d10:	6003      	str	r3, [r0, #0]
 8006d12:	79cb      	ldrb	r3, [r1, #7]
 8006d14:	798a      	ldrb	r2, [r1, #6]
 8006d16:	061b      	lsls	r3, r3, #24
 8006d18:	0412      	lsls	r2, r2, #16
 8006d1a:	4313      	orrs	r3, r2
 8006d1c:	790a      	ldrb	r2, [r1, #4]
 8006d1e:	4313      	orrs	r3, r2
 8006d20:	794a      	ldrb	r2, [r1, #5]
 8006d22:	0212      	lsls	r2, r2, #8
 8006d24:	4313      	orrs	r3, r2
 8006d26:	6043      	str	r3, [r0, #4]
 8006d28:	7acb      	ldrb	r3, [r1, #11]
 8006d2a:	7a8a      	ldrb	r2, [r1, #10]
 8006d2c:	061b      	lsls	r3, r3, #24
 8006d2e:	0412      	lsls	r2, r2, #16
 8006d30:	4313      	orrs	r3, r2
 8006d32:	7a0a      	ldrb	r2, [r1, #8]
 8006d34:	4313      	orrs	r3, r2
 8006d36:	7a4a      	ldrb	r2, [r1, #9]
 8006d38:	0212      	lsls	r2, r2, #8
 8006d3a:	4313      	orrs	r3, r2
 8006d3c:	6083      	str	r3, [r0, #8]
 8006d3e:	7bcb      	ldrb	r3, [r1, #15]
 8006d40:	7b8a      	ldrb	r2, [r1, #14]
 8006d42:	061b      	lsls	r3, r3, #24
 8006d44:	0412      	lsls	r2, r2, #16
 8006d46:	4313      	orrs	r3, r2
 8006d48:	7b0a      	ldrb	r2, [r1, #12]
 8006d4a:	4313      	orrs	r3, r2
 8006d4c:	7b4a      	ldrb	r2, [r1, #13]
 8006d4e:	0212      	lsls	r2, r2, #8
 8006d50:	4313      	orrs	r3, r2
 8006d52:	60c3      	str	r3, [r0, #12]
 8006d54:	7ccb      	ldrb	r3, [r1, #19]
 8006d56:	7c8a      	ldrb	r2, [r1, #18]
 8006d58:	061b      	lsls	r3, r3, #24
 8006d5a:	0412      	lsls	r2, r2, #16
 8006d5c:	4313      	orrs	r3, r2
 8006d5e:	7c0a      	ldrb	r2, [r1, #16]
 8006d60:	4313      	orrs	r3, r2
 8006d62:	7c4a      	ldrb	r2, [r1, #17]
 8006d64:	0212      	lsls	r2, r2, #8
 8006d66:	4313      	orrs	r3, r2
 8006d68:	6103      	str	r3, [r0, #16]
 8006d6a:	7dcb      	ldrb	r3, [r1, #23]
 8006d6c:	7d8a      	ldrb	r2, [r1, #22]
 8006d6e:	061b      	lsls	r3, r3, #24
 8006d70:	0412      	lsls	r2, r2, #16
 8006d72:	4313      	orrs	r3, r2
 8006d74:	7d0a      	ldrb	r2, [r1, #20]
 8006d76:	4313      	orrs	r3, r2
 8006d78:	7d4a      	ldrb	r2, [r1, #21]
 8006d7a:	0212      	lsls	r2, r2, #8
 8006d7c:	4313      	orrs	r3, r2
 8006d7e:	6143      	str	r3, [r0, #20]
 8006d80:	7ecb      	ldrb	r3, [r1, #27]
 8006d82:	7e8a      	ldrb	r2, [r1, #26]
 8006d84:	061b      	lsls	r3, r3, #24
 8006d86:	0412      	lsls	r2, r2, #16
 8006d88:	4313      	orrs	r3, r2
 8006d8a:	7e0a      	ldrb	r2, [r1, #24]
 8006d8c:	4313      	orrs	r3, r2
 8006d8e:	7e4a      	ldrb	r2, [r1, #25]
 8006d90:	0212      	lsls	r2, r2, #8
 8006d92:	4313      	orrs	r3, r2
 8006d94:	6183      	str	r3, [r0, #24]
 8006d96:	7fcb      	ldrb	r3, [r1, #31]
 8006d98:	7f8a      	ldrb	r2, [r1, #30]
 8006d9a:	061b      	lsls	r3, r3, #24
 8006d9c:	0412      	lsls	r2, r2, #16
 8006d9e:	4313      	orrs	r3, r2
 8006da0:	7f0a      	ldrb	r2, [r1, #28]
 8006da2:	4313      	orrs	r3, r2
 8006da4:	7f4a      	ldrb	r2, [r1, #29]
 8006da6:	0212      	lsls	r2, r2, #8
 8006da8:	4313      	orrs	r3, r2
 8006daa:	005b      	lsls	r3, r3, #1
 8006dac:	085b      	lsrs	r3, r3, #1
 8006dae:	61c3      	str	r3, [r0, #28]
 8006db0:	4770      	bx	lr
 8006db2:	46c0      	nop			; (mov r8, r8)

08006db4 <fe25519_cmov>:
 8006db4:	680b      	ldr	r3, [r1, #0]
 8006db6:	b510      	push	{r4, lr}
 8006db8:	6804      	ldr	r4, [r0, #0]
 8006dba:	4252      	negs	r2, r2
 8006dbc:	4063      	eors	r3, r4
 8006dbe:	4013      	ands	r3, r2
 8006dc0:	4063      	eors	r3, r4
 8006dc2:	6003      	str	r3, [r0, #0]
 8006dc4:	684b      	ldr	r3, [r1, #4]
 8006dc6:	6844      	ldr	r4, [r0, #4]
 8006dc8:	4063      	eors	r3, r4
 8006dca:	4013      	ands	r3, r2
 8006dcc:	4063      	eors	r3, r4
 8006dce:	6043      	str	r3, [r0, #4]
 8006dd0:	688b      	ldr	r3, [r1, #8]
 8006dd2:	6884      	ldr	r4, [r0, #8]
 8006dd4:	4063      	eors	r3, r4
 8006dd6:	4013      	ands	r3, r2
 8006dd8:	4063      	eors	r3, r4
 8006dda:	6083      	str	r3, [r0, #8]
 8006ddc:	68cb      	ldr	r3, [r1, #12]
 8006dde:	68c4      	ldr	r4, [r0, #12]
 8006de0:	4063      	eors	r3, r4
 8006de2:	4013      	ands	r3, r2
 8006de4:	4063      	eors	r3, r4
 8006de6:	60c3      	str	r3, [r0, #12]
 8006de8:	690b      	ldr	r3, [r1, #16]
 8006dea:	6904      	ldr	r4, [r0, #16]
 8006dec:	4063      	eors	r3, r4
 8006dee:	4013      	ands	r3, r2
 8006df0:	4063      	eors	r3, r4
 8006df2:	6103      	str	r3, [r0, #16]
 8006df4:	6944      	ldr	r4, [r0, #20]
 8006df6:	694b      	ldr	r3, [r1, #20]
 8006df8:	4063      	eors	r3, r4
 8006dfa:	4013      	ands	r3, r2
 8006dfc:	4063      	eors	r3, r4
 8006dfe:	6143      	str	r3, [r0, #20]
 8006e00:	6984      	ldr	r4, [r0, #24]
 8006e02:	698b      	ldr	r3, [r1, #24]
 8006e04:	4063      	eors	r3, r4
 8006e06:	4013      	ands	r3, r2
 8006e08:	4063      	eors	r3, r4
 8006e0a:	6183      	str	r3, [r0, #24]
 8006e0c:	69c4      	ldr	r4, [r0, #28]
 8006e0e:	69cb      	ldr	r3, [r1, #28]
 8006e10:	4063      	eors	r3, r4
 8006e12:	401a      	ands	r2, r3
 8006e14:	4062      	eors	r2, r4
 8006e16:	61c2      	str	r2, [r0, #28]
 8006e18:	bd10      	pop	{r4, pc}
 8006e1a:	46c0      	nop			; (mov r8, r8)

08006e1c <fe25519_copy>:
 8006e1c:	680b      	ldr	r3, [r1, #0]
 8006e1e:	6003      	str	r3, [r0, #0]
 8006e20:	684b      	ldr	r3, [r1, #4]
 8006e22:	6043      	str	r3, [r0, #4]
 8006e24:	688b      	ldr	r3, [r1, #8]
 8006e26:	6083      	str	r3, [r0, #8]
 8006e28:	68cb      	ldr	r3, [r1, #12]
 8006e2a:	60c3      	str	r3, [r0, #12]
 8006e2c:	690b      	ldr	r3, [r1, #16]
 8006e2e:	6103      	str	r3, [r0, #16]
 8006e30:	694b      	ldr	r3, [r1, #20]
 8006e32:	6143      	str	r3, [r0, #20]
 8006e34:	698b      	ldr	r3, [r1, #24]
 8006e36:	6183      	str	r3, [r0, #24]
 8006e38:	69cb      	ldr	r3, [r1, #28]
 8006e3a:	61c3      	str	r3, [r0, #28]
 8006e3c:	4770      	bx	lr
 8006e3e:	46c0      	nop			; (mov r8, r8)

08006e40 <fe25519_setone>:
 8006e40:	2301      	movs	r3, #1
 8006e42:	6003      	str	r3, [r0, #0]
 8006e44:	2300      	movs	r3, #0
 8006e46:	6043      	str	r3, [r0, #4]
 8006e48:	6083      	str	r3, [r0, #8]
 8006e4a:	60c3      	str	r3, [r0, #12]
 8006e4c:	6103      	str	r3, [r0, #16]
 8006e4e:	6143      	str	r3, [r0, #20]
 8006e50:	6183      	str	r3, [r0, #24]
 8006e52:	61c3      	str	r3, [r0, #28]
 8006e54:	4770      	bx	lr
 8006e56:	46c0      	nop			; (mov r8, r8)

08006e58 <fe25519_setzero>:
 8006e58:	b510      	push	{r4, lr}
 8006e5a:	2220      	movs	r2, #32
 8006e5c:	2100      	movs	r1, #0
 8006e5e:	f001 faf8 	bl	8008452 <memset>
 8006e62:	bd10      	pop	{r4, pc}

08006e64 <fe25519_add>:
 8006e64:	000b      	movs	r3, r1
 8006e66:	6809      	ldr	r1, [r1, #0]
 8006e68:	b5f0      	push	{r4, r5, r6, r7, lr}
 8006e6a:	464f      	mov	r7, r9
 8006e6c:	4689      	mov	r9, r1
 8006e6e:	6811      	ldr	r1, [r2, #0]
 8006e70:	46d6      	mov	lr, sl
 8006e72:	4646      	mov	r6, r8
 8006e74:	000c      	movs	r4, r1
 8006e76:	4680      	mov	r8, r0
 8006e78:	468a      	mov	sl, r1
 8006e7a:	2500      	movs	r5, #0
 8006e7c:	4648      	mov	r0, r9
 8006e7e:	2100      	movs	r1, #0
 8006e80:	1900      	adds	r0, r0, r4
 8006e82:	4169      	adcs	r1, r5
 8006e84:	b5c0      	push	{r6, r7, lr}
 8006e86:	000c      	movs	r4, r1
 8006e88:	2700      	movs	r7, #0
 8006e8a:	2100      	movs	r1, #0
 8006e8c:	6850      	ldr	r0, [r2, #4]
 8006e8e:	685e      	ldr	r6, [r3, #4]
 8006e90:	2500      	movs	r5, #0
 8006e92:	1980      	adds	r0, r0, r6
 8006e94:	4179      	adcs	r1, r7
 8006e96:	1900      	adds	r0, r0, r4
 8006e98:	4169      	adcs	r1, r5
 8006e9a:	b08c      	sub	sp, #48	; 0x30
 8006e9c:	9000      	str	r0, [sp, #0]
 8006e9e:	9101      	str	r1, [sp, #4]
 8006ea0:	000c      	movs	r4, r1
 8006ea2:	2700      	movs	r7, #0
 8006ea4:	2100      	movs	r1, #0
 8006ea6:	6890      	ldr	r0, [r2, #8]
 8006ea8:	689e      	ldr	r6, [r3, #8]
 8006eaa:	2500      	movs	r5, #0
 8006eac:	1980      	adds	r0, r0, r6
 8006eae:	4179      	adcs	r1, r7
 8006eb0:	0006      	movs	r6, r0
 8006eb2:	000f      	movs	r7, r1
 8006eb4:	1936      	adds	r6, r6, r4
 8006eb6:	416f      	adcs	r7, r5
 8006eb8:	2100      	movs	r1, #0
 8006eba:	9602      	str	r6, [sp, #8]
 8006ebc:	9703      	str	r7, [sp, #12]
 8006ebe:	003c      	movs	r4, r7
 8006ec0:	2700      	movs	r7, #0
 8006ec2:	68d6      	ldr	r6, [r2, #12]
 8006ec4:	68d8      	ldr	r0, [r3, #12]
 8006ec6:	2500      	movs	r5, #0
 8006ec8:	1980      	adds	r0, r0, r6
 8006eca:	4179      	adcs	r1, r7
 8006ecc:	1900      	adds	r0, r0, r4
 8006ece:	4169      	adcs	r1, r5
 8006ed0:	2700      	movs	r7, #0
 8006ed2:	9004      	str	r0, [sp, #16]
 8006ed4:	9105      	str	r1, [sp, #20]
 8006ed6:	000c      	movs	r4, r1
 8006ed8:	2100      	movs	r1, #0
 8006eda:	6916      	ldr	r6, [r2, #16]
 8006edc:	6918      	ldr	r0, [r3, #16]
 8006ede:	2500      	movs	r5, #0
 8006ee0:	1980      	adds	r0, r0, r6
 8006ee2:	4179      	adcs	r1, r7
 8006ee4:	0006      	movs	r6, r0
 8006ee6:	000f      	movs	r7, r1
 8006ee8:	1936      	adds	r6, r6, r4
 8006eea:	416f      	adcs	r7, r5
 8006eec:	2100      	movs	r1, #0
 8006eee:	9606      	str	r6, [sp, #24]
 8006ef0:	9707      	str	r7, [sp, #28]
 8006ef2:	003c      	movs	r4, r7
 8006ef4:	2700      	movs	r7, #0
 8006ef6:	6956      	ldr	r6, [r2, #20]
 8006ef8:	6958      	ldr	r0, [r3, #20]
 8006efa:	2500      	movs	r5, #0
 8006efc:	1980      	adds	r0, r0, r6
 8006efe:	4179      	adcs	r1, r7
 8006f00:	1900      	adds	r0, r0, r4
 8006f02:	4169      	adcs	r1, r5
 8006f04:	2700      	movs	r7, #0
 8006f06:	9008      	str	r0, [sp, #32]
 8006f08:	9109      	str	r1, [sp, #36]	; 0x24
 8006f0a:	000c      	movs	r4, r1
 8006f0c:	2100      	movs	r1, #0
 8006f0e:	6996      	ldr	r6, [r2, #24]
 8006f10:	6998      	ldr	r0, [r3, #24]
 8006f12:	2500      	movs	r5, #0
 8006f14:	1980      	adds	r0, r0, r6
 8006f16:	4179      	adcs	r1, r7
 8006f18:	0006      	movs	r6, r0
 8006f1a:	000f      	movs	r7, r1
 8006f1c:	1936      	adds	r6, r6, r4
 8006f1e:	416f      	adcs	r7, r5
 8006f20:	003d      	movs	r5, r7
 8006f22:	0034      	movs	r4, r6
 8006f24:	2100      	movs	r1, #0
 8006f26:	940a      	str	r4, [sp, #40]	; 0x28
 8006f28:	950b      	str	r5, [sp, #44]	; 0x2c
 8006f2a:	002e      	movs	r6, r5
 8006f2c:	2500      	movs	r5, #0
 8006f2e:	69d4      	ldr	r4, [r2, #28]
 8006f30:	69d8      	ldr	r0, [r3, #28]
 8006f32:	2700      	movs	r7, #0
 8006f34:	1900      	adds	r0, r0, r4
 8006f36:	4169      	adcs	r1, r5
 8006f38:	1836      	adds	r6, r6, r0
 8006f3a:	414f      	adcs	r7, r1
 8006f3c:	2226      	movs	r2, #38	; 0x26
 8006f3e:	2300      	movs	r3, #0
 8006f40:	0038      	movs	r0, r7
 8006f42:	44ca      	add	sl, r9
 8006f44:	2100      	movs	r1, #0
 8006f46:	f7f9 f96b 	bl	8000220 <__aeabi_lmul>
 8006f4a:	4652      	mov	r2, sl
 8006f4c:	2300      	movs	r3, #0
 8006f4e:	1880      	adds	r0, r0, r2
 8006f50:	4159      	adcs	r1, r3
 8006f52:	2500      	movs	r5, #0
 8006f54:	000c      	movs	r4, r1
 8006f56:	2300      	movs	r3, #0
 8006f58:	9a00      	ldr	r2, [sp, #0]
 8006f5a:	1912      	adds	r2, r2, r4
 8006f5c:	416b      	adcs	r3, r5
 8006f5e:	4645      	mov	r5, r8
 8006f60:	001c      	movs	r4, r3
 8006f62:	606a      	str	r2, [r5, #4]
 8006f64:	2300      	movs	r3, #0
 8006f66:	2500      	movs	r5, #0
 8006f68:	9a02      	ldr	r2, [sp, #8]
 8006f6a:	1912      	adds	r2, r2, r4
 8006f6c:	416b      	adcs	r3, r5
 8006f6e:	4645      	mov	r5, r8
 8006f70:	001c      	movs	r4, r3
 8006f72:	60aa      	str	r2, [r5, #8]
 8006f74:	2300      	movs	r3, #0
 8006f76:	2500      	movs	r5, #0
 8006f78:	9a04      	ldr	r2, [sp, #16]
 8006f7a:	1912      	adds	r2, r2, r4
 8006f7c:	416b      	adcs	r3, r5
 8006f7e:	4645      	mov	r5, r8
 8006f80:	001c      	movs	r4, r3
 8006f82:	60ea      	str	r2, [r5, #12]
 8006f84:	2300      	movs	r3, #0
 8006f86:	2500      	movs	r5, #0
 8006f88:	9a06      	ldr	r2, [sp, #24]
 8006f8a:	1912      	adds	r2, r2, r4
 8006f8c:	416b      	adcs	r3, r5
 8006f8e:	4645      	mov	r5, r8
 8006f90:	001c      	movs	r4, r3
 8006f92:	612a      	str	r2, [r5, #16]
 8006f94:	2300      	movs	r3, #0
 8006f96:	2500      	movs	r5, #0
 8006f98:	9a08      	ldr	r2, [sp, #32]
 8006f9a:	1912      	adds	r2, r2, r4
 8006f9c:	416b      	adcs	r3, r5
 8006f9e:	4645      	mov	r5, r8
 8006fa0:	001c      	movs	r4, r3
 8006fa2:	616a      	str	r2, [r5, #20]
 8006fa4:	2300      	movs	r3, #0
 8006fa6:	2500      	movs	r5, #0
 8006fa8:	9a0a      	ldr	r2, [sp, #40]	; 0x28
 8006faa:	1912      	adds	r2, r2, r4
 8006fac:	416b      	adcs	r3, r5
 8006fae:	4644      	mov	r4, r8
 8006fb0:	2500      	movs	r5, #0
 8006fb2:	61a2      	str	r2, [r4, #24]
 8006fb4:	0032      	movs	r2, r6
 8006fb6:	001c      	movs	r4, r3
 8006fb8:	2300      	movs	r3, #0
 8006fba:	18a4      	adds	r4, r4, r2
 8006fbc:	415d      	adcs	r5, r3
 8006fbe:	2226      	movs	r2, #38	; 0x26
 8006fc0:	4643      	mov	r3, r8
 8006fc2:	436a      	muls	r2, r5
 8006fc4:	1810      	adds	r0, r2, r0
 8006fc6:	61dc      	str	r4, [r3, #28]
 8006fc8:	6018      	str	r0, [r3, #0]
 8006fca:	b00c      	add	sp, #48	; 0x30
 8006fcc:	bc1c      	pop	{r2, r3, r4}
 8006fce:	4690      	mov	r8, r2
 8006fd0:	4699      	mov	r9, r3
 8006fd2:	46a2      	mov	sl, r4
 8006fd4:	bdf0      	pop	{r4, r5, r6, r7, pc}
 8006fd6:	46c0      	nop			; (mov r8, r8)

08006fd8 <fe25519_sub>:
 8006fd8:	000b      	movs	r3, r1
 8006fda:	6809      	ldr	r1, [r1, #0]
 8006fdc:	b5f0      	push	{r4, r5, r6, r7, lr}
 8006fde:	46d6      	mov	lr, sl
 8006fe0:	468a      	mov	sl, r1
 8006fe2:	6811      	ldr	r1, [r2, #0]
 8006fe4:	464f      	mov	r7, r9
 8006fe6:	4689      	mov	r9, r1
 8006fe8:	4646      	mov	r6, r8
 8006fea:	464c      	mov	r4, r9
 8006fec:	4680      	mov	r8, r0
 8006fee:	2500      	movs	r5, #0
 8006ff0:	4650      	mov	r0, sl
 8006ff2:	2100      	movs	r1, #0
 8006ff4:	1b00      	subs	r0, r0, r4
 8006ff6:	41a9      	sbcs	r1, r5
 8006ff8:	b5c0      	push	{r6, r7, lr}
 8006ffa:	000c      	movs	r4, r1
 8006ffc:	17cd      	asrs	r5, r1, #31
 8006ffe:	2700      	movs	r7, #0
 8007000:	2100      	movs	r1, #0
 8007002:	6856      	ldr	r6, [r2, #4]
 8007004:	6858      	ldr	r0, [r3, #4]
 8007006:	b08c      	sub	sp, #48	; 0x30
 8007008:	1b80      	subs	r0, r0, r6
 800700a:	41b9      	sbcs	r1, r7
 800700c:	1900      	adds	r0, r0, r4
 800700e:	4169      	adcs	r1, r5
 8007010:	2700      	movs	r7, #0
 8007012:	9000      	str	r0, [sp, #0]
 8007014:	9101      	str	r1, [sp, #4]
 8007016:	000c      	movs	r4, r1
 8007018:	17cd      	asrs	r5, r1, #31
 800701a:	2100      	movs	r1, #0
 800701c:	6896      	ldr	r6, [r2, #8]
 800701e:	6898      	ldr	r0, [r3, #8]
 8007020:	1b80      	subs	r0, r0, r6
 8007022:	41b9      	sbcs	r1, r7
 8007024:	0006      	movs	r6, r0
 8007026:	000f      	movs	r7, r1
 8007028:	1936      	adds	r6, r6, r4
 800702a:	416f      	adcs	r7, r5
 800702c:	2100      	movs	r1, #0
 800702e:	9602      	str	r6, [sp, #8]
 8007030:	9703      	str	r7, [sp, #12]
 8007032:	003c      	movs	r4, r7
 8007034:	17fd      	asrs	r5, r7, #31
 8007036:	2700      	movs	r7, #0
 8007038:	68d6      	ldr	r6, [r2, #12]
 800703a:	68d8      	ldr	r0, [r3, #12]
 800703c:	1b80      	subs	r0, r0, r6
 800703e:	41b9      	sbcs	r1, r7
 8007040:	1900      	adds	r0, r0, r4
 8007042:	4169      	adcs	r1, r5
 8007044:	2700      	movs	r7, #0
 8007046:	9004      	str	r0, [sp, #16]
 8007048:	9105      	str	r1, [sp, #20]
 800704a:	000c      	movs	r4, r1
 800704c:	17cd      	asrs	r5, r1, #31
 800704e:	2100      	movs	r1, #0
 8007050:	6916      	ldr	r6, [r2, #16]
 8007052:	6918      	ldr	r0, [r3, #16]
 8007054:	1b80      	subs	r0, r0, r6
 8007056:	41b9      	sbcs	r1, r7
 8007058:	0006      	movs	r6, r0
 800705a:	000f      	movs	r7, r1
 800705c:	1936      	adds	r6, r6, r4
 800705e:	416f      	adcs	r7, r5
 8007060:	2100      	movs	r1, #0
 8007062:	9606      	str	r6, [sp, #24]
 8007064:	9707      	str	r7, [sp, #28]
 8007066:	003c      	movs	r4, r7
 8007068:	17fd      	asrs	r5, r7, #31
 800706a:	2700      	movs	r7, #0
 800706c:	6956      	ldr	r6, [r2, #20]
 800706e:	6958      	ldr	r0, [r3, #20]
 8007070:	1b80      	subs	r0, r0, r6
 8007072:	41b9      	sbcs	r1, r7
 8007074:	1900      	adds	r0, r0, r4
 8007076:	4169      	adcs	r1, r5
 8007078:	2700      	movs	r7, #0
 800707a:	9008      	str	r0, [sp, #32]
 800707c:	9109      	str	r1, [sp, #36]	; 0x24
 800707e:	000c      	movs	r4, r1
 8007080:	17cd      	asrs	r5, r1, #31
 8007082:	2100      	movs	r1, #0
 8007084:	6996      	ldr	r6, [r2, #24]
 8007086:	6998      	ldr	r0, [r3, #24]
 8007088:	1b80      	subs	r0, r0, r6
 800708a:	41b9      	sbcs	r1, r7
 800708c:	0006      	movs	r6, r0
 800708e:	000f      	movs	r7, r1
 8007090:	1936      	adds	r6, r6, r4
 8007092:	416f      	adcs	r7, r5
 8007094:	0034      	movs	r4, r6
 8007096:	003d      	movs	r5, r7
 8007098:	0038      	movs	r0, r7
 800709a:	940a      	str	r4, [sp, #40]	; 0x28
 800709c:	950b      	str	r5, [sp, #44]	; 0x2c
 800709e:	17f9      	asrs	r1, r7, #31
 80070a0:	2500      	movs	r5, #0
 80070a2:	2700      	movs	r7, #0
 80070a4:	69d4      	ldr	r4, [r2, #28]
 80070a6:	69de      	ldr	r6, [r3, #28]
 80070a8:	2226      	movs	r2, #38	; 0x26
 80070aa:	1b36      	subs	r6, r6, r4
 80070ac:	41af      	sbcs	r7, r5
 80070ae:	1836      	adds	r6, r6, r0
 80070b0:	414f      	adcs	r7, r1
 80070b2:	4655      	mov	r5, sl
 80070b4:	464c      	mov	r4, r9
 80070b6:	17f9      	asrs	r1, r7, #31
 80070b8:	2300      	movs	r3, #0
 80070ba:	0038      	movs	r0, r7
 80070bc:	f7f9 f8b0 	bl	8000220 <__aeabi_lmul>
 80070c0:	2300      	movs	r3, #0
 80070c2:	1b2a      	subs	r2, r5, r4
 80070c4:	1880      	adds	r0, r0, r2
 80070c6:	4159      	adcs	r1, r3
 80070c8:	2500      	movs	r5, #0
 80070ca:	000a      	movs	r2, r1
 80070cc:	9c00      	ldr	r4, [sp, #0]
 80070ce:	17cb      	asrs	r3, r1, #31
 80070d0:	1912      	adds	r2, r2, r4
 80070d2:	416b      	adcs	r3, r5
 80070d4:	4645      	mov	r5, r8
 80070d6:	001c      	movs	r4, r3
 80070d8:	606a      	str	r2, [r5, #4]
 80070da:	17dd      	asrs	r5, r3, #31
 80070dc:	2300      	movs	r3, #0
 80070de:	9a02      	ldr	r2, [sp, #8]
 80070e0:	18a4      	adds	r4, r4, r2
 80070e2:	415d      	adcs	r5, r3
 80070e4:	4643      	mov	r3, r8
 80070e6:	002a      	movs	r2, r5
 80070e8:	609c      	str	r4, [r3, #8]
 80070ea:	17eb      	asrs	r3, r5, #31
 80070ec:	2500      	movs	r5, #0
 80070ee:	9c04      	ldr	r4, [sp, #16]
 80070f0:	18a4      	adds	r4, r4, r2
 80070f2:	415d      	adcs	r5, r3
 80070f4:	4643      	mov	r3, r8
 80070f6:	002a      	movs	r2, r5
 80070f8:	60dc      	str	r4, [r3, #12]
 80070fa:	17eb      	asrs	r3, r5, #31
 80070fc:	2500      	movs	r5, #0
 80070fe:	9c06      	ldr	r4, [sp, #24]
 8007100:	1912      	adds	r2, r2, r4
 8007102:	416b      	adcs	r3, r5
 8007104:	4645      	mov	r5, r8
 8007106:	001c      	movs	r4, r3
 8007108:	612a      	str	r2, [r5, #16]
 800710a:	17dd      	asrs	r5, r3, #31
 800710c:	2300      	movs	r3, #0
 800710e:	9a08      	ldr	r2, [sp, #32]
 8007110:	1912      	adds	r2, r2, r4
 8007112:	416b      	adcs	r3, r5
 8007114:	4645      	mov	r5, r8
 8007116:	001c      	movs	r4, r3
 8007118:	616a      	str	r2, [r5, #20]
 800711a:	17dd      	asrs	r5, r3, #31
 800711c:	2300      	movs	r3, #0
 800711e:	9a0a      	ldr	r2, [sp, #40]	; 0x28
 8007120:	1912      	adds	r2, r2, r4
 8007122:	416b      	adcs	r3, r5
 8007124:	4644      	mov	r4, r8
 8007126:	17dd      	asrs	r5, r3, #31
 8007128:	61a2      	str	r2, [r4, #24]
 800712a:	0032      	movs	r2, r6
 800712c:	001c      	movs	r4, r3
 800712e:	2300      	movs	r3, #0
 8007130:	18a4      	adds	r4, r4, r2
 8007132:	415d      	adcs	r5, r3
 8007134:	2226      	movs	r2, #38	; 0x26
 8007136:	4643      	mov	r3, r8
 8007138:	436a      	muls	r2, r5
 800713a:	1810      	adds	r0, r2, r0
 800713c:	61dc      	str	r4, [r3, #28]
 800713e:	6018      	str	r0, [r3, #0]
 8007140:	b00c      	add	sp, #48	; 0x30
 8007142:	bc1c      	pop	{r2, r3, r4}
 8007144:	4690      	mov	r8, r2
 8007146:	4699      	mov	r9, r3
 8007148:	46a2      	mov	sl, r4
 800714a:	bdf0      	pop	{r4, r5, r6, r7, pc}

0800714c <fe25519_freeze>:
 800714c:	b5f0      	push	{r4, r5, r6, r7, lr}
 800714e:	4684      	mov	ip, r0
 8007150:	2413      	movs	r4, #19
 8007152:	69c3      	ldr	r3, [r0, #28]
 8007154:	2100      	movs	r1, #0
 8007156:	17db      	asrs	r3, r3, #31
 8007158:	401c      	ands	r4, r3
 800715a:	4663      	mov	r3, ip
 800715c:	0022      	movs	r2, r4
 800715e:	6818      	ldr	r0, [r3, #0]
 8007160:	2300      	movs	r3, #0
 8007162:	1880      	adds	r0, r0, r2
 8007164:	4159      	adcs	r1, r3
 8007166:	4663      	mov	r3, ip
 8007168:	681b      	ldr	r3, [r3, #0]
 800716a:	4647      	mov	r7, r8
 800716c:	4698      	mov	r8, r3
 800716e:	44a0      	add	r8, r4
 8007170:	46ce      	mov	lr, r9
 8007172:	4663      	mov	r3, ip
 8007174:	4642      	mov	r2, r8
 8007176:	b580      	push	{r7, lr}
 8007178:	601a      	str	r2, [r3, #0]
 800717a:	000a      	movs	r2, r1
 800717c:	4661      	mov	r1, ip
 800717e:	2300      	movs	r3, #0
 8007180:	2500      	movs	r5, #0
 8007182:	684c      	ldr	r4, [r1, #4]
 8007184:	2700      	movs	r7, #0
 8007186:	18a4      	adds	r4, r4, r2
 8007188:	415d      	adcs	r5, r3
 800718a:	2300      	movs	r3, #0
 800718c:	002a      	movs	r2, r5
 800718e:	688e      	ldr	r6, [r1, #8]
 8007190:	b093      	sub	sp, #76	; 0x4c
 8007192:	18b6      	adds	r6, r6, r2
 8007194:	415f      	adcs	r7, r3
 8007196:	4663      	mov	r3, ip
 8007198:	604c      	str	r4, [r1, #4]
 800719a:	9600      	str	r6, [sp, #0]
 800719c:	9701      	str	r7, [sp, #4]
 800719e:	0038      	movs	r0, r7
 80071a0:	2100      	movs	r1, #0
 80071a2:	2700      	movs	r7, #0
 80071a4:	609e      	str	r6, [r3, #8]
 80071a6:	68de      	ldr	r6, [r3, #12]
 80071a8:	2500      	movs	r5, #0
 80071aa:	1980      	adds	r0, r0, r6
 80071ac:	4179      	adcs	r1, r7
 80071ae:	9002      	str	r0, [sp, #8]
 80071b0:	9103      	str	r1, [sp, #12]
 80071b2:	000a      	movs	r2, r1
 80071b4:	4661      	mov	r1, ip
 80071b6:	60d8      	str	r0, [r3, #12]
 80071b8:	2700      	movs	r7, #0
 80071ba:	2300      	movs	r3, #0
 80071bc:	690e      	ldr	r6, [r1, #16]
 80071be:	18b6      	adds	r6, r6, r2
 80071c0:	415f      	adcs	r7, r3
 80071c2:	0030      	movs	r0, r6
 80071c4:	0039      	movs	r1, r7
 80071c6:	4663      	mov	r3, ip
 80071c8:	9004      	str	r0, [sp, #16]
 80071ca:	9105      	str	r1, [sp, #20]
 80071cc:	4661      	mov	r1, ip
 80071ce:	611e      	str	r6, [r3, #16]
 80071d0:	003a      	movs	r2, r7
 80071d2:	2300      	movs	r3, #0
 80071d4:	2700      	movs	r7, #0
 80071d6:	694e      	ldr	r6, [r1, #20]
 80071d8:	4660      	mov	r0, ip
 80071da:	18b6      	adds	r6, r6, r2
 80071dc:	415f      	adcs	r7, r3
 80071de:	4663      	mov	r3, ip
 80071e0:	9606      	str	r6, [sp, #24]
 80071e2:	9707      	str	r7, [sp, #28]
 80071e4:	615e      	str	r6, [r3, #20]
 80071e6:	003a      	movs	r2, r7
 80071e8:	2300      	movs	r3, #0
 80071ea:	2700      	movs	r7, #0
 80071ec:	698e      	ldr	r6, [r1, #24]
 80071ee:	18b6      	adds	r6, r6, r2
 80071f0:	415f      	adcs	r7, r3
 80071f2:	003b      	movs	r3, r7
 80071f4:	0032      	movs	r2, r6
 80071f6:	618e      	str	r6, [r1, #24]
 80071f8:	9208      	str	r2, [sp, #32]
 80071fa:	9309      	str	r3, [sp, #36]	; 0x24
 80071fc:	001e      	movs	r6, r3
 80071fe:	2700      	movs	r7, #0
 8007200:	2300      	movs	r3, #0
 8007202:	69ca      	ldr	r2, [r1, #28]
 8007204:	1992      	adds	r2, r2, r6
 8007206:	417b      	adcs	r3, r7
 8007208:	0052      	lsls	r2, r2, #1
 800720a:	0853      	lsrs	r3, r2, #1
 800720c:	4699      	mov	r9, r3
 800720e:	4663      	mov	r3, ip
 8007210:	4649      	mov	r1, r9
 8007212:	4646      	mov	r6, r8
 8007214:	61d9      	str	r1, [r3, #28]
 8007216:	2700      	movs	r7, #0
 8007218:	2113      	movs	r1, #19
 800721a:	2200      	movs	r2, #0
 800721c:	4643      	mov	r3, r8
 800721e:	1989      	adds	r1, r1, r6
 8007220:	417a      	adcs	r2, r7
 8007222:	3313      	adds	r3, #19
 8007224:	930a      	str	r3, [sp, #40]	; 0x28
 8007226:	0016      	movs	r6, r2
 8007228:	2700      	movs	r7, #0
 800722a:	0022      	movs	r2, r4
 800722c:	2300      	movs	r3, #0
 800722e:	1992      	adds	r2, r2, r6
 8007230:	417b      	adcs	r3, r7
 8007232:	2700      	movs	r7, #0
 8007234:	001e      	movs	r6, r3
 8007236:	2300      	movs	r3, #0
 8007238:	920b      	str	r2, [sp, #44]	; 0x2c
 800723a:	9a00      	ldr	r2, [sp, #0]
 800723c:	18b6      	adds	r6, r6, r2
 800723e:	415f      	adcs	r7, r3
 8007240:	2300      	movs	r3, #0
 8007242:	003c      	movs	r4, r7
 8007244:	9a02      	ldr	r2, [sp, #8]
 8007246:	960c      	str	r6, [sp, #48]	; 0x30
 8007248:	18a4      	adds	r4, r4, r2
 800724a:	415d      	adcs	r5, r3
 800724c:	2300      	movs	r3, #0
 800724e:	002a      	movs	r2, r5
 8007250:	2500      	movs	r5, #0
 8007252:	940d      	str	r4, [sp, #52]	; 0x34
 8007254:	9c04      	ldr	r4, [sp, #16]
 8007256:	18a4      	adds	r4, r4, r2
 8007258:	415d      	adcs	r5, r3
 800725a:	2300      	movs	r3, #0
 800725c:	002a      	movs	r2, r5
 800725e:	2500      	movs	r5, #0
 8007260:	940e      	str	r4, [sp, #56]	; 0x38
 8007262:	9c06      	ldr	r4, [sp, #24]
 8007264:	18a4      	adds	r4, r4, r2
 8007266:	415d      	adcs	r5, r3
 8007268:	2300      	movs	r3, #0
 800726a:	002a      	movs	r2, r5
 800726c:	2500      	movs	r5, #0
 800726e:	940f      	str	r4, [sp, #60]	; 0x3c
 8007270:	9c08      	ldr	r4, [sp, #32]
 8007272:	1912      	adds	r2, r2, r4
 8007274:	416b      	adcs	r3, r5
 8007276:	2500      	movs	r5, #0
 8007278:	9210      	str	r2, [sp, #64]	; 0x40
 800727a:	001c      	movs	r4, r3
 800727c:	464a      	mov	r2, r9
 800727e:	2300      	movs	r3, #0
 8007280:	18a4      	adds	r4, r4, r2
 8007282:	415d      	adcs	r5, r3
 8007284:	006b      	lsls	r3, r5, #1
 8007286:	0061      	lsls	r1, r4, #1
 8007288:	0fe2      	lsrs	r2, r4, #31
 800728a:	431a      	orrs	r2, r3
 800728c:	0849      	lsrs	r1, r1, #1
 800728e:	9111      	str	r1, [sp, #68]	; 0x44
 8007290:	b2d2      	uxtb	r2, r2
 8007292:	a90a      	add	r1, sp, #40	; 0x28
 8007294:	f7ff fd8e 	bl	8006db4 <fe25519_cmov>
 8007298:	b013      	add	sp, #76	; 0x4c
 800729a:	bc0c      	pop	{r2, r3}
 800729c:	4690      	mov	r8, r2
 800729e:	4699      	mov	r9, r3
 80072a0:	bdf0      	pop	{r4, r5, r6, r7, pc}
 80072a2:	46c0      	nop			; (mov r8, r8)

080072a4 <fe25519_pack>:
 80072a4:	b570      	push	{r4, r5, r6, lr}
 80072a6:	b088      	sub	sp, #32
 80072a8:	466d      	mov	r5, sp
 80072aa:	002b      	movs	r3, r5
 80072ac:	0004      	movs	r4, r0
 80072ae:	c945      	ldmia	r1!, {r0, r2, r6}
 80072b0:	c345      	stmia	r3!, {r0, r2, r6}
 80072b2:	c945      	ldmia	r1!, {r0, r2, r6}
 80072b4:	c345      	stmia	r3!, {r0, r2, r6}
 80072b6:	c905      	ldmia	r1!, {r0, r2}
 80072b8:	c305      	stmia	r3!, {r0, r2}
 80072ba:	0028      	movs	r0, r5
 80072bc:	f7ff ff46 	bl	800714c <fe25519_freeze>
 80072c0:	9b00      	ldr	r3, [sp, #0]
 80072c2:	0a1a      	lsrs	r2, r3, #8
 80072c4:	7023      	strb	r3, [r4, #0]
 80072c6:	7062      	strb	r2, [r4, #1]
 80072c8:	0c1a      	lsrs	r2, r3, #16
 80072ca:	0e1b      	lsrs	r3, r3, #24
 80072cc:	70e3      	strb	r3, [r4, #3]
 80072ce:	686b      	ldr	r3, [r5, #4]
 80072d0:	70a2      	strb	r2, [r4, #2]
 80072d2:	0a1a      	lsrs	r2, r3, #8
 80072d4:	7123      	strb	r3, [r4, #4]
 80072d6:	7162      	strb	r2, [r4, #5]
 80072d8:	0c1a      	lsrs	r2, r3, #16
 80072da:	0e1b      	lsrs	r3, r3, #24
 80072dc:	71e3      	strb	r3, [r4, #7]
 80072de:	68ab      	ldr	r3, [r5, #8]
 80072e0:	71a2      	strb	r2, [r4, #6]
 80072e2:	0a1a      	lsrs	r2, r3, #8
 80072e4:	7223      	strb	r3, [r4, #8]
 80072e6:	7262      	strb	r2, [r4, #9]
 80072e8:	0c1a      	lsrs	r2, r3, #16
 80072ea:	0e1b      	lsrs	r3, r3, #24
 80072ec:	72e3      	strb	r3, [r4, #11]
 80072ee:	68eb      	ldr	r3, [r5, #12]
 80072f0:	72a2      	strb	r2, [r4, #10]
 80072f2:	0a1a      	lsrs	r2, r3, #8
 80072f4:	7323      	strb	r3, [r4, #12]
 80072f6:	7362      	strb	r2, [r4, #13]
 80072f8:	0c1a      	lsrs	r2, r3, #16
 80072fa:	0e1b      	lsrs	r3, r3, #24
 80072fc:	73e3      	strb	r3, [r4, #15]
 80072fe:	692b      	ldr	r3, [r5, #16]
 8007300:	73a2      	strb	r2, [r4, #14]
 8007302:	0a1a      	lsrs	r2, r3, #8
 8007304:	7423      	strb	r3, [r4, #16]
 8007306:	7462      	strb	r2, [r4, #17]
 8007308:	0c1a      	lsrs	r2, r3, #16
 800730a:	0e1b      	lsrs	r3, r3, #24
 800730c:	74e3      	strb	r3, [r4, #19]
 800730e:	696b      	ldr	r3, [r5, #20]
 8007310:	74a2      	strb	r2, [r4, #18]
 8007312:	0a1a      	lsrs	r2, r3, #8
 8007314:	7523      	strb	r3, [r4, #20]
 8007316:	7562      	strb	r2, [r4, #21]
 8007318:	0c1a      	lsrs	r2, r3, #16
 800731a:	0e1b      	lsrs	r3, r3, #24
 800731c:	75e3      	strb	r3, [r4, #23]
 800731e:	69ab      	ldr	r3, [r5, #24]
 8007320:	75a2      	strb	r2, [r4, #22]
 8007322:	0a1a      	lsrs	r2, r3, #8
 8007324:	7623      	strb	r3, [r4, #24]
 8007326:	7662      	strb	r2, [r4, #25]
 8007328:	0c1a      	lsrs	r2, r3, #16
 800732a:	0e1b      	lsrs	r3, r3, #24
 800732c:	76e3      	strb	r3, [r4, #27]
 800732e:	69eb      	ldr	r3, [r5, #28]
 8007330:	76a2      	strb	r2, [r4, #26]
 8007332:	0a1a      	lsrs	r2, r3, #8
 8007334:	7723      	strb	r3, [r4, #28]
 8007336:	7762      	strb	r2, [r4, #29]
 8007338:	0c1a      	lsrs	r2, r3, #16
 800733a:	0e1b      	lsrs	r3, r3, #24
 800733c:	77a2      	strb	r2, [r4, #30]
 800733e:	77e3      	strb	r3, [r4, #31]
 8007340:	b008      	add	sp, #32
 8007342:	bd70      	pop	{r4, r5, r6, pc}

08007344 <fe25519_mul>:
 8007344:	b5f0      	push	{r4, r5, r6, r7, lr}
 8007346:	46de      	mov	lr, fp
 8007348:	4657      	mov	r7, sl
 800734a:	464e      	mov	r6, r9
 800734c:	4645      	mov	r5, r8
 800734e:	b5e0      	push	{r5, r6, r7, lr}
 8007350:	0015      	movs	r5, r2
 8007352:	b0bd      	sub	sp, #244	; 0xf4
 8007354:	4680      	mov	r8, r0
 8007356:	000e      	movs	r6, r1
 8007358:	2240      	movs	r2, #64	; 0x40
 800735a:	2100      	movs	r1, #0
 800735c:	a82c      	add	r0, sp, #176	; 0xb0
 800735e:	f001 f878 	bl	8008452 <memset>
 8007362:	682b      	ldr	r3, [r5, #0]
 8007364:	2200      	movs	r2, #0
 8007366:	9323      	str	r3, [sp, #140]	; 0x8c
 8007368:	686b      	ldr	r3, [r5, #4]
 800736a:	2700      	movs	r7, #0
 800736c:	9324      	str	r3, [sp, #144]	; 0x90
 800736e:	68ab      	ldr	r3, [r5, #8]
 8007370:	9220      	str	r2, [sp, #128]	; 0x80
 8007372:	9325      	str	r3, [sp, #148]	; 0x94
 8007374:	68eb      	ldr	r3, [r5, #12]
 8007376:	4642      	mov	r2, r8
 8007378:	9326      	str	r3, [sp, #152]	; 0x98
 800737a:	692b      	ldr	r3, [r5, #16]
 800737c:	46b0      	mov	r8, r6
 800737e:	9327      	str	r3, [sp, #156]	; 0x9c
 8007380:	696b      	ldr	r3, [r5, #20]
 8007382:	ac2c      	add	r4, sp, #176	; 0xb0
 8007384:	9328      	str	r3, [sp, #160]	; 0xa0
 8007386:	69ab      	ldr	r3, [r5, #24]
 8007388:	9721      	str	r7, [sp, #132]	; 0x84
 800738a:	9329      	str	r3, [sp, #164]	; 0xa4
 800738c:	69eb      	ldr	r3, [r5, #28]
 800738e:	922b      	str	r2, [sp, #172]	; 0xac
 8007390:	932a      	str	r3, [sp, #168]	; 0xa8
 8007392:	2300      	movs	r3, #0
 8007394:	469a      	mov	sl, r3
 8007396:	469b      	mov	fp, r3
 8007398:	4699      	mov	r9, r3
 800739a:	931f      	str	r3, [sp, #124]	; 0x7c
 800739c:	931e      	str	r3, [sp, #120]	; 0x78
 800739e:	9322      	str	r3, [sp, #136]	; 0x88
 80073a0:	4643      	mov	r3, r8
 80073a2:	cb20      	ldmia	r3!, {r5}
 80073a4:	9a23      	ldr	r2, [sp, #140]	; 0x8c
 80073a6:	4698      	mov	r8, r3
 80073a8:	0028      	movs	r0, r5
 80073aa:	2300      	movs	r3, #0
 80073ac:	2100      	movs	r1, #0
 80073ae:	f7f8 ff37 	bl	8000220 <__aeabi_lmul>
 80073b2:	9b20      	ldr	r3, [sp, #128]	; 0x80
 80073b4:	9a24      	ldr	r2, [sp, #144]	; 0x90
 80073b6:	930e      	str	r3, [sp, #56]	; 0x38
 80073b8:	2300      	movs	r3, #0
 80073ba:	930f      	str	r3, [sp, #60]	; 0x3c
 80073bc:	9e0e      	ldr	r6, [sp, #56]	; 0x38
 80073be:	9f0f      	ldr	r7, [sp, #60]	; 0x3c
 80073c0:	1980      	adds	r0, r0, r6
 80073c2:	4179      	adcs	r1, r7
 80073c4:	6020      	str	r0, [r4, #0]
 80073c6:	9100      	str	r1, [sp, #0]
 80073c8:	0028      	movs	r0, r5
 80073ca:	2100      	movs	r1, #0
 80073cc:	001e      	movs	r6, r3
 80073ce:	9301      	str	r3, [sp, #4]
 80073d0:	f7f8 ff26 	bl	8000220 <__aeabi_lmul>
 80073d4:	464a      	mov	r2, r9
 80073d6:	9611      	str	r6, [sp, #68]	; 0x44
 80073d8:	9210      	str	r2, [sp, #64]	; 0x40
 80073da:	0033      	movs	r3, r6
 80073dc:	9e10      	ldr	r6, [sp, #64]	; 0x40
 80073de:	9f11      	ldr	r7, [sp, #68]	; 0x44
 80073e0:	1980      	adds	r0, r0, r6
 80073e2:	4179      	adcs	r1, r7
 80073e4:	9e00      	ldr	r6, [sp, #0]
 80073e6:	9f01      	ldr	r7, [sp, #4]
 80073e8:	1980      	adds	r0, r0, r6
 80073ea:	4179      	adcs	r1, r7
 80073ec:	9a25      	ldr	r2, [sp, #148]	; 0x94
 80073ee:	001e      	movs	r6, r3
 80073f0:	6060      	str	r0, [r4, #4]
 80073f2:	9020      	str	r0, [sp, #128]	; 0x80
 80073f4:	9102      	str	r1, [sp, #8]
 80073f6:	0028      	movs	r0, r5
 80073f8:	2100      	movs	r1, #0
 80073fa:	9303      	str	r3, [sp, #12]
 80073fc:	f7f8 ff10 	bl	8000220 <__aeabi_lmul>
 8007400:	9b21      	ldr	r3, [sp, #132]	; 0x84
 8007402:	9613      	str	r6, [sp, #76]	; 0x4c
 8007404:	9312      	str	r3, [sp, #72]	; 0x48
 8007406:	0033      	movs	r3, r6
 8007408:	9e12      	ldr	r6, [sp, #72]	; 0x48
 800740a:	9f13      	ldr	r7, [sp, #76]	; 0x4c
 800740c:	1980      	adds	r0, r0, r6
 800740e:	4179      	adcs	r1, r7
 8007410:	9e02      	ldr	r6, [sp, #8]
 8007412:	9f03      	ldr	r7, [sp, #12]
 8007414:	1980      	adds	r0, r0, r6
 8007416:	4179      	adcs	r1, r7
 8007418:	9a26      	ldr	r2, [sp, #152]	; 0x98
 800741a:	001f      	movs	r7, r3
 800741c:	60a0      	str	r0, [r4, #8]
 800741e:	9104      	str	r1, [sp, #16]
 8007420:	4681      	mov	r9, r0
 8007422:	2100      	movs	r1, #0
 8007424:	0028      	movs	r0, r5
 8007426:	9305      	str	r3, [sp, #20]
 8007428:	f7f8 fefa 	bl	8000220 <__aeabi_lmul>
 800742c:	9b22      	ldr	r3, [sp, #136]	; 0x88
 800742e:	9715      	str	r7, [sp, #84]	; 0x54
 8007430:	9314      	str	r3, [sp, #80]	; 0x50
 8007432:	003b      	movs	r3, r7
 8007434:	9e14      	ldr	r6, [sp, #80]	; 0x50
 8007436:	9f15      	ldr	r7, [sp, #84]	; 0x54
 8007438:	1980      	adds	r0, r0, r6
 800743a:	4179      	adcs	r1, r7
 800743c:	9e04      	ldr	r6, [sp, #16]
 800743e:	9f05      	ldr	r7, [sp, #20]
 8007440:	1980      	adds	r0, r0, r6
 8007442:	4179      	adcs	r1, r7
 8007444:	9a27      	ldr	r2, [sp, #156]	; 0x9c
 8007446:	60e0      	str	r0, [r4, #12]
 8007448:	9021      	str	r0, [sp, #132]	; 0x84
 800744a:	9106      	str	r1, [sp, #24]
 800744c:	0028      	movs	r0, r5
 800744e:	2100      	movs	r1, #0
 8007450:	001e      	movs	r6, r3
 8007452:	9307      	str	r3, [sp, #28]
 8007454:	f7f8 fee4 	bl	8000220 <__aeabi_lmul>
 8007458:	465b      	mov	r3, fp
 800745a:	9617      	str	r6, [sp, #92]	; 0x5c
 800745c:	9316      	str	r3, [sp, #88]	; 0x58
 800745e:	0033      	movs	r3, r6
 8007460:	9e16      	ldr	r6, [sp, #88]	; 0x58
 8007462:	9f17      	ldr	r7, [sp, #92]	; 0x5c
 8007464:	1980      	adds	r0, r0, r6
 8007466:	4179      	adcs	r1, r7
 8007468:	9e06      	ldr	r6, [sp, #24]
 800746a:	9f07      	ldr	r7, [sp, #28]
 800746c:	1980      	adds	r0, r0, r6
 800746e:	4179      	adcs	r1, r7
 8007470:	9a28      	ldr	r2, [sp, #160]	; 0xa0
 8007472:	6120      	str	r0, [r4, #16]
 8007474:	9022      	str	r0, [sp, #136]	; 0x88
 8007476:	9108      	str	r1, [sp, #32]
 8007478:	0028      	movs	r0, r5
 800747a:	2100      	movs	r1, #0
 800747c:	001e      	movs	r6, r3
 800747e:	9309      	str	r3, [sp, #36]	; 0x24
 8007480:	f7f8 fece 	bl	8000220 <__aeabi_lmul>
 8007484:	4652      	mov	r2, sl
 8007486:	9619      	str	r6, [sp, #100]	; 0x64
 8007488:	9218      	str	r2, [sp, #96]	; 0x60
 800748a:	0033      	movs	r3, r6
 800748c:	9e18      	ldr	r6, [sp, #96]	; 0x60
 800748e:	9f19      	ldr	r7, [sp, #100]	; 0x64
 8007490:	1980      	adds	r0, r0, r6
 8007492:	4179      	adcs	r1, r7
 8007494:	9e08      	ldr	r6, [sp, #32]
 8007496:	9f09      	ldr	r7, [sp, #36]	; 0x24
 8007498:	1980      	adds	r0, r0, r6
 800749a:	4179      	adcs	r1, r7
 800749c:	930b      	str	r3, [sp, #44]	; 0x2c
 800749e:	001e      	movs	r6, r3
 80074a0:	6160      	str	r0, [r4, #20]
 80074a2:	910a      	str	r1, [sp, #40]	; 0x28
 80074a4:	4683      	mov	fp, r0
 80074a6:	9a29      	ldr	r2, [sp, #164]	; 0xa4
 80074a8:	0028      	movs	r0, r5
 80074aa:	2100      	movs	r1, #0
 80074ac:	f7f8 feb8 	bl	8000220 <__aeabi_lmul>
 80074b0:	9a1e      	ldr	r2, [sp, #120]	; 0x78
 80074b2:	961b      	str	r6, [sp, #108]	; 0x6c
 80074b4:	921a      	str	r2, [sp, #104]	; 0x68
 80074b6:	0033      	movs	r3, r6
 80074b8:	9e1a      	ldr	r6, [sp, #104]	; 0x68
 80074ba:	9f1b      	ldr	r7, [sp, #108]	; 0x6c
 80074bc:	1980      	adds	r0, r0, r6
 80074be:	4179      	adcs	r1, r7
 80074c0:	9e0a      	ldr	r6, [sp, #40]	; 0x28
 80074c2:	9f0b      	ldr	r7, [sp, #44]	; 0x2c
 80074c4:	1980      	adds	r0, r0, r6
 80074c6:	4179      	adcs	r1, r7
 80074c8:	9a2a      	ldr	r2, [sp, #168]	; 0xa8
 80074ca:	61a0      	str	r0, [r4, #24]
 80074cc:	001e      	movs	r6, r3
 80074ce:	910c      	str	r1, [sp, #48]	; 0x30
 80074d0:	4682      	mov	sl, r0
 80074d2:	2100      	movs	r1, #0
 80074d4:	0028      	movs	r0, r5
 80074d6:	930d      	str	r3, [sp, #52]	; 0x34
 80074d8:	f7f8 fea2 	bl	8000220 <__aeabi_lmul>
 80074dc:	9a1f      	ldr	r2, [sp, #124]	; 0x7c
 80074de:	961d      	str	r6, [sp, #116]	; 0x74
 80074e0:	921c      	str	r2, [sp, #112]	; 0x70
 80074e2:	9a1c      	ldr	r2, [sp, #112]	; 0x70
 80074e4:	9b1d      	ldr	r3, [sp, #116]	; 0x74
 80074e6:	1880      	adds	r0, r0, r2
 80074e8:	4159      	adcs	r1, r3
 80074ea:	9a0c      	ldr	r2, [sp, #48]	; 0x30
 80074ec:	9b0d      	ldr	r3, [sp, #52]	; 0x34
 80074ee:	1880      	adds	r0, r0, r2
 80074f0:	4159      	adcs	r1, r3
 80074f2:	3404      	adds	r4, #4
 80074f4:	61a0      	str	r0, [r4, #24]
 80074f6:	61e1      	str	r1, [r4, #28]
 80074f8:	ab34      	add	r3, sp, #208	; 0xd0
 80074fa:	901e      	str	r0, [sp, #120]	; 0x78
 80074fc:	911f      	str	r1, [sp, #124]	; 0x7c
 80074fe:	429c      	cmp	r4, r3
 8007500:	d000      	beq.n	8007504 <fe25519_mul+0x1c0>
 8007502:	e74d      	b.n	80073a0 <fe25519_mul+0x5c>
 8007504:	9b2b      	ldr	r3, [sp, #172]	; 0xac
 8007506:	9834      	ldr	r0, [sp, #208]	; 0xd0
 8007508:	4698      	mov	r8, r3
 800750a:	2226      	movs	r2, #38	; 0x26
 800750c:	2300      	movs	r3, #0
 800750e:	2100      	movs	r1, #0
 8007510:	f7f8 fe86 	bl	8000220 <__aeabi_lmul>
 8007514:	2300      	movs	r3, #0
 8007516:	9a2c      	ldr	r2, [sp, #176]	; 0xb0
 8007518:	2500      	movs	r5, #0
 800751a:	1880      	adds	r0, r0, r2
 800751c:	4159      	adcs	r1, r3
 800751e:	2226      	movs	r2, #38	; 0x26
 8007520:	9000      	str	r0, [sp, #0]
 8007522:	9101      	str	r1, [sp, #4]
 8007524:	000c      	movs	r4, r1
 8007526:	9835      	ldr	r0, [sp, #212]	; 0xd4
 8007528:	2300      	movs	r3, #0
 800752a:	2100      	movs	r1, #0
 800752c:	f7f8 fe78 	bl	8000220 <__aeabi_lmul>
 8007530:	2300      	movs	r3, #0
 8007532:	9a2d      	ldr	r2, [sp, #180]	; 0xb4
 8007534:	1880      	adds	r0, r0, r2
 8007536:	4159      	adcs	r1, r3
 8007538:	0002      	movs	r2, r0
 800753a:	000b      	movs	r3, r1
 800753c:	1912      	adds	r2, r2, r4
 800753e:	416b      	adcs	r3, r5
 8007540:	9836      	ldr	r0, [sp, #216]	; 0xd8
 8007542:	9202      	str	r2, [sp, #8]
 8007544:	9303      	str	r3, [sp, #12]
 8007546:	001c      	movs	r4, r3
 8007548:	2226      	movs	r2, #38	; 0x26
 800754a:	2300      	movs	r3, #0
 800754c:	2100      	movs	r1, #0
 800754e:	f7f8 fe67 	bl	8000220 <__aeabi_lmul>
 8007552:	2300      	movs	r3, #0
 8007554:	9a2e      	ldr	r2, [sp, #184]	; 0xb8
 8007556:	2500      	movs	r5, #0
 8007558:	1880      	adds	r0, r0, r2
 800755a:	4159      	adcs	r1, r3
 800755c:	000a      	movs	r2, r1
 800755e:	0001      	movs	r1, r0
 8007560:	1909      	adds	r1, r1, r4
 8007562:	416a      	adcs	r2, r5
 8007564:	9837      	ldr	r0, [sp, #220]	; 0xdc
 8007566:	9104      	str	r1, [sp, #16]
 8007568:	9205      	str	r2, [sp, #20]
 800756a:	0014      	movs	r4, r2
 800756c:	2300      	movs	r3, #0
 800756e:	2226      	movs	r2, #38	; 0x26
 8007570:	2100      	movs	r1, #0
 8007572:	f7f8 fe55 	bl	8000220 <__aeabi_lmul>
 8007576:	2300      	movs	r3, #0
 8007578:	9a2f      	ldr	r2, [sp, #188]	; 0xbc
 800757a:	2500      	movs	r5, #0
 800757c:	1880      	adds	r0, r0, r2
 800757e:	4159      	adcs	r1, r3
 8007580:	0006      	movs	r6, r0
 8007582:	000f      	movs	r7, r1
 8007584:	1936      	adds	r6, r6, r4
 8007586:	416f      	adcs	r7, r5
 8007588:	9838      	ldr	r0, [sp, #224]	; 0xe0
 800758a:	2226      	movs	r2, #38	; 0x26
 800758c:	2300      	movs	r3, #0
 800758e:	2100      	movs	r1, #0
 8007590:	9606      	str	r6, [sp, #24]
 8007592:	9707      	str	r7, [sp, #28]
 8007594:	f7f8 fe44 	bl	8000220 <__aeabi_lmul>
 8007598:	2300      	movs	r3, #0
 800759a:	9a30      	ldr	r2, [sp, #192]	; 0xc0
 800759c:	003c      	movs	r4, r7
 800759e:	1880      	adds	r0, r0, r2
 80075a0:	4159      	adcs	r1, r3
 80075a2:	2500      	movs	r5, #0
 80075a4:	1900      	adds	r0, r0, r4
 80075a6:	4169      	adcs	r1, r5
 80075a8:	2226      	movs	r2, #38	; 0x26
 80075aa:	9008      	str	r0, [sp, #32]
 80075ac:	9109      	str	r1, [sp, #36]	; 0x24
 80075ae:	000c      	movs	r4, r1
 80075b0:	9839      	ldr	r0, [sp, #228]	; 0xe4
 80075b2:	2300      	movs	r3, #0
 80075b4:	2100      	movs	r1, #0
 80075b6:	f7f8 fe33 	bl	8000220 <__aeabi_lmul>
 80075ba:	2300      	movs	r3, #0
 80075bc:	9a31      	ldr	r2, [sp, #196]	; 0xc4
 80075be:	2500      	movs	r5, #0
 80075c0:	1880      	adds	r0, r0, r2
 80075c2:	4159      	adcs	r1, r3
 80075c4:	0002      	movs	r2, r0
 80075c6:	000b      	movs	r3, r1
 80075c8:	1912      	adds	r2, r2, r4
 80075ca:	416b      	adcs	r3, r5
 80075cc:	983a      	ldr	r0, [sp, #232]	; 0xe8
 80075ce:	920a      	str	r2, [sp, #40]	; 0x28
 80075d0:	930b      	str	r3, [sp, #44]	; 0x2c
 80075d2:	001c      	movs	r4, r3
 80075d4:	2226      	movs	r2, #38	; 0x26
 80075d6:	2300      	movs	r3, #0
 80075d8:	2100      	movs	r1, #0
 80075da:	f7f8 fe21 	bl	8000220 <__aeabi_lmul>
 80075de:	2300      	movs	r3, #0
 80075e0:	9a32      	ldr	r2, [sp, #200]	; 0xc8
 80075e2:	2500      	movs	r5, #0
 80075e4:	1880      	adds	r0, r0, r2
 80075e6:	4159      	adcs	r1, r3
 80075e8:	000a      	movs	r2, r1
 80075ea:	0001      	movs	r1, r0
 80075ec:	1909      	adds	r1, r1, r4
 80075ee:	416a      	adcs	r2, r5
 80075f0:	983b      	ldr	r0, [sp, #236]	; 0xec
 80075f2:	910c      	str	r1, [sp, #48]	; 0x30
 80075f4:	920d      	str	r2, [sp, #52]	; 0x34
 80075f6:	0014      	movs	r4, r2
 80075f8:	2300      	movs	r3, #0
 80075fa:	2226      	movs	r2, #38	; 0x26
 80075fc:	2100      	movs	r1, #0
 80075fe:	f7f8 fe0f 	bl	8000220 <__aeabi_lmul>
 8007602:	2700      	movs	r7, #0
 8007604:	9e33      	ldr	r6, [sp, #204]	; 0xcc
 8007606:	2500      	movs	r5, #0
 8007608:	1836      	adds	r6, r6, r0
 800760a:	414f      	adcs	r7, r1
 800760c:	1936      	adds	r6, r6, r4
 800760e:	416f      	adcs	r7, r5
 8007610:	2226      	movs	r2, #38	; 0x26
 8007612:	2300      	movs	r3, #0
 8007614:	0038      	movs	r0, r7
 8007616:	2100      	movs	r1, #0
 8007618:	f7f8 fe02 	bl	8000220 <__aeabi_lmul>
 800761c:	2300      	movs	r3, #0
 800761e:	9a00      	ldr	r2, [sp, #0]
 8007620:	2500      	movs	r5, #0
 8007622:	1880      	adds	r0, r0, r2
 8007624:	4159      	adcs	r1, r3
 8007626:	2300      	movs	r3, #0
 8007628:	000c      	movs	r4, r1
 800762a:	9a02      	ldr	r2, [sp, #8]
 800762c:	1912      	adds	r2, r2, r4
 800762e:	416b      	adcs	r3, r5
 8007630:	4644      	mov	r4, r8
 8007632:	2500      	movs	r5, #0
 8007634:	6062      	str	r2, [r4, #4]
 8007636:	001c      	movs	r4, r3
 8007638:	2300      	movs	r3, #0
 800763a:	9a04      	ldr	r2, [sp, #16]
 800763c:	1912      	adds	r2, r2, r4
 800763e:	416b      	adcs	r3, r5
 8007640:	4644      	mov	r4, r8
 8007642:	2500      	movs	r5, #0
 8007644:	60a2      	str	r2, [r4, #8]
 8007646:	001c      	movs	r4, r3
 8007648:	2300      	movs	r3, #0
 800764a:	9a06      	ldr	r2, [sp, #24]
 800764c:	1912      	adds	r2, r2, r4
 800764e:	416b      	adcs	r3, r5
 8007650:	4644      	mov	r4, r8
 8007652:	2500      	movs	r5, #0
 8007654:	60e2      	str	r2, [r4, #12]
 8007656:	001c      	movs	r4, r3
 8007658:	2300      	movs	r3, #0
 800765a:	9a08      	ldr	r2, [sp, #32]
 800765c:	1912      	adds	r2, r2, r4
 800765e:	416b      	adcs	r3, r5
 8007660:	4644      	mov	r4, r8
 8007662:	2500      	movs	r5, #0
 8007664:	6122      	str	r2, [r4, #16]
 8007666:	001c      	movs	r4, r3
 8007668:	2300      	movs	r3, #0
 800766a:	9a0a      	ldr	r2, [sp, #40]	; 0x28
 800766c:	1912      	adds	r2, r2, r4
 800766e:	416b      	adcs	r3, r5
 8007670:	4644      	mov	r4, r8
 8007672:	2500      	movs	r5, #0
 8007674:	6162      	str	r2, [r4, #20]
 8007676:	001c      	movs	r4, r3
 8007678:	2300      	movs	r3, #0
 800767a:	9a0c      	ldr	r2, [sp, #48]	; 0x30
 800767c:	1912      	adds	r2, r2, r4
 800767e:	416b      	adcs	r3, r5
 8007680:	4644      	mov	r4, r8
 8007682:	2500      	movs	r5, #0
 8007684:	61a2      	str	r2, [r4, #24]
 8007686:	0032      	movs	r2, r6
 8007688:	001c      	movs	r4, r3
 800768a:	2300      	movs	r3, #0
 800768c:	18a4      	adds	r4, r4, r2
 800768e:	415d      	adcs	r5, r3
 8007690:	2226      	movs	r2, #38	; 0x26
 8007692:	4643      	mov	r3, r8
 8007694:	436a      	muls	r2, r5
 8007696:	1810      	adds	r0, r2, r0
 8007698:	61dc      	str	r4, [r3, #28]
 800769a:	6018      	str	r0, [r3, #0]
 800769c:	b03d      	add	sp, #244	; 0xf4
 800769e:	bc3c      	pop	{r2, r3, r4, r5}
 80076a0:	4690      	mov	r8, r2
 80076a2:	4699      	mov	r9, r3
 80076a4:	46a2      	mov	sl, r4
 80076a6:	46ab      	mov	fp, r5
 80076a8:	bdf0      	pop	{r4, r5, r6, r7, pc}
 80076aa:	46c0      	nop			; (mov r8, r8)

080076ac <fe25519_square>:
 80076ac:	b510      	push	{r4, lr}
 80076ae:	000a      	movs	r2, r1
 80076b0:	f7ff fe48 	bl	8007344 <fe25519_mul>
 80076b4:	bd10      	pop	{r4, pc}
 80076b6:	46c0      	nop			; (mov r8, r8)

080076b8 <fe25519_invert>:
 80076b8:	b530      	push	{r4, r5, lr}
 80076ba:	000c      	movs	r4, r1
 80076bc:	b0d1      	sub	sp, #324	; 0x144
 80076be:	0005      	movs	r5, r0
 80076c0:	4668      	mov	r0, sp
 80076c2:	f7ff fff3 	bl	80076ac <fe25519_square>
 80076c6:	4669      	mov	r1, sp
 80076c8:	a848      	add	r0, sp, #288	; 0x120
 80076ca:	f7ff ffef 	bl	80076ac <fe25519_square>
 80076ce:	a948      	add	r1, sp, #288	; 0x120
 80076d0:	a840      	add	r0, sp, #256	; 0x100
 80076d2:	f7ff ffeb 	bl	80076ac <fe25519_square>
 80076d6:	0022      	movs	r2, r4
 80076d8:	a940      	add	r1, sp, #256	; 0x100
 80076da:	a808      	add	r0, sp, #32
 80076dc:	f7ff fe32 	bl	8007344 <fe25519_mul>
 80076e0:	466a      	mov	r2, sp
 80076e2:	a908      	add	r1, sp, #32
 80076e4:	a810      	add	r0, sp, #64	; 0x40
 80076e6:	f7ff fe2d 	bl	8007344 <fe25519_mul>
 80076ea:	a910      	add	r1, sp, #64	; 0x40
 80076ec:	a840      	add	r0, sp, #256	; 0x100
 80076ee:	f7ff ffdd 	bl	80076ac <fe25519_square>
 80076f2:	aa08      	add	r2, sp, #32
 80076f4:	a940      	add	r1, sp, #256	; 0x100
 80076f6:	a818      	add	r0, sp, #96	; 0x60
 80076f8:	f7ff fe24 	bl	8007344 <fe25519_mul>
 80076fc:	a918      	add	r1, sp, #96	; 0x60
 80076fe:	a840      	add	r0, sp, #256	; 0x100
 8007700:	f7ff ffd4 	bl	80076ac <fe25519_square>
 8007704:	a940      	add	r1, sp, #256	; 0x100
 8007706:	a848      	add	r0, sp, #288	; 0x120
 8007708:	f7ff ffd0 	bl	80076ac <fe25519_square>
 800770c:	a948      	add	r1, sp, #288	; 0x120
 800770e:	a840      	add	r0, sp, #256	; 0x100
 8007710:	f7ff ffcc 	bl	80076ac <fe25519_square>
 8007714:	a940      	add	r1, sp, #256	; 0x100
 8007716:	a848      	add	r0, sp, #288	; 0x120
 8007718:	f7ff ffc8 	bl	80076ac <fe25519_square>
 800771c:	a948      	add	r1, sp, #288	; 0x120
 800771e:	a840      	add	r0, sp, #256	; 0x100
 8007720:	f7ff ffc4 	bl	80076ac <fe25519_square>
 8007724:	aa18      	add	r2, sp, #96	; 0x60
 8007726:	a940      	add	r1, sp, #256	; 0x100
 8007728:	a820      	add	r0, sp, #128	; 0x80
 800772a:	f7ff fe0b 	bl	8007344 <fe25519_mul>
 800772e:	a920      	add	r1, sp, #128	; 0x80
 8007730:	a840      	add	r0, sp, #256	; 0x100
 8007732:	f7ff ffbb 	bl	80076ac <fe25519_square>
 8007736:	a940      	add	r1, sp, #256	; 0x100
 8007738:	a848      	add	r0, sp, #288	; 0x120
 800773a:	f7ff ffb7 	bl	80076ac <fe25519_square>
 800773e:	2404      	movs	r4, #4
 8007740:	a948      	add	r1, sp, #288	; 0x120
 8007742:	a840      	add	r0, sp, #256	; 0x100
 8007744:	f7ff ffb2 	bl	80076ac <fe25519_square>
 8007748:	3c01      	subs	r4, #1
 800774a:	a940      	add	r1, sp, #256	; 0x100
 800774c:	a848      	add	r0, sp, #288	; 0x120
 800774e:	f7ff ffad 	bl	80076ac <fe25519_square>
 8007752:	2c00      	cmp	r4, #0
 8007754:	d1f4      	bne.n	8007740 <fe25519_invert+0x88>
 8007756:	aa20      	add	r2, sp, #128	; 0x80
 8007758:	a948      	add	r1, sp, #288	; 0x120
 800775a:	a828      	add	r0, sp, #160	; 0xa0
 800775c:	f7ff fdf2 	bl	8007344 <fe25519_mul>
 8007760:	a928      	add	r1, sp, #160	; 0xa0
 8007762:	a840      	add	r0, sp, #256	; 0x100
 8007764:	f7ff ffa2 	bl	80076ac <fe25519_square>
 8007768:	a940      	add	r1, sp, #256	; 0x100
 800776a:	a848      	add	r0, sp, #288	; 0x120
 800776c:	f7ff ff9e 	bl	80076ac <fe25519_square>
 8007770:	3409      	adds	r4, #9
 8007772:	a948      	add	r1, sp, #288	; 0x120
 8007774:	a840      	add	r0, sp, #256	; 0x100
 8007776:	f7ff ff99 	bl	80076ac <fe25519_square>
 800777a:	3c01      	subs	r4, #1
 800777c:	a940      	add	r1, sp, #256	; 0x100
 800777e:	a848      	add	r0, sp, #288	; 0x120
 8007780:	f7ff ff94 	bl	80076ac <fe25519_square>
 8007784:	2c00      	cmp	r4, #0
 8007786:	d1f4      	bne.n	8007772 <fe25519_invert+0xba>
 8007788:	aa28      	add	r2, sp, #160	; 0xa0
 800778a:	a948      	add	r1, sp, #288	; 0x120
 800778c:	a840      	add	r0, sp, #256	; 0x100
 800778e:	f7ff fdd9 	bl	8007344 <fe25519_mul>
 8007792:	a940      	add	r1, sp, #256	; 0x100
 8007794:	a848      	add	r0, sp, #288	; 0x120
 8007796:	f7ff ff89 	bl	80076ac <fe25519_square>
 800779a:	a948      	add	r1, sp, #288	; 0x120
 800779c:	a840      	add	r0, sp, #256	; 0x100
 800779e:	f7ff ff85 	bl	80076ac <fe25519_square>
 80077a2:	3404      	adds	r4, #4
 80077a4:	a940      	add	r1, sp, #256	; 0x100
 80077a6:	a848      	add	r0, sp, #288	; 0x120
 80077a8:	f7ff ff80 	bl	80076ac <fe25519_square>
 80077ac:	3c01      	subs	r4, #1
 80077ae:	a948      	add	r1, sp, #288	; 0x120
 80077b0:	a840      	add	r0, sp, #256	; 0x100
 80077b2:	f7ff ff7b 	bl	80076ac <fe25519_square>
 80077b6:	2c00      	cmp	r4, #0
 80077b8:	d1f4      	bne.n	80077a4 <fe25519_invert+0xec>
 80077ba:	aa20      	add	r2, sp, #128	; 0x80
 80077bc:	a940      	add	r1, sp, #256	; 0x100
 80077be:	a830      	add	r0, sp, #192	; 0xc0
 80077c0:	f7ff fdc0 	bl	8007344 <fe25519_mul>
 80077c4:	a930      	add	r1, sp, #192	; 0xc0
 80077c6:	a840      	add	r0, sp, #256	; 0x100
 80077c8:	f7ff ff70 	bl	80076ac <fe25519_square>
 80077cc:	a940      	add	r1, sp, #256	; 0x100
 80077ce:	a848      	add	r0, sp, #288	; 0x120
 80077d0:	f7ff ff6c 	bl	80076ac <fe25519_square>
 80077d4:	3418      	adds	r4, #24
 80077d6:	a948      	add	r1, sp, #288	; 0x120
 80077d8:	a840      	add	r0, sp, #256	; 0x100
 80077da:	f7ff ff67 	bl	80076ac <fe25519_square>
 80077de:	3c01      	subs	r4, #1
 80077e0:	a940      	add	r1, sp, #256	; 0x100
 80077e2:	a848      	add	r0, sp, #288	; 0x120
 80077e4:	f7ff ff62 	bl	80076ac <fe25519_square>
 80077e8:	2c00      	cmp	r4, #0
 80077ea:	d1f4      	bne.n	80077d6 <fe25519_invert+0x11e>
 80077ec:	aa30      	add	r2, sp, #192	; 0xc0
 80077ee:	a948      	add	r1, sp, #288	; 0x120
 80077f0:	a838      	add	r0, sp, #224	; 0xe0
 80077f2:	f7ff fda7 	bl	8007344 <fe25519_mul>
 80077f6:	a938      	add	r1, sp, #224	; 0xe0
 80077f8:	a848      	add	r0, sp, #288	; 0x120
 80077fa:	f7ff ff57 	bl	80076ac <fe25519_square>
 80077fe:	a948      	add	r1, sp, #288	; 0x120
 8007800:	a840      	add	r0, sp, #256	; 0x100
 8007802:	f7ff ff53 	bl	80076ac <fe25519_square>
 8007806:	3431      	adds	r4, #49	; 0x31
 8007808:	a940      	add	r1, sp, #256	; 0x100
 800780a:	a848      	add	r0, sp, #288	; 0x120
 800780c:	f7ff ff4e 	bl	80076ac <fe25519_square>
 8007810:	3c01      	subs	r4, #1
 8007812:	a948      	add	r1, sp, #288	; 0x120
 8007814:	a840      	add	r0, sp, #256	; 0x100
 8007816:	f7ff ff49 	bl	80076ac <fe25519_square>
 800781a:	2c00      	cmp	r4, #0
 800781c:	d1f4      	bne.n	8007808 <fe25519_invert+0x150>
 800781e:	aa38      	add	r2, sp, #224	; 0xe0
 8007820:	a940      	add	r1, sp, #256	; 0x100
 8007822:	a848      	add	r0, sp, #288	; 0x120
 8007824:	f7ff fd8e 	bl	8007344 <fe25519_mul>
 8007828:	a948      	add	r1, sp, #288	; 0x120
 800782a:	a840      	add	r0, sp, #256	; 0x100
 800782c:	f7ff ff3e 	bl	80076ac <fe25519_square>
 8007830:	a940      	add	r1, sp, #256	; 0x100
 8007832:	a848      	add	r0, sp, #288	; 0x120
 8007834:	f7ff ff3a 	bl	80076ac <fe25519_square>
 8007838:	3418      	adds	r4, #24
 800783a:	a948      	add	r1, sp, #288	; 0x120
 800783c:	a840      	add	r0, sp, #256	; 0x100
 800783e:	f7ff ff35 	bl	80076ac <fe25519_square>
 8007842:	3c01      	subs	r4, #1
 8007844:	a940      	add	r1, sp, #256	; 0x100
 8007846:	a848      	add	r0, sp, #288	; 0x120
 8007848:	f7ff ff30 	bl	80076ac <fe25519_square>
 800784c:	2c00      	cmp	r4, #0
 800784e:	d1f4      	bne.n	800783a <fe25519_invert+0x182>
 8007850:	aa30      	add	r2, sp, #192	; 0xc0
 8007852:	a948      	add	r1, sp, #288	; 0x120
 8007854:	a840      	add	r0, sp, #256	; 0x100
 8007856:	f7ff fd75 	bl	8007344 <fe25519_mul>
 800785a:	a940      	add	r1, sp, #256	; 0x100
 800785c:	a848      	add	r0, sp, #288	; 0x120
 800785e:	f7ff ff25 	bl	80076ac <fe25519_square>
 8007862:	a948      	add	r1, sp, #288	; 0x120
 8007864:	a840      	add	r0, sp, #256	; 0x100
 8007866:	f7ff ff21 	bl	80076ac <fe25519_square>
 800786a:	a940      	add	r1, sp, #256	; 0x100
 800786c:	a848      	add	r0, sp, #288	; 0x120
 800786e:	f7ff ff1d 	bl	80076ac <fe25519_square>
 8007872:	a948      	add	r1, sp, #288	; 0x120
 8007874:	a840      	add	r0, sp, #256	; 0x100
 8007876:	f7ff ff19 	bl	80076ac <fe25519_square>
 800787a:	a940      	add	r1, sp, #256	; 0x100
 800787c:	a848      	add	r0, sp, #288	; 0x120
 800787e:	f7ff ff15 	bl	80076ac <fe25519_square>
 8007882:	aa10      	add	r2, sp, #64	; 0x40
 8007884:	a948      	add	r1, sp, #288	; 0x120
 8007886:	0028      	movs	r0, r5
 8007888:	f7ff fd5c 	bl	8007344 <fe25519_mul>
 800788c:	b051      	add	sp, #324	; 0x144
 800788e:	bd30      	pop	{r4, r5, pc}

08007890 <fe25519_mult121665>:
 8007890:	b5f0      	push	{r4, r5, r6, r7, lr}
 8007892:	468c      	mov	ip, r1
 8007894:	4647      	mov	r7, r8
 8007896:	4680      	mov	r8, r0
 8007898:	6808      	ldr	r0, [r1, #0]
 800789a:	2100      	movs	r1, #0
 800789c:	0e45      	lsrs	r5, r0, #25
 800789e:	01c4      	lsls	r4, r0, #7
 80078a0:	1a24      	subs	r4, r4, r0
 80078a2:	418d      	sbcs	r5, r1
 80078a4:	0fa6      	lsrs	r6, r4, #30
 80078a6:	00ab      	lsls	r3, r5, #2
 80078a8:	4333      	orrs	r3, r6
 80078aa:	00a2      	lsls	r2, r4, #2
 80078ac:	1a12      	subs	r2, r2, r0
 80078ae:	418b      	sbcs	r3, r1
 80078b0:	0014      	movs	r4, r2
 80078b2:	0f16      	lsrs	r6, r2, #28
 80078b4:	011b      	lsls	r3, r3, #4
 80078b6:	4333      	orrs	r3, r6
 80078b8:	0122      	lsls	r2, r4, #4
 80078ba:	1a12      	subs	r2, r2, r0
 80078bc:	418b      	sbcs	r3, r1
 80078be:	0f14      	lsrs	r4, r2, #28
 80078c0:	0119      	lsls	r1, r3, #4
 80078c2:	4321      	orrs	r1, r4
 80078c4:	0110      	lsls	r0, r2, #4
 80078c6:	46ce      	mov	lr, r9
 80078c8:	1a80      	subs	r0, r0, r2
 80078ca:	4199      	sbcs	r1, r3
 80078cc:	4642      	mov	r2, r8
 80078ce:	b580      	push	{r7, lr}
 80078d0:	6010      	str	r0, [r2, #0]
 80078d2:	4662      	mov	r2, ip
 80078d4:	000c      	movs	r4, r1
 80078d6:	0003      	movs	r3, r0
 80078d8:	2100      	movs	r1, #0
 80078da:	6850      	ldr	r0, [r2, #4]
 80078dc:	b091      	sub	sp, #68	; 0x44
 80078de:	9400      	str	r4, [sp, #0]
 80078e0:	930e      	str	r3, [sp, #56]	; 0x38
 80078e2:	940f      	str	r4, [sp, #60]	; 0x3c
 80078e4:	0e45      	lsrs	r5, r0, #25
 80078e6:	01c4      	lsls	r4, r0, #7
 80078e8:	1a24      	subs	r4, r4, r0
 80078ea:	418d      	sbcs	r5, r1
 80078ec:	0fa2      	lsrs	r2, r4, #30
 80078ee:	00ab      	lsls	r3, r5, #2
 80078f0:	4313      	orrs	r3, r2
 80078f2:	00a2      	lsls	r2, r4, #2
 80078f4:	1a12      	subs	r2, r2, r0
 80078f6:	418b      	sbcs	r3, r1
 80078f8:	0014      	movs	r4, r2
 80078fa:	011b      	lsls	r3, r3, #4
 80078fc:	0f12      	lsrs	r2, r2, #28
 80078fe:	4313      	orrs	r3, r2
 8007900:	0122      	lsls	r2, r4, #4
 8007902:	1a12      	subs	r2, r2, r0
 8007904:	418b      	sbcs	r3, r1
 8007906:	0f14      	lsrs	r4, r2, #28
 8007908:	0119      	lsls	r1, r3, #4
 800790a:	2700      	movs	r7, #0
 800790c:	4321      	orrs	r1, r4
 800790e:	0110      	lsls	r0, r2, #4
 8007910:	1a80      	subs	r0, r0, r2
 8007912:	4199      	sbcs	r1, r3
 8007914:	9701      	str	r7, [sp, #4]
 8007916:	9b00      	ldr	r3, [sp, #0]
 8007918:	9c01      	ldr	r4, [sp, #4]
 800791a:	18c0      	adds	r0, r0, r3
 800791c:	4161      	adcs	r1, r4
 800791e:	0002      	movs	r2, r0
 8007920:	000b      	movs	r3, r1
 8007922:	4641      	mov	r1, r8
 8007924:	4664      	mov	r4, ip
 8007926:	604a      	str	r2, [r1, #4]
 8007928:	2100      	movs	r1, #0
 800792a:	68a0      	ldr	r0, [r4, #8]
 800792c:	9300      	str	r3, [sp, #0]
 800792e:	0e45      	lsrs	r5, r0, #25
 8007930:	01c4      	lsls	r4, r0, #7
 8007932:	1a24      	subs	r4, r4, r0
 8007934:	418d      	sbcs	r5, r1
 8007936:	9202      	str	r2, [sp, #8]
 8007938:	9303      	str	r3, [sp, #12]
 800793a:	0fa3      	lsrs	r3, r4, #30
 800793c:	4699      	mov	r9, r3
 800793e:	464e      	mov	r6, r9
 8007940:	00ab      	lsls	r3, r5, #2
 8007942:	4333      	orrs	r3, r6
 8007944:	00a2      	lsls	r2, r4, #2
 8007946:	0014      	movs	r4, r2
 8007948:	001d      	movs	r5, r3
 800794a:	1a24      	subs	r4, r4, r0
 800794c:	418d      	sbcs	r5, r1
 800794e:	0f26      	lsrs	r6, r4, #28
 8007950:	012b      	lsls	r3, r5, #4
 8007952:	4333      	orrs	r3, r6
 8007954:	0122      	lsls	r2, r4, #4
 8007956:	1a12      	subs	r2, r2, r0
 8007958:	418b      	sbcs	r3, r1
 800795a:	0f14      	lsrs	r4, r2, #28
 800795c:	0119      	lsls	r1, r3, #4
 800795e:	4321      	orrs	r1, r4
 8007960:	0110      	lsls	r0, r2, #4
 8007962:	1a80      	subs	r0, r0, r2
 8007964:	4199      	sbcs	r1, r3
 8007966:	9701      	str	r7, [sp, #4]
 8007968:	9b00      	ldr	r3, [sp, #0]
 800796a:	9c01      	ldr	r4, [sp, #4]
 800796c:	18c0      	adds	r0, r0, r3
 800796e:	4161      	adcs	r1, r4
 8007970:	000a      	movs	r2, r1
 8007972:	0001      	movs	r1, r0
 8007974:	4640      	mov	r0, r8
 8007976:	4664      	mov	r4, ip
 8007978:	6081      	str	r1, [r0, #8]
 800797a:	9104      	str	r1, [sp, #16]
 800797c:	9205      	str	r2, [sp, #20]
 800797e:	2100      	movs	r1, #0
 8007980:	68e0      	ldr	r0, [r4, #12]
 8007982:	9200      	str	r2, [sp, #0]
 8007984:	0e45      	lsrs	r5, r0, #25
 8007986:	01c4      	lsls	r4, r0, #7
 8007988:	1a24      	subs	r4, r4, r0
 800798a:	418d      	sbcs	r5, r1
 800798c:	0fa3      	lsrs	r3, r4, #30
 800798e:	4699      	mov	r9, r3
 8007990:	464e      	mov	r6, r9
 8007992:	00ab      	lsls	r3, r5, #2
 8007994:	4333      	orrs	r3, r6
 8007996:	00a2      	lsls	r2, r4, #2
 8007998:	0014      	movs	r4, r2
 800799a:	001d      	movs	r5, r3
 800799c:	1a24      	subs	r4, r4, r0
 800799e:	418d      	sbcs	r5, r1
 80079a0:	0f26      	lsrs	r6, r4, #28
 80079a2:	012b      	lsls	r3, r5, #4
 80079a4:	4333      	orrs	r3, r6
 80079a6:	0122      	lsls	r2, r4, #4
 80079a8:	1a12      	subs	r2, r2, r0
 80079aa:	418b      	sbcs	r3, r1
 80079ac:	0f14      	lsrs	r4, r2, #28
 80079ae:	0119      	lsls	r1, r3, #4
 80079b0:	4321      	orrs	r1, r4
 80079b2:	0110      	lsls	r0, r2, #4
 80079b4:	1a80      	subs	r0, r0, r2
 80079b6:	4199      	sbcs	r1, r3
 80079b8:	9701      	str	r7, [sp, #4]
 80079ba:	9b00      	ldr	r3, [sp, #0]
 80079bc:	9c01      	ldr	r4, [sp, #4]
 80079be:	18c0      	adds	r0, r0, r3
 80079c0:	4161      	adcs	r1, r4
 80079c2:	4644      	mov	r4, r8
 80079c4:	60e0      	str	r0, [r4, #12]
 80079c6:	4664      	mov	r4, ip
 80079c8:	9100      	str	r1, [sp, #0]
 80079ca:	9006      	str	r0, [sp, #24]
 80079cc:	9107      	str	r1, [sp, #28]
 80079ce:	2100      	movs	r1, #0
 80079d0:	6920      	ldr	r0, [r4, #16]
 80079d2:	9701      	str	r7, [sp, #4]
 80079d4:	0e45      	lsrs	r5, r0, #25
 80079d6:	01c4      	lsls	r4, r0, #7
 80079d8:	1a24      	subs	r4, r4, r0
 80079da:	418d      	sbcs	r5, r1
 80079dc:	0fa3      	lsrs	r3, r4, #30
 80079de:	4699      	mov	r9, r3
 80079e0:	464e      	mov	r6, r9
 80079e2:	00ab      	lsls	r3, r5, #2
 80079e4:	4333      	orrs	r3, r6
 80079e6:	00a2      	lsls	r2, r4, #2
 80079e8:	0014      	movs	r4, r2
 80079ea:	001d      	movs	r5, r3
 80079ec:	1a24      	subs	r4, r4, r0
 80079ee:	418d      	sbcs	r5, r1
 80079f0:	0f26      	lsrs	r6, r4, #28
 80079f2:	012b      	lsls	r3, r5, #4
 80079f4:	4333      	orrs	r3, r6
 80079f6:	0122      	lsls	r2, r4, #4
 80079f8:	1a12      	subs	r2, r2, r0
 80079fa:	418b      	sbcs	r3, r1
 80079fc:	0f14      	lsrs	r4, r2, #28
 80079fe:	0119      	lsls	r1, r3, #4
 8007a00:	4321      	orrs	r1, r4
 8007a02:	0110      	lsls	r0, r2, #4
 8007a04:	1a80      	subs	r0, r0, r2
 8007a06:	4199      	sbcs	r1, r3
 8007a08:	9a00      	ldr	r2, [sp, #0]
 8007a0a:	9b01      	ldr	r3, [sp, #4]
 8007a0c:	0004      	movs	r4, r0
 8007a0e:	000d      	movs	r5, r1
 8007a10:	18a4      	adds	r4, r4, r2
 8007a12:	415d      	adcs	r5, r3
 8007a14:	4646      	mov	r6, r8
 8007a16:	9408      	str	r4, [sp, #32]
 8007a18:	9509      	str	r5, [sp, #36]	; 0x24
 8007a1a:	9500      	str	r5, [sp, #0]
 8007a1c:	4665      	mov	r5, ip
 8007a1e:	2100      	movs	r1, #0
 8007a20:	6134      	str	r4, [r6, #16]
 8007a22:	6968      	ldr	r0, [r5, #20]
 8007a24:	2700      	movs	r7, #0
 8007a26:	0e45      	lsrs	r5, r0, #25
 8007a28:	01c4      	lsls	r4, r0, #7
 8007a2a:	1a24      	subs	r4, r4, r0
 8007a2c:	418d      	sbcs	r5, r1
 8007a2e:	0fa3      	lsrs	r3, r4, #30
 8007a30:	4699      	mov	r9, r3
 8007a32:	464e      	mov	r6, r9
 8007a34:	00ab      	lsls	r3, r5, #2
 8007a36:	4333      	orrs	r3, r6
 8007a38:	00a2      	lsls	r2, r4, #2
 8007a3a:	1a12      	subs	r2, r2, r0
 8007a3c:	418b      	sbcs	r3, r1
 8007a3e:	0014      	movs	r4, r2
 8007a40:	0f16      	lsrs	r6, r2, #28
 8007a42:	011b      	lsls	r3, r3, #4
 8007a44:	4333      	orrs	r3, r6
 8007a46:	0122      	lsls	r2, r4, #4
 8007a48:	1a12      	subs	r2, r2, r0
 8007a4a:	418b      	sbcs	r3, r1
 8007a4c:	0f14      	lsrs	r4, r2, #28
 8007a4e:	0119      	lsls	r1, r3, #4
 8007a50:	4321      	orrs	r1, r4
 8007a52:	0110      	lsls	r0, r2, #4
 8007a54:	1a80      	subs	r0, r0, r2
 8007a56:	4199      	sbcs	r1, r3
 8007a58:	9701      	str	r7, [sp, #4]
 8007a5a:	9b00      	ldr	r3, [sp, #0]
 8007a5c:	9c01      	ldr	r4, [sp, #4]
 8007a5e:	4645      	mov	r5, r8
 8007a60:	18c0      	adds	r0, r0, r3
 8007a62:	4161      	adcs	r1, r4
 8007a64:	6168      	str	r0, [r5, #20]
 8007a66:	4665      	mov	r5, ip
 8007a68:	0003      	movs	r3, r0
 8007a6a:	000c      	movs	r4, r1
 8007a6c:	9100      	str	r1, [sp, #0]
 8007a6e:	2100      	movs	r1, #0
 8007a70:	69a8      	ldr	r0, [r5, #24]
 8007a72:	930a      	str	r3, [sp, #40]	; 0x28
 8007a74:	940b      	str	r4, [sp, #44]	; 0x2c
 8007a76:	0e45      	lsrs	r5, r0, #25
 8007a78:	01c4      	lsls	r4, r0, #7
 8007a7a:	1a24      	subs	r4, r4, r0
 8007a7c:	418d      	sbcs	r5, r1
 8007a7e:	0fa2      	lsrs	r2, r4, #30
 8007a80:	00ab      	lsls	r3, r5, #2
 8007a82:	4313      	orrs	r3, r2
 8007a84:	00a2      	lsls	r2, r4, #2
 8007a86:	1a12      	subs	r2, r2, r0
 8007a88:	418b      	sbcs	r3, r1
 8007a8a:	0014      	movs	r4, r2
 8007a8c:	0f16      	lsrs	r6, r2, #28
 8007a8e:	011b      	lsls	r3, r3, #4
 8007a90:	4333      	orrs	r3, r6
 8007a92:	0122      	lsls	r2, r4, #4
 8007a94:	1a12      	subs	r2, r2, r0
 8007a96:	418b      	sbcs	r3, r1
 8007a98:	0f14      	lsrs	r4, r2, #28
 8007a9a:	0119      	lsls	r1, r3, #4
 8007a9c:	4321      	orrs	r1, r4
 8007a9e:	0110      	lsls	r0, r2, #4
 8007aa0:	1a80      	subs	r0, r0, r2
 8007aa2:	4199      	sbcs	r1, r3
 8007aa4:	9701      	str	r7, [sp, #4]
 8007aa6:	9b00      	ldr	r3, [sp, #0]
 8007aa8:	9c01      	ldr	r4, [sp, #4]
 8007aaa:	18c0      	adds	r0, r0, r3
 8007aac:	4161      	adcs	r1, r4
 8007aae:	0005      	movs	r5, r0
 8007ab0:	000e      	movs	r6, r1
 8007ab2:	950c      	str	r5, [sp, #48]	; 0x30
 8007ab4:	960d      	str	r6, [sp, #52]	; 0x34
 8007ab6:	2600      	movs	r6, #0
 8007ab8:	4647      	mov	r7, r8
 8007aba:	9601      	str	r6, [sp, #4]
 8007abc:	4666      	mov	r6, ip
 8007abe:	9100      	str	r1, [sp, #0]
 8007ac0:	2100      	movs	r1, #0
 8007ac2:	61b8      	str	r0, [r7, #24]
 8007ac4:	69f0      	ldr	r0, [r6, #28]
 8007ac6:	0e45      	lsrs	r5, r0, #25
 8007ac8:	01c4      	lsls	r4, r0, #7
 8007aca:	1a24      	subs	r4, r4, r0
 8007acc:	418d      	sbcs	r5, r1
 8007ace:	0fa6      	lsrs	r6, r4, #30
 8007ad0:	00ab      	lsls	r3, r5, #2
 8007ad2:	4333      	orrs	r3, r6
 8007ad4:	00a2      	lsls	r2, r4, #2
 8007ad6:	1a12      	subs	r2, r2, r0
 8007ad8:	418b      	sbcs	r3, r1
 8007ada:	0014      	movs	r4, r2
 8007adc:	0f16      	lsrs	r6, r2, #28
 8007ade:	011b      	lsls	r3, r3, #4
 8007ae0:	4333      	orrs	r3, r6
 8007ae2:	0122      	lsls	r2, r4, #4
 8007ae4:	1a12      	subs	r2, r2, r0
 8007ae6:	418b      	sbcs	r3, r1
 8007ae8:	0f11      	lsrs	r1, r2, #28
 8007aea:	011f      	lsls	r7, r3, #4
 8007aec:	430f      	orrs	r7, r1
 8007aee:	0116      	lsls	r6, r2, #4
 8007af0:	1ab6      	subs	r6, r6, r2
 8007af2:	419f      	sbcs	r7, r3
 8007af4:	9a00      	ldr	r2, [sp, #0]
 8007af6:	9b01      	ldr	r3, [sp, #4]
 8007af8:	18b6      	adds	r6, r6, r2
 8007afa:	415f      	adcs	r7, r3
 8007afc:	4642      	mov	r2, r8
 8007afe:	2300      	movs	r3, #0
 8007b00:	61d6      	str	r6, [r2, #28]
 8007b02:	0038      	movs	r0, r7
 8007b04:	2226      	movs	r2, #38	; 0x26
 8007b06:	2100      	movs	r1, #0
 8007b08:	f7f8 fb8a 	bl	8000220 <__aeabi_lmul>
 8007b0c:	2300      	movs	r3, #0
 8007b0e:	9a0e      	ldr	r2, [sp, #56]	; 0x38
 8007b10:	2500      	movs	r5, #0
 8007b12:	1880      	adds	r0, r0, r2
 8007b14:	4159      	adcs	r1, r3
 8007b16:	2300      	movs	r3, #0
 8007b18:	000c      	movs	r4, r1
 8007b1a:	9a02      	ldr	r2, [sp, #8]
 8007b1c:	1912      	adds	r2, r2, r4
 8007b1e:	416b      	adcs	r3, r5
 8007b20:	4644      	mov	r4, r8
 8007b22:	2500      	movs	r5, #0
 8007b24:	6062      	str	r2, [r4, #4]
 8007b26:	001c      	movs	r4, r3
 8007b28:	2300      	movs	r3, #0
 8007b2a:	9a04      	ldr	r2, [sp, #16]
 8007b2c:	1912      	adds	r2, r2, r4
 8007b2e:	416b      	adcs	r3, r5
 8007b30:	4644      	mov	r4, r8
 8007b32:	2500      	movs	r5, #0
 8007b34:	60a2      	str	r2, [r4, #8]
 8007b36:	001c      	movs	r4, r3
 8007b38:	2300      	movs	r3, #0
 8007b3a:	9a06      	ldr	r2, [sp, #24]
 8007b3c:	1912      	adds	r2, r2, r4
 8007b3e:	416b      	adcs	r3, r5
 8007b40:	4644      	mov	r4, r8
 8007b42:	2500      	movs	r5, #0
 8007b44:	60e2      	str	r2, [r4, #12]
 8007b46:	001c      	movs	r4, r3
 8007b48:	2300      	movs	r3, #0
 8007b4a:	9a08      	ldr	r2, [sp, #32]
 8007b4c:	1912      	adds	r2, r2, r4
 8007b4e:	416b      	adcs	r3, r5
 8007b50:	4644      	mov	r4, r8
 8007b52:	2500      	movs	r5, #0
 8007b54:	6122      	str	r2, [r4, #16]
 8007b56:	001c      	movs	r4, r3
 8007b58:	2300      	movs	r3, #0
 8007b5a:	9a0a      	ldr	r2, [sp, #40]	; 0x28
 8007b5c:	1912      	adds	r2, r2, r4
 8007b5e:	416b      	adcs	r3, r5
 8007b60:	4644      	mov	r4, r8
 8007b62:	2500      	movs	r5, #0
 8007b64:	6162      	str	r2, [r4, #20]
 8007b66:	001c      	movs	r4, r3
 8007b68:	2300      	movs	r3, #0
 8007b6a:	9a0c      	ldr	r2, [sp, #48]	; 0x30
 8007b6c:	1912      	adds	r2, r2, r4
 8007b6e:	416b      	adcs	r3, r5
 8007b70:	4644      	mov	r4, r8
 8007b72:	2500      	movs	r5, #0
 8007b74:	61a2      	str	r2, [r4, #24]
 8007b76:	0032      	movs	r2, r6
 8007b78:	001c      	movs	r4, r3
 8007b7a:	2300      	movs	r3, #0
 8007b7c:	18a4      	adds	r4, r4, r2
 8007b7e:	415d      	adcs	r5, r3
 8007b80:	2226      	movs	r2, #38	; 0x26
 8007b82:	4643      	mov	r3, r8
 8007b84:	436a      	muls	r2, r5
 8007b86:	1810      	adds	r0, r2, r0
 8007b88:	61dc      	str	r4, [r3, #28]
 8007b8a:	6018      	str	r0, [r3, #0]
 8007b8c:	b011      	add	sp, #68	; 0x44
 8007b8e:	bc0c      	pop	{r2, r3}
 8007b90:	4690      	mov	r8, r2
 8007b92:	4699      	mov	r9, r3
 8007b94:	bdf0      	pop	{r4, r5, r6, r7, pc}
 8007b96:	46c0      	nop			; (mov r8, r8)

08007b98 <C25519keyExchange.part.50>:
 8007b98:	b5f0      	push	{r4, r5, r6, r7, lr}
 8007b9a:	46ce      	mov	lr, r9
 8007b9c:	4647      	mov	r7, r8
 8007b9e:	b580      	push	{r7, lr}
 8007ba0:	4c17      	ldr	r4, [pc, #92]	; (8007c00 <C25519keyExchange.part.50+0x68>)
 8007ba2:	0015      	movs	r5, r2
 8007ba4:	44a5      	add	sp, r4
 8007ba6:	ac04      	add	r4, sp, #16
 8007ba8:	2220      	movs	r2, #32
 8007baa:	4681      	mov	r9, r0
 8007bac:	0020      	movs	r0, r4
 8007bae:	f000 fc47 	bl	8008440 <memcpy>
 8007bb2:	2207      	movs	r2, #7
 8007bb4:	7823      	ldrb	r3, [r4, #0]
 8007bb6:	0029      	movs	r1, r5
 8007bb8:	4393      	bics	r3, r2
 8007bba:	7023      	strb	r3, [r4, #0]
 8007bbc:	237f      	movs	r3, #127	; 0x7f
 8007bbe:	7fe2      	ldrb	r2, [r4, #31]
 8007bc0:	a8dc      	add	r0, sp, #880	; 0x370
 8007bc2:	4013      	ands	r3, r2
 8007bc4:	2240      	movs	r2, #64	; 0x40
 8007bc6:	4313      	orrs	r3, r2
 8007bc8:	77e3      	strb	r3, [r4, #31]
 8007bca:	f7ff f897 	bl	8006cfc <fe25519_unpack>
 8007bce:	9be3      	ldr	r3, [sp, #908]	; 0x38c
 8007bd0:	a9dc      	add	r1, sp, #880	; 0x370
 8007bd2:	9301      	str	r3, [sp, #4]
 8007bd4:	005b      	lsls	r3, r3, #1
 8007bd6:	085b      	lsrs	r3, r3, #1
 8007bd8:	a82c      	add	r0, sp, #176	; 0xb0
 8007bda:	93e3      	str	r3, [sp, #908]	; 0x38c
 8007bdc:	f7ff f91e 	bl	8006e1c <fe25519_copy>
 8007be0:	a834      	add	r0, sp, #208	; 0xd0
 8007be2:	f7ff f92d 	bl	8006e40 <fe25519_setone>
 8007be6:	a83c      	add	r0, sp, #240	; 0xf0
 8007be8:	f7ff f92a 	bl	8006e40 <fe25519_setone>
 8007bec:	a844      	add	r0, sp, #272	; 0x110
 8007bee:	f7ff f933 	bl	8006e58 <fe25519_setzero>
 8007bf2:	2301      	movs	r3, #1
 8007bf4:	25fe      	movs	r5, #254	; 0xfe
 8007bf6:	2701      	movs	r7, #1
 8007bf8:	4e02      	ldr	r6, [pc, #8]	; (8007c04 <C25519keyExchange.part.50+0x6c>)
 8007bfa:	4698      	mov	r8, r3
 8007bfc:	e188      	b.n	8007f10 <C25519keyExchange.part.50+0x378>
 8007bfe:	46c0      	nop			; (mov r8, r8)
 8007c00:	fffffc2c 	.word	0xfffffc2c
 8007c04:	40023008 	.word	0x40023008
 8007c08:	993c      	ldr	r1, [sp, #240]	; 0xf0
 8007c0a:	9a2c      	ldr	r2, [sp, #176]	; 0xb0
 8007c0c:	000b      	movs	r3, r1
 8007c0e:	4053      	eors	r3, r2
 8007c10:	4023      	ands	r3, r4
 8007c12:	401a      	ands	r2, r3
 8007c14:	400b      	ands	r3, r1
 8007c16:	993d      	ldr	r1, [sp, #244]	; 0xf4
 8007c18:	935c      	str	r3, [sp, #368]	; 0x170
 8007c1a:	000b      	movs	r3, r1
 8007c1c:	924c      	str	r2, [sp, #304]	; 0x130
 8007c1e:	9a2d      	ldr	r2, [sp, #180]	; 0xb4
 8007c20:	4053      	eors	r3, r2
 8007c22:	4023      	ands	r3, r4
 8007c24:	401a      	ands	r2, r3
 8007c26:	400b      	ands	r3, r1
 8007c28:	993e      	ldr	r1, [sp, #248]	; 0xf8
 8007c2a:	935d      	str	r3, [sp, #372]	; 0x174
 8007c2c:	000b      	movs	r3, r1
 8007c2e:	924d      	str	r2, [sp, #308]	; 0x134
 8007c30:	9a2e      	ldr	r2, [sp, #184]	; 0xb8
 8007c32:	4053      	eors	r3, r2
 8007c34:	4023      	ands	r3, r4
 8007c36:	401a      	ands	r2, r3
 8007c38:	400b      	ands	r3, r1
 8007c3a:	993f      	ldr	r1, [sp, #252]	; 0xfc
 8007c3c:	935e      	str	r3, [sp, #376]	; 0x178
 8007c3e:	000b      	movs	r3, r1
 8007c40:	924e      	str	r2, [sp, #312]	; 0x138
 8007c42:	9a2f      	ldr	r2, [sp, #188]	; 0xbc
 8007c44:	4053      	eors	r3, r2
 8007c46:	4023      	ands	r3, r4
 8007c48:	401a      	ands	r2, r3
 8007c4a:	400b      	ands	r3, r1
 8007c4c:	9940      	ldr	r1, [sp, #256]	; 0x100
 8007c4e:	935f      	str	r3, [sp, #380]	; 0x17c
 8007c50:	000b      	movs	r3, r1
 8007c52:	924f      	str	r2, [sp, #316]	; 0x13c
 8007c54:	9a30      	ldr	r2, [sp, #192]	; 0xc0
 8007c56:	4053      	eors	r3, r2
 8007c58:	4023      	ands	r3, r4
 8007c5a:	401a      	ands	r2, r3
 8007c5c:	400b      	ands	r3, r1
 8007c5e:	9941      	ldr	r1, [sp, #260]	; 0x104
 8007c60:	9360      	str	r3, [sp, #384]	; 0x180
 8007c62:	000b      	movs	r3, r1
 8007c64:	9250      	str	r2, [sp, #320]	; 0x140
 8007c66:	9a31      	ldr	r2, [sp, #196]	; 0xc4
 8007c68:	4053      	eors	r3, r2
 8007c6a:	4023      	ands	r3, r4
 8007c6c:	401a      	ands	r2, r3
 8007c6e:	400b      	ands	r3, r1
 8007c70:	9942      	ldr	r1, [sp, #264]	; 0x108
 8007c72:	9361      	str	r3, [sp, #388]	; 0x184
 8007c74:	000b      	movs	r3, r1
 8007c76:	9251      	str	r2, [sp, #324]	; 0x144
 8007c78:	9a32      	ldr	r2, [sp, #200]	; 0xc8
 8007c7a:	4053      	eors	r3, r2
 8007c7c:	4023      	ands	r3, r4
 8007c7e:	401a      	ands	r2, r3
 8007c80:	400b      	ands	r3, r1
 8007c82:	9943      	ldr	r1, [sp, #268]	; 0x10c
 8007c84:	9362      	str	r3, [sp, #392]	; 0x188
 8007c86:	000b      	movs	r3, r1
 8007c88:	9252      	str	r2, [sp, #328]	; 0x148
 8007c8a:	9a33      	ldr	r2, [sp, #204]	; 0xcc
 8007c8c:	4053      	eors	r3, r2
 8007c8e:	4023      	ands	r3, r4
 8007c90:	401a      	ands	r2, r3
 8007c92:	400b      	ands	r3, r1
 8007c94:	9944      	ldr	r1, [sp, #272]	; 0x110
 8007c96:	9363      	str	r3, [sp, #396]	; 0x18c
 8007c98:	000b      	movs	r3, r1
 8007c9a:	9253      	str	r2, [sp, #332]	; 0x14c
 8007c9c:	9a34      	ldr	r2, [sp, #208]	; 0xd0
 8007c9e:	4053      	eors	r3, r2
 8007ca0:	4063      	eors	r3, r4
 8007ca2:	401a      	ands	r2, r3
 8007ca4:	400b      	ands	r3, r1
 8007ca6:	9945      	ldr	r1, [sp, #276]	; 0x114
 8007ca8:	9364      	str	r3, [sp, #400]	; 0x190
 8007caa:	000b      	movs	r3, r1
 8007cac:	9254      	str	r2, [sp, #336]	; 0x150
 8007cae:	9a35      	ldr	r2, [sp, #212]	; 0xd4
 8007cb0:	4053      	eors	r3, r2
 8007cb2:	4063      	eors	r3, r4
 8007cb4:	401a      	ands	r2, r3
 8007cb6:	400b      	ands	r3, r1
 8007cb8:	9946      	ldr	r1, [sp, #280]	; 0x118
 8007cba:	9365      	str	r3, [sp, #404]	; 0x194
 8007cbc:	000b      	movs	r3, r1
 8007cbe:	9255      	str	r2, [sp, #340]	; 0x154
 8007cc0:	9a36      	ldr	r2, [sp, #216]	; 0xd8
 8007cc2:	4053      	eors	r3, r2
 8007cc4:	4063      	eors	r3, r4
 8007cc6:	401a      	ands	r2, r3
 8007cc8:	400b      	ands	r3, r1
 8007cca:	9947      	ldr	r1, [sp, #284]	; 0x11c
 8007ccc:	9366      	str	r3, [sp, #408]	; 0x198
 8007cce:	000b      	movs	r3, r1
 8007cd0:	9256      	str	r2, [sp, #344]	; 0x158
 8007cd2:	9a37      	ldr	r2, [sp, #220]	; 0xdc
 8007cd4:	4053      	eors	r3, r2
 8007cd6:	4063      	eors	r3, r4
 8007cd8:	401a      	ands	r2, r3
 8007cda:	400b      	ands	r3, r1
 8007cdc:	9948      	ldr	r1, [sp, #288]	; 0x120
 8007cde:	9367      	str	r3, [sp, #412]	; 0x19c
 8007ce0:	000b      	movs	r3, r1
 8007ce2:	9257      	str	r2, [sp, #348]	; 0x15c
 8007ce4:	9a38      	ldr	r2, [sp, #224]	; 0xe0
 8007ce6:	4053      	eors	r3, r2
 8007ce8:	4063      	eors	r3, r4
 8007cea:	401a      	ands	r2, r3
 8007cec:	400b      	ands	r3, r1
 8007cee:	9949      	ldr	r1, [sp, #292]	; 0x124
 8007cf0:	9368      	str	r3, [sp, #416]	; 0x1a0
 8007cf2:	000b      	movs	r3, r1
 8007cf4:	9258      	str	r2, [sp, #352]	; 0x160
 8007cf6:	9a39      	ldr	r2, [sp, #228]	; 0xe4
 8007cf8:	4053      	eors	r3, r2
 8007cfa:	4063      	eors	r3, r4
 8007cfc:	401a      	ands	r2, r3
 8007cfe:	400b      	ands	r3, r1
 8007d00:	994a      	ldr	r1, [sp, #296]	; 0x128
 8007d02:	9369      	str	r3, [sp, #420]	; 0x1a4
 8007d04:	000b      	movs	r3, r1
 8007d06:	9259      	str	r2, [sp, #356]	; 0x164
 8007d08:	9a3a      	ldr	r2, [sp, #232]	; 0xe8
 8007d0a:	4053      	eors	r3, r2
 8007d0c:	4063      	eors	r3, r4
 8007d0e:	401a      	ands	r2, r3
 8007d10:	400b      	ands	r3, r1
 8007d12:	994b      	ldr	r1, [sp, #300]	; 0x12c
 8007d14:	936a      	str	r3, [sp, #424]	; 0x1a8
 8007d16:	000b      	movs	r3, r1
 8007d18:	925a      	str	r2, [sp, #360]	; 0x168
 8007d1a:	9a3b      	ldr	r2, [sp, #236]	; 0xec
 8007d1c:	4053      	eors	r3, r2
 8007d1e:	4063      	eors	r3, r4
 8007d20:	401a      	ands	r2, r3
 8007d22:	400b      	ands	r3, r1
 8007d24:	925b      	str	r2, [sp, #364]	; 0x16c
 8007d26:	936b      	str	r3, [sp, #428]	; 0x1ac
 8007d28:	aa54      	add	r2, sp, #336	; 0x150
 8007d2a:	a94c      	add	r1, sp, #304	; 0x130
 8007d2c:	a88c      	add	r0, sp, #560	; 0x230
 8007d2e:	f7ff f899 	bl	8006e64 <fe25519_add>
 8007d32:	aa54      	add	r2, sp, #336	; 0x150
 8007d34:	a94c      	add	r1, sp, #304	; 0x130
 8007d36:	a894      	add	r0, sp, #592	; 0x250
 8007d38:	f7ff f94e 	bl	8006fd8 <fe25519_sub>
 8007d3c:	aa64      	add	r2, sp, #400	; 0x190
 8007d3e:	a95c      	add	r1, sp, #368	; 0x170
 8007d40:	a89c      	add	r0, sp, #624	; 0x270
 8007d42:	f7ff f88f 	bl	8006e64 <fe25519_add>
 8007d46:	aa64      	add	r2, sp, #400	; 0x190
 8007d48:	a95c      	add	r1, sp, #368	; 0x170
 8007d4a:	a8a4      	add	r0, sp, #656	; 0x290
 8007d4c:	f7ff f944 	bl	8006fd8 <fe25519_sub>
 8007d50:	a98c      	add	r1, sp, #560	; 0x230
 8007d52:	a8ac      	add	r0, sp, #688	; 0x2b0
 8007d54:	f7ff fcaa 	bl	80076ac <fe25519_square>
 8007d58:	a994      	add	r1, sp, #592	; 0x250
 8007d5a:	a8b4      	add	r0, sp, #720	; 0x2d0
 8007d5c:	f7ff fca6 	bl	80076ac <fe25519_square>
 8007d60:	aa94      	add	r2, sp, #592	; 0x250
 8007d62:	a99c      	add	r1, sp, #624	; 0x270
 8007d64:	a8bc      	add	r0, sp, #752	; 0x2f0
 8007d66:	f7ff faed 	bl	8007344 <fe25519_mul>
 8007d6a:	aa8c      	add	r2, sp, #560	; 0x230
 8007d6c:	a9a4      	add	r1, sp, #656	; 0x290
 8007d6e:	a8c4      	add	r0, sp, #784	; 0x310
 8007d70:	f7ff fae8 	bl	8007344 <fe25519_mul>
 8007d74:	aac4      	add	r2, sp, #784	; 0x310
 8007d76:	a9bc      	add	r1, sp, #752	; 0x2f0
 8007d78:	a8cc      	add	r0, sp, #816	; 0x330
 8007d7a:	f7ff f873 	bl	8006e64 <fe25519_add>
 8007d7e:	aac4      	add	r2, sp, #784	; 0x310
 8007d80:	a9bc      	add	r1, sp, #752	; 0x2f0
 8007d82:	a8d4      	add	r0, sp, #848	; 0x350
 8007d84:	f7ff f928 	bl	8006fd8 <fe25519_sub>
 8007d88:	a9d4      	add	r1, sp, #848	; 0x350
 8007d8a:	a80c      	add	r0, sp, #48	; 0x30
 8007d8c:	f7ff fc8e 	bl	80076ac <fe25519_square>
 8007d90:	aab4      	add	r2, sp, #720	; 0x2d0
 8007d92:	a9ac      	add	r1, sp, #688	; 0x2b0
 8007d94:	a814      	add	r0, sp, #80	; 0x50
 8007d96:	f7ff f91f 	bl	8006fd8 <fe25519_sub>
 8007d9a:	a914      	add	r1, sp, #80	; 0x50
 8007d9c:	a81c      	add	r0, sp, #112	; 0x70
 8007d9e:	f7ff fd77 	bl	8007890 <fe25519_mult121665>
 8007da2:	aaac      	add	r2, sp, #688	; 0x2b0
 8007da4:	a91c      	add	r1, sp, #112	; 0x70
 8007da6:	a824      	add	r0, sp, #144	; 0x90
 8007da8:	f7ff f85c 	bl	8006e64 <fe25519_add>
 8007dac:	aab4      	add	r2, sp, #720	; 0x2d0
 8007dae:	a9ac      	add	r1, sp, #688	; 0x2b0
 8007db0:	a86c      	add	r0, sp, #432	; 0x1b0
 8007db2:	f7ff fac7 	bl	8007344 <fe25519_mul>
 8007db6:	aa24      	add	r2, sp, #144	; 0x90
 8007db8:	a914      	add	r1, sp, #80	; 0x50
 8007dba:	a874      	add	r0, sp, #464	; 0x1d0
 8007dbc:	f7ff fac2 	bl	8007344 <fe25519_mul>
 8007dc0:	a9cc      	add	r1, sp, #816	; 0x330
 8007dc2:	a87c      	add	r0, sp, #496	; 0x1f0
 8007dc4:	f7ff fc72 	bl	80076ac <fe25519_square>
 8007dc8:	aadc      	add	r2, sp, #880	; 0x370
 8007dca:	a90c      	add	r1, sp, #48	; 0x30
 8007dcc:	a884      	add	r0, sp, #528	; 0x210
 8007dce:	f7ff fab9 	bl	8007344 <fe25519_mul>
 8007dd2:	2300      	movs	r3, #0
 8007dd4:	9302      	str	r3, [sp, #8]
 8007dd6:	6037      	str	r7, [r6, #0]
 8007dd8:	6833      	ldr	r3, [r6, #0]
 8007dda:	9302      	str	r3, [sp, #8]
 8007ddc:	4bee      	ldr	r3, [pc, #952]	; (8008198 <C25519keyExchange.part.50+0x600>)
 8007dde:	681a      	ldr	r2, [r3, #0]
 8007de0:	9202      	str	r2, [sp, #8]
 8007de2:	9a02      	ldr	r2, [sp, #8]
 8007de4:	3201      	adds	r2, #1
 8007de6:	d100      	bne.n	8007dea <C25519keyExchange.part.50+0x252>
 8007de8:	e0f8      	b.n	8007fdc <C25519keyExchange.part.50+0x444>
 8007dea:	996c      	ldr	r1, [sp, #432]	; 0x1b0
 8007dec:	9a7c      	ldr	r2, [sp, #496]	; 0x1f0
 8007dee:	000b      	movs	r3, r1
 8007df0:	4053      	eors	r3, r2
 8007df2:	4023      	ands	r3, r4
 8007df4:	401a      	ands	r2, r3
 8007df6:	400b      	ands	r3, r1
 8007df8:	996d      	ldr	r1, [sp, #436]	; 0x1b4
 8007dfa:	932c      	str	r3, [sp, #176]	; 0xb0
 8007dfc:	000b      	movs	r3, r1
 8007dfe:	923c      	str	r2, [sp, #240]	; 0xf0
 8007e00:	9a7d      	ldr	r2, [sp, #500]	; 0x1f4
 8007e02:	4053      	eors	r3, r2
 8007e04:	4023      	ands	r3, r4
 8007e06:	401a      	ands	r2, r3
 8007e08:	400b      	ands	r3, r1
 8007e0a:	996e      	ldr	r1, [sp, #440]	; 0x1b8
 8007e0c:	932d      	str	r3, [sp, #180]	; 0xb4
 8007e0e:	000b      	movs	r3, r1
 8007e10:	923d      	str	r2, [sp, #244]	; 0xf4
 8007e12:	9a7e      	ldr	r2, [sp, #504]	; 0x1f8
 8007e14:	4053      	eors	r3, r2
 8007e16:	4023      	ands	r3, r4
 8007e18:	401a      	ands	r2, r3
 8007e1a:	400b      	ands	r3, r1
 8007e1c:	996f      	ldr	r1, [sp, #444]	; 0x1bc
 8007e1e:	932e      	str	r3, [sp, #184]	; 0xb8
 8007e20:	000b      	movs	r3, r1
 8007e22:	923e      	str	r2, [sp, #248]	; 0xf8
 8007e24:	9a7f      	ldr	r2, [sp, #508]	; 0x1fc
 8007e26:	4053      	eors	r3, r2
 8007e28:	4023      	ands	r3, r4
 8007e2a:	401a      	ands	r2, r3
 8007e2c:	400b      	ands	r3, r1
 8007e2e:	9970      	ldr	r1, [sp, #448]	; 0x1c0
 8007e30:	932f      	str	r3, [sp, #188]	; 0xbc
 8007e32:	000b      	movs	r3, r1
 8007e34:	923f      	str	r2, [sp, #252]	; 0xfc
 8007e36:	9a80      	ldr	r2, [sp, #512]	; 0x200
 8007e38:	4053      	eors	r3, r2
 8007e3a:	4023      	ands	r3, r4
 8007e3c:	401a      	ands	r2, r3
 8007e3e:	400b      	ands	r3, r1
 8007e40:	9971      	ldr	r1, [sp, #452]	; 0x1c4
 8007e42:	9330      	str	r3, [sp, #192]	; 0xc0
 8007e44:	000b      	movs	r3, r1
 8007e46:	9240      	str	r2, [sp, #256]	; 0x100
 8007e48:	9a81      	ldr	r2, [sp, #516]	; 0x204
 8007e4a:	4053      	eors	r3, r2
 8007e4c:	4023      	ands	r3, r4
 8007e4e:	401a      	ands	r2, r3
 8007e50:	400b      	ands	r3, r1
 8007e52:	9972      	ldr	r1, [sp, #456]	; 0x1c8
 8007e54:	9331      	str	r3, [sp, #196]	; 0xc4
 8007e56:	000b      	movs	r3, r1
 8007e58:	9241      	str	r2, [sp, #260]	; 0x104
 8007e5a:	9a82      	ldr	r2, [sp, #520]	; 0x208
 8007e5c:	4053      	eors	r3, r2
 8007e5e:	4023      	ands	r3, r4
 8007e60:	401a      	ands	r2, r3
 8007e62:	400b      	ands	r3, r1
 8007e64:	9973      	ldr	r1, [sp, #460]	; 0x1cc
 8007e66:	9332      	str	r3, [sp, #200]	; 0xc8
 8007e68:	000b      	movs	r3, r1
 8007e6a:	9242      	str	r2, [sp, #264]	; 0x108
 8007e6c:	9a83      	ldr	r2, [sp, #524]	; 0x20c
 8007e6e:	4053      	eors	r3, r2
 8007e70:	4023      	ands	r3, r4
 8007e72:	401a      	ands	r2, r3
 8007e74:	400b      	ands	r3, r1
 8007e76:	9974      	ldr	r1, [sp, #464]	; 0x1d0
 8007e78:	9333      	str	r3, [sp, #204]	; 0xcc
 8007e7a:	000b      	movs	r3, r1
 8007e7c:	9243      	str	r2, [sp, #268]	; 0x10c
 8007e7e:	9a84      	ldr	r2, [sp, #528]	; 0x210
 8007e80:	4053      	eors	r3, r2
 8007e82:	4063      	eors	r3, r4
 8007e84:	401a      	ands	r2, r3
 8007e86:	400b      	ands	r3, r1
 8007e88:	9975      	ldr	r1, [sp, #468]	; 0x1d4
 8007e8a:	9334      	str	r3, [sp, #208]	; 0xd0
 8007e8c:	000b      	movs	r3, r1
 8007e8e:	9244      	str	r2, [sp, #272]	; 0x110
 8007e90:	9a85      	ldr	r2, [sp, #532]	; 0x214
 8007e92:	4053      	eors	r3, r2
 8007e94:	4063      	eors	r3, r4
 8007e96:	401a      	ands	r2, r3
 8007e98:	400b      	ands	r3, r1
 8007e9a:	9976      	ldr	r1, [sp, #472]	; 0x1d8
 8007e9c:	9335      	str	r3, [sp, #212]	; 0xd4
 8007e9e:	000b      	movs	r3, r1
 8007ea0:	9245      	str	r2, [sp, #276]	; 0x114
 8007ea2:	9a86      	ldr	r2, [sp, #536]	; 0x218
 8007ea4:	4053      	eors	r3, r2
 8007ea6:	4063      	eors	r3, r4
 8007ea8:	401a      	ands	r2, r3
 8007eaa:	400b      	ands	r3, r1
 8007eac:	9977      	ldr	r1, [sp, #476]	; 0x1dc
 8007eae:	9336      	str	r3, [sp, #216]	; 0xd8
 8007eb0:	000b      	movs	r3, r1
 8007eb2:	9246      	str	r2, [sp, #280]	; 0x118
 8007eb4:	9a87      	ldr	r2, [sp, #540]	; 0x21c
 8007eb6:	4053      	eors	r3, r2
 8007eb8:	4063      	eors	r3, r4
 8007eba:	401a      	ands	r2, r3
 8007ebc:	400b      	ands	r3, r1
 8007ebe:	9978      	ldr	r1, [sp, #480]	; 0x1e0
 8007ec0:	9337      	str	r3, [sp, #220]	; 0xdc
 8007ec2:	000b      	movs	r3, r1
 8007ec4:	9247      	str	r2, [sp, #284]	; 0x11c
 8007ec6:	9a88      	ldr	r2, [sp, #544]	; 0x220
 8007ec8:	4053      	eors	r3, r2
 8007eca:	4063      	eors	r3, r4
 8007ecc:	401a      	ands	r2, r3
 8007ece:	400b      	ands	r3, r1
 8007ed0:	9979      	ldr	r1, [sp, #484]	; 0x1e4
 8007ed2:	9338      	str	r3, [sp, #224]	; 0xe0
 8007ed4:	000b      	movs	r3, r1
 8007ed6:	9248      	str	r2, [sp, #288]	; 0x120
 8007ed8:	9a89      	ldr	r2, [sp, #548]	; 0x224
 8007eda:	4053      	eors	r3, r2
 8007edc:	4063      	eors	r3, r4
 8007ede:	401a      	ands	r2, r3
 8007ee0:	400b      	ands	r3, r1
 8007ee2:	997a      	ldr	r1, [sp, #488]	; 0x1e8
 8007ee4:	9339      	str	r3, [sp, #228]	; 0xe4
 8007ee6:	000b      	movs	r3, r1
 8007ee8:	9249      	str	r2, [sp, #292]	; 0x124
 8007eea:	9a8a      	ldr	r2, [sp, #552]	; 0x228
 8007eec:	4053      	eors	r3, r2
 8007eee:	4063      	eors	r3, r4
 8007ef0:	401a      	ands	r2, r3
 8007ef2:	400b      	ands	r3, r1
 8007ef4:	997b      	ldr	r1, [sp, #492]	; 0x1ec
 8007ef6:	933a      	str	r3, [sp, #232]	; 0xe8
 8007ef8:	000b      	movs	r3, r1
 8007efa:	924a      	str	r2, [sp, #296]	; 0x128
 8007efc:	9a8b      	ldr	r2, [sp, #556]	; 0x22c
 8007efe:	4053      	eors	r3, r2
 8007f00:	405c      	eors	r4, r3
 8007f02:	4022      	ands	r2, r4
 8007f04:	400c      	ands	r4, r1
 8007f06:	924b      	str	r2, [sp, #300]	; 0x12c
 8007f08:	943b      	str	r4, [sp, #236]	; 0xec
 8007f0a:	3d01      	subs	r5, #1
 8007f0c:	d200      	bcs.n	8007f10 <C25519keyExchange.part.50+0x378>
 8007f0e:	e1da      	b.n	80082c6 <C25519keyExchange.part.50+0x72e>
 8007f10:	aaf4      	add	r2, sp, #976	; 0x3d0
 8007f12:	4694      	mov	ip, r2
 8007f14:	4aa1      	ldr	r2, [pc, #644]	; (800819c <C25519keyExchange.part.50+0x604>)
 8007f16:	10eb      	asrs	r3, r5, #3
 8007f18:	4463      	add	r3, ip
 8007f1a:	4694      	mov	ip, r2
 8007f1c:	4463      	add	r3, ip
 8007f1e:	781c      	ldrb	r4, [r3, #0]
 8007f20:	2307      	movs	r3, #7
 8007f22:	402b      	ands	r3, r5
 8007f24:	411c      	asrs	r4, r3
 8007f26:	2300      	movs	r3, #0
 8007f28:	9303      	str	r3, [sp, #12]
 8007f2a:	4643      	mov	r3, r8
 8007f2c:	6033      	str	r3, [r6, #0]
 8007f2e:	6833      	ldr	r3, [r6, #0]
 8007f30:	403c      	ands	r4, r7
 8007f32:	9303      	str	r3, [sp, #12]
 8007f34:	4b98      	ldr	r3, [pc, #608]	; (8008198 <C25519keyExchange.part.50+0x600>)
 8007f36:	3c01      	subs	r4, #1
 8007f38:	681a      	ldr	r2, [r3, #0]
 8007f3a:	9203      	str	r2, [sp, #12]
 8007f3c:	9a03      	ldr	r2, [sp, #12]
 8007f3e:	3201      	adds	r2, #1
 8007f40:	d000      	beq.n	8007f44 <C25519keyExchange.part.50+0x3ac>
 8007f42:	e661      	b.n	8007c08 <C25519keyExchange.part.50+0x70>
 8007f44:	9a03      	ldr	r2, [sp, #12]
 8007f46:	601a      	str	r2, [r3, #0]
 8007f48:	681b      	ldr	r3, [r3, #0]
 8007f4a:	9303      	str	r3, [sp, #12]
 8007f4c:	9b03      	ldr	r3, [sp, #12]
 8007f4e:	2b00      	cmp	r3, #0
 8007f50:	d100      	bne.n	8007f54 <C25519keyExchange.part.50+0x3bc>
 8007f52:	e08f      	b.n	8008074 <C25519keyExchange.part.50+0x4dc>
 8007f54:	9a2c      	ldr	r2, [sp, #176]	; 0xb0
 8007f56:	993c      	ldr	r1, [sp, #240]	; 0xf0
 8007f58:	0013      	movs	r3, r2
 8007f5a:	400b      	ands	r3, r1
 8007f5c:	4023      	ands	r3, r4
 8007f5e:	401a      	ands	r2, r3
 8007f60:	924c      	str	r2, [sp, #304]	; 0x130
 8007f62:	9a2d      	ldr	r2, [sp, #180]	; 0xb4
 8007f64:	400b      	ands	r3, r1
 8007f66:	935c      	str	r3, [sp, #368]	; 0x170
 8007f68:	0013      	movs	r3, r2
 8007f6a:	993d      	ldr	r1, [sp, #244]	; 0xf4
 8007f6c:	400b      	ands	r3, r1
 8007f6e:	4023      	ands	r3, r4
 8007f70:	401a      	ands	r2, r3
 8007f72:	924d      	str	r2, [sp, #308]	; 0x134
 8007f74:	9a2e      	ldr	r2, [sp, #184]	; 0xb8
 8007f76:	400b      	ands	r3, r1
 8007f78:	935d      	str	r3, [sp, #372]	; 0x174
 8007f7a:	0013      	movs	r3, r2
 8007f7c:	993e      	ldr	r1, [sp, #248]	; 0xf8
 8007f7e:	400b      	ands	r3, r1
 8007f80:	4023      	ands	r3, r4
 8007f82:	401a      	ands	r2, r3
 8007f84:	924e      	str	r2, [sp, #312]	; 0x138
 8007f86:	9a2f      	ldr	r2, [sp, #188]	; 0xbc
 8007f88:	400b      	ands	r3, r1
 8007f8a:	935e      	str	r3, [sp, #376]	; 0x178
 8007f8c:	0013      	movs	r3, r2
 8007f8e:	993f      	ldr	r1, [sp, #252]	; 0xfc
 8007f90:	400b      	ands	r3, r1
 8007f92:	4023      	ands	r3, r4
 8007f94:	401a      	ands	r2, r3
 8007f96:	924f      	str	r2, [sp, #316]	; 0x13c
 8007f98:	9a30      	ldr	r2, [sp, #192]	; 0xc0
 8007f9a:	400b      	ands	r3, r1
 8007f9c:	935f      	str	r3, [sp, #380]	; 0x17c
 8007f9e:	0013      	movs	r3, r2
 8007fa0:	9940      	ldr	r1, [sp, #256]	; 0x100
 8007fa2:	400b      	ands	r3, r1
 8007fa4:	4023      	ands	r3, r4
 8007fa6:	401a      	ands	r2, r3
 8007fa8:	9250      	str	r2, [sp, #320]	; 0x140
 8007faa:	9a31      	ldr	r2, [sp, #196]	; 0xc4
 8007fac:	400b      	ands	r3, r1
 8007fae:	9360      	str	r3, [sp, #384]	; 0x180
 8007fb0:	0013      	movs	r3, r2
 8007fb2:	9941      	ldr	r1, [sp, #260]	; 0x104
 8007fb4:	400b      	ands	r3, r1
 8007fb6:	4023      	ands	r3, r4
 8007fb8:	401a      	ands	r2, r3
 8007fba:	9251      	str	r2, [sp, #324]	; 0x144
 8007fbc:	9a32      	ldr	r2, [sp, #200]	; 0xc8
 8007fbe:	400b      	ands	r3, r1
 8007fc0:	9361      	str	r3, [sp, #388]	; 0x184
 8007fc2:	0013      	movs	r3, r2
 8007fc4:	9942      	ldr	r1, [sp, #264]	; 0x108
 8007fc6:	400b      	ands	r3, r1
 8007fc8:	4023      	ands	r3, r4
 8007fca:	401a      	ands	r2, r3
 8007fcc:	9252      	str	r2, [sp, #328]	; 0x148
 8007fce:	9a33      	ldr	r2, [sp, #204]	; 0xcc
 8007fd0:	400b      	ands	r3, r1
 8007fd2:	9362      	str	r3, [sp, #392]	; 0x188
 8007fd4:	0013      	movs	r3, r2
 8007fd6:	9943      	ldr	r1, [sp, #268]	; 0x10c
 8007fd8:	400b      	ands	r3, r1
 8007fda:	e658      	b.n	8007c8e <C25519keyExchange.part.50+0xf6>
 8007fdc:	9a02      	ldr	r2, [sp, #8]
 8007fde:	601a      	str	r2, [r3, #0]
 8007fe0:	681b      	ldr	r3, [r3, #0]
 8007fe2:	9302      	str	r3, [sp, #8]
 8007fe4:	9b02      	ldr	r3, [sp, #8]
 8007fe6:	2b00      	cmp	r3, #0
 8007fe8:	d100      	bne.n	8007fec <C25519keyExchange.part.50+0x454>
 8007fea:	e0d9      	b.n	80081a0 <C25519keyExchange.part.50+0x608>
 8007fec:	9a7c      	ldr	r2, [sp, #496]	; 0x1f0
 8007fee:	996c      	ldr	r1, [sp, #432]	; 0x1b0
 8007ff0:	0013      	movs	r3, r2
 8007ff2:	400b      	ands	r3, r1
 8007ff4:	4023      	ands	r3, r4
 8007ff6:	401a      	ands	r2, r3
 8007ff8:	923c      	str	r2, [sp, #240]	; 0xf0
 8007ffa:	9a7d      	ldr	r2, [sp, #500]	; 0x1f4
 8007ffc:	400b      	ands	r3, r1
 8007ffe:	932c      	str	r3, [sp, #176]	; 0xb0
 8008000:	0013      	movs	r3, r2
 8008002:	996d      	ldr	r1, [sp, #436]	; 0x1b4
 8008004:	400b      	ands	r3, r1
 8008006:	4023      	ands	r3, r4
 8008008:	401a      	ands	r2, r3
 800800a:	923d      	str	r2, [sp, #244]	; 0xf4
 800800c:	9a7e      	ldr	r2, [sp, #504]	; 0x1f8
 800800e:	400b      	ands	r3, r1
 8008010:	932d      	str	r3, [sp, #180]	; 0xb4
 8008012:	0013      	movs	r3, r2
 8008014:	996e      	ldr	r1, [sp, #440]	; 0x1b8
 8008016:	400b      	ands	r3, r1
 8008018:	4023      	ands	r3, r4
 800801a:	401a      	ands	r2, r3
 800801c:	923e      	str	r2, [sp, #248]	; 0xf8
 800801e:	9a7f      	ldr	r2, [sp, #508]	; 0x1fc
 8008020:	400b      	ands	r3, r1
 8008022:	932e      	str	r3, [sp, #184]	; 0xb8
 8008024:	0013      	movs	r3, r2
 8008026:	996f      	ldr	r1, [sp, #444]	; 0x1bc
 8008028:	400b      	ands	r3, r1
 800802a:	4023      	ands	r3, r4
 800802c:	401a      	ands	r2, r3
 800802e:	923f      	str	r2, [sp, #252]	; 0xfc
 8008030:	9a80      	ldr	r2, [sp, #512]	; 0x200
 8008032:	400b      	ands	r3, r1
 8008034:	932f      	str	r3, [sp, #188]	; 0xbc
 8008036:	0013      	movs	r3, r2
 8008038:	9970      	ldr	r1, [sp, #448]	; 0x1c0
 800803a:	400b      	ands	r3, r1
 800803c:	4023      	ands	r3, r4
 800803e:	401a      	ands	r2, r3
 8008040:	9240      	str	r2, [sp, #256]	; 0x100
 8008042:	9a81      	ldr	r2, [sp, #516]	; 0x204
 8008044:	400b      	ands	r3, r1
 8008046:	9330      	str	r3, [sp, #192]	; 0xc0
 8008048:	0013      	movs	r3, r2
 800804a:	9971      	ldr	r1, [sp, #452]	; 0x1c4
 800804c:	400b      	ands	r3, r1
 800804e:	4023      	ands	r3, r4
 8008050:	401a      	ands	r2, r3
 8008052:	9241      	str	r2, [sp, #260]	; 0x104
 8008054:	9a82      	ldr	r2, [sp, #520]	; 0x208
 8008056:	400b      	ands	r3, r1
 8008058:	9331      	str	r3, [sp, #196]	; 0xc4
 800805a:	0013      	movs	r3, r2
 800805c:	9972      	ldr	r1, [sp, #456]	; 0x1c8
 800805e:	400b      	ands	r3, r1
 8008060:	4023      	ands	r3, r4
 8008062:	401a      	ands	r2, r3
 8008064:	9242      	str	r2, [sp, #264]	; 0x108
 8008066:	9a83      	ldr	r2, [sp, #524]	; 0x20c
 8008068:	400b      	ands	r3, r1
 800806a:	9332      	str	r3, [sp, #200]	; 0xc8
 800806c:	0013      	movs	r3, r2
 800806e:	9973      	ldr	r1, [sp, #460]	; 0x1cc
 8008070:	400b      	ands	r3, r1
 8008072:	e6fd      	b.n	8007e70 <C25519keyExchange.part.50+0x2d8>
 8008074:	9b3c      	ldr	r3, [sp, #240]	; 0xf0
 8008076:	992c      	ldr	r1, [sp, #176]	; 0xb0
 8008078:	001a      	movs	r2, r3
 800807a:	404a      	eors	r2, r1
 800807c:	4022      	ands	r2, r4
 800807e:	4053      	eors	r3, r2
 8008080:	935c      	str	r3, [sp, #368]	; 0x170
 8008082:	9b3d      	ldr	r3, [sp, #244]	; 0xf4
 8008084:	4051      	eors	r1, r2
 8008086:	001a      	movs	r2, r3
 8008088:	914c      	str	r1, [sp, #304]	; 0x130
 800808a:	992d      	ldr	r1, [sp, #180]	; 0xb4
 800808c:	404a      	eors	r2, r1
 800808e:	4022      	ands	r2, r4
 8008090:	4053      	eors	r3, r2
 8008092:	935d      	str	r3, [sp, #372]	; 0x174
 8008094:	9b3e      	ldr	r3, [sp, #248]	; 0xf8
 8008096:	4051      	eors	r1, r2
 8008098:	001a      	movs	r2, r3
 800809a:	914d      	str	r1, [sp, #308]	; 0x134
 800809c:	992e      	ldr	r1, [sp, #184]	; 0xb8
 800809e:	404a      	eors	r2, r1
 80080a0:	4022      	ands	r2, r4
 80080a2:	4053      	eors	r3, r2
 80080a4:	935e      	str	r3, [sp, #376]	; 0x178
 80080a6:	9b3f      	ldr	r3, [sp, #252]	; 0xfc
 80080a8:	4051      	eors	r1, r2
 80080aa:	001a      	movs	r2, r3
 80080ac:	914e      	str	r1, [sp, #312]	; 0x138
 80080ae:	992f      	ldr	r1, [sp, #188]	; 0xbc
 80080b0:	404a      	eors	r2, r1
 80080b2:	4022      	ands	r2, r4
 80080b4:	4053      	eors	r3, r2
 80080b6:	935f      	str	r3, [sp, #380]	; 0x17c
 80080b8:	9b40      	ldr	r3, [sp, #256]	; 0x100
 80080ba:	4051      	eors	r1, r2
 80080bc:	001a      	movs	r2, r3
 80080be:	914f      	str	r1, [sp, #316]	; 0x13c
 80080c0:	9930      	ldr	r1, [sp, #192]	; 0xc0
 80080c2:	404a      	eors	r2, r1
 80080c4:	4022      	ands	r2, r4
 80080c6:	4053      	eors	r3, r2
 80080c8:	9360      	str	r3, [sp, #384]	; 0x180
 80080ca:	9b41      	ldr	r3, [sp, #260]	; 0x104
 80080cc:	4051      	eors	r1, r2
 80080ce:	001a      	movs	r2, r3
 80080d0:	9150      	str	r1, [sp, #320]	; 0x140
 80080d2:	9931      	ldr	r1, [sp, #196]	; 0xc4
 80080d4:	404a      	eors	r2, r1
 80080d6:	4022      	ands	r2, r4
 80080d8:	4053      	eors	r3, r2
 80080da:	9361      	str	r3, [sp, #388]	; 0x184
 80080dc:	9b42      	ldr	r3, [sp, #264]	; 0x108
 80080de:	4051      	eors	r1, r2
 80080e0:	001a      	movs	r2, r3
 80080e2:	9151      	str	r1, [sp, #324]	; 0x144
 80080e4:	9932      	ldr	r1, [sp, #200]	; 0xc8
 80080e6:	404a      	eors	r2, r1
 80080e8:	4022      	ands	r2, r4
 80080ea:	4053      	eors	r3, r2
 80080ec:	9362      	str	r3, [sp, #392]	; 0x188
 80080ee:	9b43      	ldr	r3, [sp, #268]	; 0x10c
 80080f0:	4051      	eors	r1, r2
 80080f2:	001a      	movs	r2, r3
 80080f4:	9152      	str	r1, [sp, #328]	; 0x148
 80080f6:	9933      	ldr	r1, [sp, #204]	; 0xcc
 80080f8:	404a      	eors	r2, r1
 80080fa:	4022      	ands	r2, r4
 80080fc:	4051      	eors	r1, r2
 80080fe:	4053      	eors	r3, r2
 8008100:	9153      	str	r1, [sp, #332]	; 0x14c
 8008102:	9363      	str	r3, [sp, #396]	; 0x18c
 8008104:	9b44      	ldr	r3, [sp, #272]	; 0x110
 8008106:	9934      	ldr	r1, [sp, #208]	; 0xd0
 8008108:	001a      	movs	r2, r3
 800810a:	404a      	eors	r2, r1
 800810c:	4022      	ands	r2, r4
 800810e:	4053      	eors	r3, r2
 8008110:	9364      	str	r3, [sp, #400]	; 0x190
 8008112:	9b45      	ldr	r3, [sp, #276]	; 0x114
 8008114:	4051      	eors	r1, r2
 8008116:	001a      	movs	r2, r3
 8008118:	9154      	str	r1, [sp, #336]	; 0x150
 800811a:	9935      	ldr	r1, [sp, #212]	; 0xd4
 800811c:	404a      	eors	r2, r1
 800811e:	4022      	ands	r2, r4
 8008120:	4053      	eors	r3, r2
 8008122:	9365      	str	r3, [sp, #404]	; 0x194
 8008124:	9b46      	ldr	r3, [sp, #280]	; 0x118
 8008126:	4051      	eors	r1, r2
 8008128:	001a      	movs	r2, r3
 800812a:	9155      	str	r1, [sp, #340]	; 0x154
 800812c:	9936      	ldr	r1, [sp, #216]	; 0xd8
 800812e:	404a      	eors	r2, r1
 8008130:	4022      	ands	r2, r4
 8008132:	4053      	eors	r3, r2
 8008134:	9366      	str	r3, [sp, #408]	; 0x198
 8008136:	9b47      	ldr	r3, [sp, #284]	; 0x11c
 8008138:	4051      	eors	r1, r2
 800813a:	001a      	movs	r2, r3
 800813c:	9156      	str	r1, [sp, #344]	; 0x158
 800813e:	9937      	ldr	r1, [sp, #220]	; 0xdc
 8008140:	404a      	eors	r2, r1
 8008142:	4022      	ands	r2, r4
 8008144:	4053      	eors	r3, r2
 8008146:	9367      	str	r3, [sp, #412]	; 0x19c
 8008148:	9b48      	ldr	r3, [sp, #288]	; 0x120
 800814a:	4051      	eors	r1, r2
 800814c:	001a      	movs	r2, r3
 800814e:	9157      	str	r1, [sp, #348]	; 0x15c
 8008150:	9938      	ldr	r1, [sp, #224]	; 0xe0
 8008152:	404a      	eors	r2, r1
 8008154:	4022      	ands	r2, r4
 8008156:	4053      	eors	r3, r2
 8008158:	9368      	str	r3, [sp, #416]	; 0x1a0
 800815a:	9b49      	ldr	r3, [sp, #292]	; 0x124
 800815c:	4051      	eors	r1, r2
 800815e:	001a      	movs	r2, r3
 8008160:	9158      	str	r1, [sp, #352]	; 0x160
 8008162:	9939      	ldr	r1, [sp, #228]	; 0xe4
 8008164:	404a      	eors	r2, r1
 8008166:	4022      	ands	r2, r4
 8008168:	4053      	eors	r3, r2
 800816a:	9369      	str	r3, [sp, #420]	; 0x1a4
 800816c:	9b4a      	ldr	r3, [sp, #296]	; 0x128
 800816e:	4051      	eors	r1, r2
 8008170:	001a      	movs	r2, r3
 8008172:	9159      	str	r1, [sp, #356]	; 0x164
 8008174:	993a      	ldr	r1, [sp, #232]	; 0xe8
 8008176:	404a      	eors	r2, r1
 8008178:	4022      	ands	r2, r4
 800817a:	4053      	eors	r3, r2
 800817c:	936a      	str	r3, [sp, #424]	; 0x1a8
 800817e:	9b4b      	ldr	r3, [sp, #300]	; 0x12c
 8008180:	4051      	eors	r1, r2
 8008182:	001a      	movs	r2, r3
 8008184:	915a      	str	r1, [sp, #360]	; 0x168
 8008186:	993b      	ldr	r1, [sp, #236]	; 0xec
 8008188:	404a      	eors	r2, r1
 800818a:	4022      	ands	r2, r4
 800818c:	4051      	eors	r1, r2
 800818e:	4053      	eors	r3, r2
 8008190:	915b      	str	r1, [sp, #364]	; 0x16c
 8008192:	936b      	str	r3, [sp, #428]	; 0x1ac
 8008194:	e5c8      	b.n	8007d28 <C25519keyExchange.part.50+0x190>
 8008196:	46c0      	nop			; (mov r8, r8)
 8008198:	40023000 	.word	0x40023000
 800819c:	fffffc40 	.word	0xfffffc40
 80081a0:	9b6c      	ldr	r3, [sp, #432]	; 0x1b0
 80081a2:	997c      	ldr	r1, [sp, #496]	; 0x1f0
 80081a4:	001a      	movs	r2, r3
 80081a6:	404a      	eors	r2, r1
 80081a8:	4022      	ands	r2, r4
 80081aa:	4053      	eors	r3, r2
 80081ac:	932c      	str	r3, [sp, #176]	; 0xb0
 80081ae:	9b6d      	ldr	r3, [sp, #436]	; 0x1b4
 80081b0:	4051      	eors	r1, r2
 80081b2:	001a      	movs	r2, r3
 80081b4:	913c      	str	r1, [sp, #240]	; 0xf0
 80081b6:	997d      	ldr	r1, [sp, #500]	; 0x1f4
 80081b8:	404a      	eors	r2, r1
 80081ba:	4022      	ands	r2, r4
 80081bc:	4053      	eors	r3, r2
 80081be:	932d      	str	r3, [sp, #180]	; 0xb4
 80081c0:	9b6e      	ldr	r3, [sp, #440]	; 0x1b8
 80081c2:	4051      	eors	r1, r2
 80081c4:	001a      	movs	r2, r3
 80081c6:	913d      	str	r1, [sp, #244]	; 0xf4
 80081c8:	997e      	ldr	r1, [sp, #504]	; 0x1f8
 80081ca:	404a      	eors	r2, r1
 80081cc:	4022      	ands	r2, r4
 80081ce:	4053      	eors	r3, r2
 80081d0:	932e      	str	r3, [sp, #184]	; 0xb8
 80081d2:	9b6f      	ldr	r3, [sp, #444]	; 0x1bc
 80081d4:	4051      	eors	r1, r2
 80081d6:	001a      	movs	r2, r3
 80081d8:	913e      	str	r1, [sp, #248]	; 0xf8
 80081da:	997f      	ldr	r1, [sp, #508]	; 0x1fc
 80081dc:	404a      	eors	r2, r1
 80081de:	4022      	ands	r2, r4
 80081e0:	4053      	eors	r3, r2
 80081e2:	932f      	str	r3, [sp, #188]	; 0xbc
 80081e4:	9b70      	ldr	r3, [sp, #448]	; 0x1c0
 80081e6:	4051      	eors	r1, r2
 80081e8:	001a      	movs	r2, r3
 80081ea:	913f      	str	r1, [sp, #252]	; 0xfc
 80081ec:	9980      	ldr	r1, [sp, #512]	; 0x200
 80081ee:	404a      	eors	r2, r1
 80081f0:	4022      	ands	r2, r4
 80081f2:	4053      	eors	r3, r2
 80081f4:	9330      	str	r3, [sp, #192]	; 0xc0
 80081f6:	9b71      	ldr	r3, [sp, #452]	; 0x1c4
 80081f8:	4051      	eors	r1, r2
 80081fa:	001a      	movs	r2, r3
 80081fc:	9140      	str	r1, [sp, #256]	; 0x100
 80081fe:	9981      	ldr	r1, [sp, #516]	; 0x204
 8008200:	404a      	eors	r2, r1
 8008202:	4022      	ands	r2, r4
 8008204:	4053      	eors	r3, r2
 8008206:	9331      	str	r3, [sp, #196]	; 0xc4
 8008208:	9b72      	ldr	r3, [sp, #456]	; 0x1c8
 800820a:	4051      	eors	r1, r2
 800820c:	001a      	movs	r2, r3
 800820e:	9141      	str	r1, [sp, #260]	; 0x104
 8008210:	9982      	ldr	r1, [sp, #520]	; 0x208
 8008212:	404a      	eors	r2, r1
 8008214:	4022      	ands	r2, r4
 8008216:	4053      	eors	r3, r2
 8008218:	9332      	str	r3, [sp, #200]	; 0xc8
 800821a:	9b73      	ldr	r3, [sp, #460]	; 0x1cc
 800821c:	4051      	eors	r1, r2
 800821e:	001a      	movs	r2, r3
 8008220:	9142      	str	r1, [sp, #264]	; 0x108
 8008222:	9983      	ldr	r1, [sp, #524]	; 0x20c
 8008224:	404a      	eors	r2, r1
 8008226:	4022      	ands	r2, r4
 8008228:	4051      	eors	r1, r2
 800822a:	4053      	eors	r3, r2
 800822c:	9143      	str	r1, [sp, #268]	; 0x10c
 800822e:	9333      	str	r3, [sp, #204]	; 0xcc
 8008230:	9b74      	ldr	r3, [sp, #464]	; 0x1d0
 8008232:	9984      	ldr	r1, [sp, #528]	; 0x210
 8008234:	001a      	movs	r2, r3
 8008236:	404a      	eors	r2, r1
 8008238:	4022      	ands	r2, r4
 800823a:	4053      	eors	r3, r2
 800823c:	9334      	str	r3, [sp, #208]	; 0xd0
 800823e:	9b75      	ldr	r3, [sp, #468]	; 0x1d4
 8008240:	4051      	eors	r1, r2
 8008242:	001a      	movs	r2, r3
 8008244:	9144      	str	r1, [sp, #272]	; 0x110
 8008246:	9985      	ldr	r1, [sp, #532]	; 0x214
 8008248:	404a      	eors	r2, r1
 800824a:	4022      	ands	r2, r4
 800824c:	4053      	eors	r3, r2
 800824e:	9335      	str	r3, [sp, #212]	; 0xd4
 8008250:	9b76      	ldr	r3, [sp, #472]	; 0x1d8
 8008252:	4051      	eors	r1, r2
 8008254:	001a      	movs	r2, r3
 8008256:	9145      	str	r1, [sp, #276]	; 0x114
 8008258:	9986      	ldr	r1, [sp, #536]	; 0x218
 800825a:	404a      	eors	r2, r1
 800825c:	4022      	ands	r2, r4
 800825e:	4053      	eors	r3, r2
 8008260:	9336      	str	r3, [sp, #216]	; 0xd8
 8008262:	9b77      	ldr	r3, [sp, #476]	; 0x1dc
 8008264:	4051      	eors	r1, r2
 8008266:	001a      	movs	r2, r3
 8008268:	9146      	str	r1, [sp, #280]	; 0x118
 800826a:	9987      	ldr	r1, [sp, #540]	; 0x21c
 800826c:	404a      	eors	r2, r1
 800826e:	4022      	ands	r2, r4
 8008270:	4053      	eors	r3, r2
 8008272:	9337      	str	r3, [sp, #220]	; 0xdc
 8008274:	9b78      	ldr	r3, [sp, #480]	; 0x1e0
 8008276:	4051      	eors	r1, r2
 8008278:	001a      	movs	r2, r3
 800827a:	9147      	str	r1, [sp, #284]	; 0x11c
 800827c:	9988      	ldr	r1, [sp, #544]	; 0x220
 800827e:	404a      	eors	r2, r1
 8008280:	4022      	ands	r2, r4
 8008282:	4053      	eors	r3, r2
 8008284:	9338      	str	r3, [sp, #224]	; 0xe0
 8008286:	9b79      	ldr	r3, [sp, #484]	; 0x1e4
 8008288:	4051      	eors	r1, r2
 800828a:	001a      	movs	r2, r3
 800828c:	9148      	str	r1, [sp, #288]	; 0x120
 800828e:	9989      	ldr	r1, [sp, #548]	; 0x224
 8008290:	404a      	eors	r2, r1
 8008292:	4022      	ands	r2, r4
 8008294:	4053      	eors	r3, r2
 8008296:	9339      	str	r3, [sp, #228]	; 0xe4
 8008298:	9b7a      	ldr	r3, [sp, #488]	; 0x1e8
 800829a:	4051      	eors	r1, r2
 800829c:	001a      	movs	r2, r3
 800829e:	9149      	str	r1, [sp, #292]	; 0x124
 80082a0:	998a      	ldr	r1, [sp, #552]	; 0x228
 80082a2:	404a      	eors	r2, r1
 80082a4:	4022      	ands	r2, r4
 80082a6:	4053      	eors	r3, r2
 80082a8:	933a      	str	r3, [sp, #232]	; 0xe8
 80082aa:	9b7b      	ldr	r3, [sp, #492]	; 0x1ec
 80082ac:	4051      	eors	r1, r2
 80082ae:	914a      	str	r1, [sp, #296]	; 0x128
 80082b0:	0019      	movs	r1, r3
 80082b2:	9a8b      	ldr	r2, [sp, #556]	; 0x22c
 80082b4:	4051      	eors	r1, r2
 80082b6:	400c      	ands	r4, r1
 80082b8:	4062      	eors	r2, r4
 80082ba:	405c      	eors	r4, r3
 80082bc:	924b      	str	r2, [sp, #300]	; 0x12c
 80082be:	943b      	str	r4, [sp, #236]	; 0xec
 80082c0:	3d01      	subs	r5, #1
 80082c2:	d300      	bcc.n	80082c6 <C25519keyExchange.part.50+0x72e>
 80082c4:	e624      	b.n	8007f10 <C25519keyExchange.part.50+0x378>
 80082c6:	a93c      	add	r1, sp, #240	; 0xf0
 80082c8:	a8dc      	add	r0, sp, #880	; 0x370
 80082ca:	f7fe fda7 	bl	8006e1c <fe25519_copy>
 80082ce:	a944      	add	r1, sp, #272	; 0x110
 80082d0:	a8e4      	add	r0, sp, #912	; 0x390
 80082d2:	f7fe fda3 	bl	8006e1c <fe25519_copy>
 80082d6:	a9e4      	add	r1, sp, #912	; 0x390
 80082d8:	0008      	movs	r0, r1
 80082da:	f7ff f9ed 	bl	80076b8 <fe25519_invert>
 80082de:	aae4      	add	r2, sp, #912	; 0x390
 80082e0:	a9dc      	add	r1, sp, #880	; 0x370
 80082e2:	a8ec      	add	r0, sp, #944	; 0x3b0
 80082e4:	f7ff f82e 	bl	8007344 <fe25519_mul>
 80082e8:	4648      	mov	r0, r9
 80082ea:	a9ec      	add	r1, sp, #944	; 0x3b0
 80082ec:	f7fe ffda 	bl	80072a4 <fe25519_pack>
 80082f0:	2000      	movs	r0, #0
 80082f2:	23f5      	movs	r3, #245	; 0xf5
 80082f4:	009b      	lsls	r3, r3, #2
 80082f6:	449d      	add	sp, r3
 80082f8:	bc0c      	pop	{r2, r3}
 80082fa:	4690      	mov	r8, r2
 80082fc:	4699      	mov	r9, r3
 80082fe:	bdf0      	pop	{r4, r5, r6, r7, pc}

08008300 <C25519keyGen>:
 8008300:	b530      	push	{r4, r5, lr}
 8008302:	b089      	sub	sp, #36	; 0x24
 8008304:	2220      	movs	r2, #32
 8008306:	0004      	movs	r4, r0
 8008308:	000d      	movs	r5, r1
 800830a:	4668      	mov	r0, sp
 800830c:	2100      	movs	r1, #0
 800830e:	f000 f8a0 	bl	8008452 <memset>
 8008312:	2309      	movs	r3, #9
 8008314:	466a      	mov	r2, sp
 8008316:	7013      	strb	r3, [r2, #0]
 8008318:	2c00      	cmp	r4, #0
 800831a:	d013      	beq.n	8008344 <C25519keyGen+0x44>
 800831c:	2d00      	cmp	r5, #0
 800831e:	d011      	beq.n	8008344 <C25519keyGen+0x44>
 8008320:	2207      	movs	r2, #7
 8008322:	7823      	ldrb	r3, [r4, #0]
 8008324:	0021      	movs	r1, r4
 8008326:	4393      	bics	r3, r2
 8008328:	7023      	strb	r3, [r4, #0]
 800832a:	237f      	movs	r3, #127	; 0x7f
 800832c:	7fe2      	ldrb	r2, [r4, #31]
 800832e:	0028      	movs	r0, r5
 8008330:	4013      	ands	r3, r2
 8008332:	2240      	movs	r2, #64	; 0x40
 8008334:	4313      	orrs	r3, r2
 8008336:	77e3      	strb	r3, [r4, #31]
 8008338:	466a      	mov	r2, sp
 800833a:	f7ff fc2d 	bl	8007b98 <C25519keyExchange.part.50>
 800833e:	2000      	movs	r0, #0
 8008340:	b009      	add	sp, #36	; 0x24
 8008342:	bd30      	pop	{r4, r5, pc}
 8008344:	4800      	ldr	r0, [pc, #0]	; (8008348 <C25519keyGen+0x48>)
 8008346:	e7fb      	b.n	8008340 <C25519keyGen+0x40>
 8008348:	000015e4 	.word	0x000015e4

0800834c <C25519keyExchange>:
 800834c:	b510      	push	{r4, lr}
 800834e:	2900      	cmp	r1, #0
 8008350:	d006      	beq.n	8008360 <C25519keyExchange+0x14>
 8008352:	2a00      	cmp	r2, #0
 8008354:	d004      	beq.n	8008360 <C25519keyExchange+0x14>
 8008356:	2800      	cmp	r0, #0
 8008358:	d002      	beq.n	8008360 <C25519keyExchange+0x14>
 800835a:	f7ff fc1d 	bl	8007b98 <C25519keyExchange.part.50>
 800835e:	bd10      	pop	{r4, pc}
 8008360:	4800      	ldr	r0, [pc, #0]	; (8008364 <C25519keyExchange+0x18>)
 8008362:	e7fc      	b.n	800835e <C25519keyExchange+0x12>
 8008364:	000015e4 	.word	0x000015e4

08008368 <__assert_func>:
 8008368:	b530      	push	{r4, r5, lr}
 800836a:	001c      	movs	r4, r3
 800836c:	4b09      	ldr	r3, [pc, #36]	; (8008394 <__assert_func+0x2c>)
 800836e:	0005      	movs	r5, r0
 8008370:	681b      	ldr	r3, [r3, #0]
 8008372:	b085      	sub	sp, #20
 8008374:	68d8      	ldr	r0, [r3, #12]
 8008376:	4b08      	ldr	r3, [pc, #32]	; (8008398 <__assert_func+0x30>)
 8008378:	2a00      	cmp	r2, #0
 800837a:	d101      	bne.n	8008380 <__assert_func+0x18>
 800837c:	4b07      	ldr	r3, [pc, #28]	; (800839c <__assert_func+0x34>)
 800837e:	001a      	movs	r2, r3
 8008380:	9202      	str	r2, [sp, #8]
 8008382:	9301      	str	r3, [sp, #4]
 8008384:	9100      	str	r1, [sp, #0]
 8008386:	002b      	movs	r3, r5
 8008388:	0022      	movs	r2, r4
 800838a:	4905      	ldr	r1, [pc, #20]	; (80083a0 <__assert_func+0x38>)
 800838c:	f000 f81a 	bl	80083c4 <fiprintf>
 8008390:	f000 fcb0 	bl	8008cf4 <abort>
 8008394:	2000000c 	.word	0x2000000c
 8008398:	08009558 	.word	0x08009558
 800839c:	08009593 	.word	0x08009593
 80083a0:	08009565 	.word	0x08009565

080083a4 <calloc>:
 80083a4:	b510      	push	{r4, lr}
 80083a6:	4b03      	ldr	r3, [pc, #12]	; (80083b4 <calloc+0x10>)
 80083a8:	000a      	movs	r2, r1
 80083aa:	0001      	movs	r1, r0
 80083ac:	6818      	ldr	r0, [r3, #0]
 80083ae:	f000 f858 	bl	8008462 <_calloc_r>
 80083b2:	bd10      	pop	{r4, pc}
 80083b4:	2000000c 	.word	0x2000000c

080083b8 <__errno>:
 80083b8:	4b01      	ldr	r3, [pc, #4]	; (80083c0 <__errno+0x8>)
 80083ba:	6818      	ldr	r0, [r3, #0]
 80083bc:	4770      	bx	lr
 80083be:	46c0      	nop			; (mov r8, r8)
 80083c0:	2000000c 	.word	0x2000000c

080083c4 <fiprintf>:
 80083c4:	b40e      	push	{r1, r2, r3}
 80083c6:	b503      	push	{r0, r1, lr}
 80083c8:	0001      	movs	r1, r0
 80083ca:	ab03      	add	r3, sp, #12
 80083cc:	4804      	ldr	r0, [pc, #16]	; (80083e0 <fiprintf+0x1c>)
 80083ce:	cb04      	ldmia	r3!, {r2}
 80083d0:	6800      	ldr	r0, [r0, #0]
 80083d2:	9301      	str	r3, [sp, #4]
 80083d4:	f000 f924 	bl	8008620 <_vfiprintf_r>
 80083d8:	b002      	add	sp, #8
 80083da:	bc08      	pop	{r3}
 80083dc:	b003      	add	sp, #12
 80083de:	4718      	bx	r3
 80083e0:	2000000c 	.word	0x2000000c

080083e4 <__libc_init_array>:
 80083e4:	b570      	push	{r4, r5, r6, lr}
 80083e6:	2600      	movs	r6, #0
 80083e8:	4d0c      	ldr	r5, [pc, #48]	; (800841c <__libc_init_array+0x38>)
 80083ea:	4c0d      	ldr	r4, [pc, #52]	; (8008420 <__libc_init_array+0x3c>)
 80083ec:	1b64      	subs	r4, r4, r5
 80083ee:	10a4      	asrs	r4, r4, #2
 80083f0:	42a6      	cmp	r6, r4
 80083f2:	d109      	bne.n	8008408 <__libc_init_array+0x24>
 80083f4:	2600      	movs	r6, #0
 80083f6:	f000 ff93 	bl	8009320 <_init>
 80083fa:	4d0a      	ldr	r5, [pc, #40]	; (8008424 <__libc_init_array+0x40>)
 80083fc:	4c0a      	ldr	r4, [pc, #40]	; (8008428 <__libc_init_array+0x44>)
 80083fe:	1b64      	subs	r4, r4, r5
 8008400:	10a4      	asrs	r4, r4, #2
 8008402:	42a6      	cmp	r6, r4
 8008404:	d105      	bne.n	8008412 <__libc_init_array+0x2e>
 8008406:	bd70      	pop	{r4, r5, r6, pc}
 8008408:	00b3      	lsls	r3, r6, #2
 800840a:	58eb      	ldr	r3, [r5, r3]
 800840c:	4798      	blx	r3
 800840e:	3601      	adds	r6, #1
 8008410:	e7ee      	b.n	80083f0 <__libc_init_array+0xc>
 8008412:	00b3      	lsls	r3, r6, #2
 8008414:	58eb      	ldr	r3, [r5, r3]
 8008416:	4798      	blx	r3
 8008418:	3601      	adds	r6, #1
 800841a:	e7f2      	b.n	8008402 <__libc_init_array+0x1e>
 800841c:	0800962c 	.word	0x0800962c
 8008420:	0800962c 	.word	0x0800962c
 8008424:	0800962c 	.word	0x0800962c
 8008428:	08009630 	.word	0x08009630

0800842c <free>:
 800842c:	b510      	push	{r4, lr}
 800842e:	4b03      	ldr	r3, [pc, #12]	; (800843c <free+0x10>)
 8008430:	0001      	movs	r1, r0
 8008432:	6818      	ldr	r0, [r3, #0]
 8008434:	f000 f824 	bl	8008480 <_free_r>
 8008438:	bd10      	pop	{r4, pc}
 800843a:	46c0      	nop			; (mov r8, r8)
 800843c:	2000000c 	.word	0x2000000c

08008440 <memcpy>:
 8008440:	2300      	movs	r3, #0
 8008442:	b510      	push	{r4, lr}
 8008444:	429a      	cmp	r2, r3
 8008446:	d100      	bne.n	800844a <memcpy+0xa>
 8008448:	bd10      	pop	{r4, pc}
 800844a:	5ccc      	ldrb	r4, [r1, r3]
 800844c:	54c4      	strb	r4, [r0, r3]
 800844e:	3301      	adds	r3, #1
 8008450:	e7f8      	b.n	8008444 <memcpy+0x4>

08008452 <memset>:
 8008452:	0003      	movs	r3, r0
 8008454:	1812      	adds	r2, r2, r0
 8008456:	4293      	cmp	r3, r2
 8008458:	d100      	bne.n	800845c <memset+0xa>
 800845a:	4770      	bx	lr
 800845c:	7019      	strb	r1, [r3, #0]
 800845e:	3301      	adds	r3, #1
 8008460:	e7f9      	b.n	8008456 <memset+0x4>

08008462 <_calloc_r>:
 8008462:	434a      	muls	r2, r1
 8008464:	b570      	push	{r4, r5, r6, lr}
 8008466:	0011      	movs	r1, r2
 8008468:	0014      	movs	r4, r2
 800846a:	f000 f853 	bl	8008514 <_malloc_r>
 800846e:	1e05      	subs	r5, r0, #0
 8008470:	d003      	beq.n	800847a <_calloc_r+0x18>
 8008472:	0022      	movs	r2, r4
 8008474:	2100      	movs	r1, #0
 8008476:	f7ff ffec 	bl	8008452 <memset>
 800847a:	0028      	movs	r0, r5
 800847c:	bd70      	pop	{r4, r5, r6, pc}
	...

08008480 <_free_r>:
 8008480:	b570      	push	{r4, r5, r6, lr}
 8008482:	0005      	movs	r5, r0
 8008484:	2900      	cmp	r1, #0
 8008486:	d010      	beq.n	80084aa <_free_r+0x2a>
 8008488:	1f0c      	subs	r4, r1, #4
 800848a:	6823      	ldr	r3, [r4, #0]
 800848c:	2b00      	cmp	r3, #0
 800848e:	da00      	bge.n	8008492 <_free_r+0x12>
 8008490:	18e4      	adds	r4, r4, r3
 8008492:	0028      	movs	r0, r5
 8008494:	f000 fe39 	bl	800910a <__malloc_lock>
 8008498:	4a1d      	ldr	r2, [pc, #116]	; (8008510 <_free_r+0x90>)
 800849a:	6813      	ldr	r3, [r2, #0]
 800849c:	2b00      	cmp	r3, #0
 800849e:	d105      	bne.n	80084ac <_free_r+0x2c>
 80084a0:	6063      	str	r3, [r4, #4]
 80084a2:	6014      	str	r4, [r2, #0]
 80084a4:	0028      	movs	r0, r5
 80084a6:	f000 fe31 	bl	800910c <__malloc_unlock>
 80084aa:	bd70      	pop	{r4, r5, r6, pc}
 80084ac:	42a3      	cmp	r3, r4
 80084ae:	d909      	bls.n	80084c4 <_free_r+0x44>
 80084b0:	6821      	ldr	r1, [r4, #0]
 80084b2:	1860      	adds	r0, r4, r1
 80084b4:	4283      	cmp	r3, r0
 80084b6:	d1f3      	bne.n	80084a0 <_free_r+0x20>
 80084b8:	6818      	ldr	r0, [r3, #0]
 80084ba:	685b      	ldr	r3, [r3, #4]
 80084bc:	1841      	adds	r1, r0, r1
 80084be:	6021      	str	r1, [r4, #0]
 80084c0:	e7ee      	b.n	80084a0 <_free_r+0x20>
 80084c2:	0013      	movs	r3, r2
 80084c4:	685a      	ldr	r2, [r3, #4]
 80084c6:	2a00      	cmp	r2, #0
 80084c8:	d001      	beq.n	80084ce <_free_r+0x4e>
 80084ca:	42a2      	cmp	r2, r4
 80084cc:	d9f9      	bls.n	80084c2 <_free_r+0x42>
 80084ce:	6819      	ldr	r1, [r3, #0]
 80084d0:	1858      	adds	r0, r3, r1
 80084d2:	42a0      	cmp	r0, r4
 80084d4:	d10b      	bne.n	80084ee <_free_r+0x6e>
 80084d6:	6820      	ldr	r0, [r4, #0]
 80084d8:	1809      	adds	r1, r1, r0
 80084da:	1858      	adds	r0, r3, r1
 80084dc:	6019      	str	r1, [r3, #0]
 80084de:	4282      	cmp	r2, r0
 80084e0:	d1e0      	bne.n	80084a4 <_free_r+0x24>
 80084e2:	6810      	ldr	r0, [r2, #0]
 80084e4:	6852      	ldr	r2, [r2, #4]
 80084e6:	1841      	adds	r1, r0, r1
 80084e8:	6019      	str	r1, [r3, #0]
 80084ea:	605a      	str	r2, [r3, #4]
 80084ec:	e7da      	b.n	80084a4 <_free_r+0x24>
 80084ee:	42a0      	cmp	r0, r4
 80084f0:	d902      	bls.n	80084f8 <_free_r+0x78>
 80084f2:	230c      	movs	r3, #12
 80084f4:	602b      	str	r3, [r5, #0]
 80084f6:	e7d5      	b.n	80084a4 <_free_r+0x24>
 80084f8:	6821      	ldr	r1, [r4, #0]
 80084fa:	1860      	adds	r0, r4, r1
 80084fc:	4282      	cmp	r2, r0
 80084fe:	d103      	bne.n	8008508 <_free_r+0x88>
 8008500:	6810      	ldr	r0, [r2, #0]
 8008502:	6852      	ldr	r2, [r2, #4]
 8008504:	1841      	adds	r1, r0, r1
 8008506:	6021      	str	r1, [r4, #0]
 8008508:	6062      	str	r2, [r4, #4]
 800850a:	605c      	str	r4, [r3, #4]
 800850c:	e7ca      	b.n	80084a4 <_free_r+0x24>
 800850e:	46c0      	nop			; (mov r8, r8)
 8008510:	20000544 	.word	0x20000544

08008514 <_malloc_r>:
 8008514:	2303      	movs	r3, #3
 8008516:	b570      	push	{r4, r5, r6, lr}
 8008518:	1ccd      	adds	r5, r1, #3
 800851a:	439d      	bics	r5, r3
 800851c:	3508      	adds	r5, #8
 800851e:	0006      	movs	r6, r0
 8008520:	2d0c      	cmp	r5, #12
 8008522:	d21e      	bcs.n	8008562 <_malloc_r+0x4e>
 8008524:	250c      	movs	r5, #12
 8008526:	42a9      	cmp	r1, r5
 8008528:	d81d      	bhi.n	8008566 <_malloc_r+0x52>
 800852a:	0030      	movs	r0, r6
 800852c:	f000 fded 	bl	800910a <__malloc_lock>
 8008530:	4a25      	ldr	r2, [pc, #148]	; (80085c8 <_malloc_r+0xb4>)
 8008532:	6814      	ldr	r4, [r2, #0]
 8008534:	0021      	movs	r1, r4
 8008536:	2900      	cmp	r1, #0
 8008538:	d119      	bne.n	800856e <_malloc_r+0x5a>
 800853a:	4c24      	ldr	r4, [pc, #144]	; (80085cc <_malloc_r+0xb8>)
 800853c:	6823      	ldr	r3, [r4, #0]
 800853e:	2b00      	cmp	r3, #0
 8008540:	d103      	bne.n	800854a <_malloc_r+0x36>
 8008542:	0030      	movs	r0, r6
 8008544:	f000 faf8 	bl	8008b38 <_sbrk_r>
 8008548:	6020      	str	r0, [r4, #0]
 800854a:	0029      	movs	r1, r5
 800854c:	0030      	movs	r0, r6
 800854e:	f000 faf3 	bl	8008b38 <_sbrk_r>
 8008552:	1c43      	adds	r3, r0, #1
 8008554:	d12b      	bne.n	80085ae <_malloc_r+0x9a>
 8008556:	230c      	movs	r3, #12
 8008558:	0030      	movs	r0, r6
 800855a:	6033      	str	r3, [r6, #0]
 800855c:	f000 fdd6 	bl	800910c <__malloc_unlock>
 8008560:	e003      	b.n	800856a <_malloc_r+0x56>
 8008562:	2d00      	cmp	r5, #0
 8008564:	dadf      	bge.n	8008526 <_malloc_r+0x12>
 8008566:	230c      	movs	r3, #12
 8008568:	6033      	str	r3, [r6, #0]
 800856a:	2000      	movs	r0, #0
 800856c:	bd70      	pop	{r4, r5, r6, pc}
 800856e:	680b      	ldr	r3, [r1, #0]
 8008570:	1b5b      	subs	r3, r3, r5
 8008572:	d419      	bmi.n	80085a8 <_malloc_r+0x94>
 8008574:	2b0b      	cmp	r3, #11
 8008576:	d903      	bls.n	8008580 <_malloc_r+0x6c>
 8008578:	600b      	str	r3, [r1, #0]
 800857a:	18cc      	adds	r4, r1, r3
 800857c:	6025      	str	r5, [r4, #0]
 800857e:	e003      	b.n	8008588 <_malloc_r+0x74>
 8008580:	684b      	ldr	r3, [r1, #4]
 8008582:	428c      	cmp	r4, r1
 8008584:	d10d      	bne.n	80085a2 <_malloc_r+0x8e>
 8008586:	6013      	str	r3, [r2, #0]
 8008588:	0030      	movs	r0, r6
 800858a:	f000 fdbf 	bl	800910c <__malloc_unlock>
 800858e:	0020      	movs	r0, r4
 8008590:	2207      	movs	r2, #7
 8008592:	300b      	adds	r0, #11
 8008594:	1d23      	adds	r3, r4, #4
 8008596:	4390      	bics	r0, r2
 8008598:	1ac3      	subs	r3, r0, r3
 800859a:	d0e7      	beq.n	800856c <_malloc_r+0x58>
 800859c:	425a      	negs	r2, r3
 800859e:	50e2      	str	r2, [r4, r3]
 80085a0:	e7e4      	b.n	800856c <_malloc_r+0x58>
 80085a2:	6063      	str	r3, [r4, #4]
 80085a4:	000c      	movs	r4, r1
 80085a6:	e7ef      	b.n	8008588 <_malloc_r+0x74>
 80085a8:	000c      	movs	r4, r1
 80085aa:	6849      	ldr	r1, [r1, #4]
 80085ac:	e7c3      	b.n	8008536 <_malloc_r+0x22>
 80085ae:	2303      	movs	r3, #3
 80085b0:	1cc4      	adds	r4, r0, #3
 80085b2:	439c      	bics	r4, r3
 80085b4:	42a0      	cmp	r0, r4
 80085b6:	d0e1      	beq.n	800857c <_malloc_r+0x68>
 80085b8:	1a21      	subs	r1, r4, r0
 80085ba:	0030      	movs	r0, r6
 80085bc:	f000 fabc 	bl	8008b38 <_sbrk_r>
 80085c0:	1c43      	adds	r3, r0, #1
 80085c2:	d1db      	bne.n	800857c <_malloc_r+0x68>
 80085c4:	e7c7      	b.n	8008556 <_malloc_r+0x42>
 80085c6:	46c0      	nop			; (mov r8, r8)
 80085c8:	20000544 	.word	0x20000544
 80085cc:	20000548 	.word	0x20000548

080085d0 <__sfputc_r>:
 80085d0:	6893      	ldr	r3, [r2, #8]
 80085d2:	b510      	push	{r4, lr}
 80085d4:	3b01      	subs	r3, #1
 80085d6:	6093      	str	r3, [r2, #8]
 80085d8:	2b00      	cmp	r3, #0
 80085da:	da04      	bge.n	80085e6 <__sfputc_r+0x16>
 80085dc:	6994      	ldr	r4, [r2, #24]
 80085de:	42a3      	cmp	r3, r4
 80085e0:	db07      	blt.n	80085f2 <__sfputc_r+0x22>
 80085e2:	290a      	cmp	r1, #10
 80085e4:	d005      	beq.n	80085f2 <__sfputc_r+0x22>
 80085e6:	6813      	ldr	r3, [r2, #0]
 80085e8:	1c58      	adds	r0, r3, #1
 80085ea:	6010      	str	r0, [r2, #0]
 80085ec:	7019      	strb	r1, [r3, #0]
 80085ee:	0008      	movs	r0, r1
 80085f0:	bd10      	pop	{r4, pc}
 80085f2:	f000 fab3 	bl	8008b5c <__swbuf_r>
 80085f6:	0001      	movs	r1, r0
 80085f8:	e7f9      	b.n	80085ee <__sfputc_r+0x1e>

080085fa <__sfputs_r>:
 80085fa:	b5f8      	push	{r3, r4, r5, r6, r7, lr}
 80085fc:	0006      	movs	r6, r0
 80085fe:	000f      	movs	r7, r1
 8008600:	0014      	movs	r4, r2
 8008602:	18d5      	adds	r5, r2, r3
 8008604:	42ac      	cmp	r4, r5
 8008606:	d101      	bne.n	800860c <__sfputs_r+0x12>
 8008608:	2000      	movs	r0, #0
 800860a:	e007      	b.n	800861c <__sfputs_r+0x22>
 800860c:	7821      	ldrb	r1, [r4, #0]
 800860e:	003a      	movs	r2, r7
 8008610:	0030      	movs	r0, r6
 8008612:	f7ff ffdd 	bl	80085d0 <__sfputc_r>
 8008616:	3401      	adds	r4, #1
 8008618:	1c43      	adds	r3, r0, #1
 800861a:	d1f3      	bne.n	8008604 <__sfputs_r+0xa>
 800861c:	bdf8      	pop	{r3, r4, r5, r6, r7, pc}
	...

08008620 <_vfiprintf_r>:
 8008620:	b5f0      	push	{r4, r5, r6, r7, lr}
 8008622:	b0a1      	sub	sp, #132	; 0x84
 8008624:	9003      	str	r0, [sp, #12]
 8008626:	000f      	movs	r7, r1
 8008628:	0016      	movs	r6, r2
 800862a:	001d      	movs	r5, r3
 800862c:	2800      	cmp	r0, #0
 800862e:	d005      	beq.n	800863c <_vfiprintf_r+0x1c>
 8008630:	6983      	ldr	r3, [r0, #24]
 8008632:	9305      	str	r3, [sp, #20]
 8008634:	2b00      	cmp	r3, #0
 8008636:	d101      	bne.n	800863c <_vfiprintf_r+0x1c>
 8008638:	f000 fc5c 	bl	8008ef4 <__sinit>
 800863c:	4b7b      	ldr	r3, [pc, #492]	; (800882c <_vfiprintf_r+0x20c>)
 800863e:	429f      	cmp	r7, r3
 8008640:	d15c      	bne.n	80086fc <_vfiprintf_r+0xdc>
 8008642:	9b03      	ldr	r3, [sp, #12]
 8008644:	685f      	ldr	r7, [r3, #4]
 8008646:	89bb      	ldrh	r3, [r7, #12]
 8008648:	071b      	lsls	r3, r3, #28
 800864a:	d563      	bpl.n	8008714 <_vfiprintf_r+0xf4>
 800864c:	693b      	ldr	r3, [r7, #16]
 800864e:	2b00      	cmp	r3, #0
 8008650:	d060      	beq.n	8008714 <_vfiprintf_r+0xf4>
 8008652:	2300      	movs	r3, #0
 8008654:	ac08      	add	r4, sp, #32
 8008656:	6163      	str	r3, [r4, #20]
 8008658:	3320      	adds	r3, #32
 800865a:	7663      	strb	r3, [r4, #25]
 800865c:	3310      	adds	r3, #16
 800865e:	76a3      	strb	r3, [r4, #26]
 8008660:	9507      	str	r5, [sp, #28]
 8008662:	0035      	movs	r5, r6
 8008664:	782b      	ldrb	r3, [r5, #0]
 8008666:	2b00      	cmp	r3, #0
 8008668:	d001      	beq.n	800866e <_vfiprintf_r+0x4e>
 800866a:	2b25      	cmp	r3, #37	; 0x25
 800866c:	d15c      	bne.n	8008728 <_vfiprintf_r+0x108>
 800866e:	1bab      	subs	r3, r5, r6
 8008670:	9305      	str	r3, [sp, #20]
 8008672:	d00c      	beq.n	800868e <_vfiprintf_r+0x6e>
 8008674:	0032      	movs	r2, r6
 8008676:	0039      	movs	r1, r7
 8008678:	9803      	ldr	r0, [sp, #12]
 800867a:	f7ff ffbe 	bl	80085fa <__sfputs_r>
 800867e:	1c43      	adds	r3, r0, #1
 8008680:	d100      	bne.n	8008684 <_vfiprintf_r+0x64>
 8008682:	e0c4      	b.n	800880e <_vfiprintf_r+0x1ee>
 8008684:	6962      	ldr	r2, [r4, #20]
 8008686:	9b05      	ldr	r3, [sp, #20]
 8008688:	4694      	mov	ip, r2
 800868a:	4463      	add	r3, ip
 800868c:	6163      	str	r3, [r4, #20]
 800868e:	782b      	ldrb	r3, [r5, #0]
 8008690:	2b00      	cmp	r3, #0
 8008692:	d100      	bne.n	8008696 <_vfiprintf_r+0x76>
 8008694:	e0bb      	b.n	800880e <_vfiprintf_r+0x1ee>
 8008696:	2201      	movs	r2, #1
 8008698:	2300      	movs	r3, #0
 800869a:	4252      	negs	r2, r2
 800869c:	6062      	str	r2, [r4, #4]
 800869e:	a904      	add	r1, sp, #16
 80086a0:	3254      	adds	r2, #84	; 0x54
 80086a2:	1852      	adds	r2, r2, r1
 80086a4:	1c6e      	adds	r6, r5, #1
 80086a6:	6023      	str	r3, [r4, #0]
 80086a8:	60e3      	str	r3, [r4, #12]
 80086aa:	60a3      	str	r3, [r4, #8]
 80086ac:	7013      	strb	r3, [r2, #0]
 80086ae:	65a3      	str	r3, [r4, #88]	; 0x58
 80086b0:	7831      	ldrb	r1, [r6, #0]
 80086b2:	2205      	movs	r2, #5
 80086b4:	485e      	ldr	r0, [pc, #376]	; (8008830 <_vfiprintf_r+0x210>)
 80086b6:	f000 fd1d 	bl	80090f4 <memchr>
 80086ba:	1c75      	adds	r5, r6, #1
 80086bc:	2800      	cmp	r0, #0
 80086be:	d135      	bne.n	800872c <_vfiprintf_r+0x10c>
 80086c0:	6822      	ldr	r2, [r4, #0]
 80086c2:	06d3      	lsls	r3, r2, #27
 80086c4:	d504      	bpl.n	80086d0 <_vfiprintf_r+0xb0>
 80086c6:	2353      	movs	r3, #83	; 0x53
 80086c8:	a904      	add	r1, sp, #16
 80086ca:	185b      	adds	r3, r3, r1
 80086cc:	2120      	movs	r1, #32
 80086ce:	7019      	strb	r1, [r3, #0]
 80086d0:	0713      	lsls	r3, r2, #28
 80086d2:	d504      	bpl.n	80086de <_vfiprintf_r+0xbe>
 80086d4:	2353      	movs	r3, #83	; 0x53
 80086d6:	a904      	add	r1, sp, #16
 80086d8:	185b      	adds	r3, r3, r1
 80086da:	212b      	movs	r1, #43	; 0x2b
 80086dc:	7019      	strb	r1, [r3, #0]
 80086de:	7833      	ldrb	r3, [r6, #0]
 80086e0:	2b2a      	cmp	r3, #42	; 0x2a
 80086e2:	d02c      	beq.n	800873e <_vfiprintf_r+0x11e>
 80086e4:	0035      	movs	r5, r6
 80086e6:	2100      	movs	r1, #0
 80086e8:	200a      	movs	r0, #10
 80086ea:	68e3      	ldr	r3, [r4, #12]
 80086ec:	782a      	ldrb	r2, [r5, #0]
 80086ee:	1c6e      	adds	r6, r5, #1
 80086f0:	3a30      	subs	r2, #48	; 0x30
 80086f2:	2a09      	cmp	r2, #9
 80086f4:	d964      	bls.n	80087c0 <_vfiprintf_r+0x1a0>
 80086f6:	2900      	cmp	r1, #0
 80086f8:	d02e      	beq.n	8008758 <_vfiprintf_r+0x138>
 80086fa:	e026      	b.n	800874a <_vfiprintf_r+0x12a>
 80086fc:	4b4d      	ldr	r3, [pc, #308]	; (8008834 <_vfiprintf_r+0x214>)
 80086fe:	429f      	cmp	r7, r3
 8008700:	d102      	bne.n	8008708 <_vfiprintf_r+0xe8>
 8008702:	9b03      	ldr	r3, [sp, #12]
 8008704:	689f      	ldr	r7, [r3, #8]
 8008706:	e79e      	b.n	8008646 <_vfiprintf_r+0x26>
 8008708:	4b4b      	ldr	r3, [pc, #300]	; (8008838 <_vfiprintf_r+0x218>)
 800870a:	429f      	cmp	r7, r3
 800870c:	d19b      	bne.n	8008646 <_vfiprintf_r+0x26>
 800870e:	9b03      	ldr	r3, [sp, #12]
 8008710:	68df      	ldr	r7, [r3, #12]
 8008712:	e798      	b.n	8008646 <_vfiprintf_r+0x26>
 8008714:	0039      	movs	r1, r7
 8008716:	9803      	ldr	r0, [sp, #12]
 8008718:	f000 fa76 	bl	8008c08 <__swsetup_r>
 800871c:	2800      	cmp	r0, #0
 800871e:	d098      	beq.n	8008652 <_vfiprintf_r+0x32>
 8008720:	2001      	movs	r0, #1
 8008722:	4240      	negs	r0, r0
 8008724:	b021      	add	sp, #132	; 0x84
 8008726:	bdf0      	pop	{r4, r5, r6, r7, pc}
 8008728:	3501      	adds	r5, #1
 800872a:	e79b      	b.n	8008664 <_vfiprintf_r+0x44>
 800872c:	4b40      	ldr	r3, [pc, #256]	; (8008830 <_vfiprintf_r+0x210>)
 800872e:	6822      	ldr	r2, [r4, #0]
 8008730:	1ac0      	subs	r0, r0, r3
 8008732:	2301      	movs	r3, #1
 8008734:	4083      	lsls	r3, r0
 8008736:	4313      	orrs	r3, r2
 8008738:	6023      	str	r3, [r4, #0]
 800873a:	002e      	movs	r6, r5
 800873c:	e7b8      	b.n	80086b0 <_vfiprintf_r+0x90>
 800873e:	9b07      	ldr	r3, [sp, #28]
 8008740:	1d19      	adds	r1, r3, #4
 8008742:	681b      	ldr	r3, [r3, #0]
 8008744:	9107      	str	r1, [sp, #28]
 8008746:	2b00      	cmp	r3, #0
 8008748:	db01      	blt.n	800874e <_vfiprintf_r+0x12e>
 800874a:	930b      	str	r3, [sp, #44]	; 0x2c
 800874c:	e004      	b.n	8008758 <_vfiprintf_r+0x138>
 800874e:	425b      	negs	r3, r3
 8008750:	60e3      	str	r3, [r4, #12]
 8008752:	2302      	movs	r3, #2
 8008754:	4313      	orrs	r3, r2
 8008756:	6023      	str	r3, [r4, #0]
 8008758:	782b      	ldrb	r3, [r5, #0]
 800875a:	2b2e      	cmp	r3, #46	; 0x2e
 800875c:	d10a      	bne.n	8008774 <_vfiprintf_r+0x154>
 800875e:	786b      	ldrb	r3, [r5, #1]
 8008760:	2b2a      	cmp	r3, #42	; 0x2a
 8008762:	d135      	bne.n	80087d0 <_vfiprintf_r+0x1b0>
 8008764:	9b07      	ldr	r3, [sp, #28]
 8008766:	3502      	adds	r5, #2
 8008768:	1d1a      	adds	r2, r3, #4
 800876a:	681b      	ldr	r3, [r3, #0]
 800876c:	9207      	str	r2, [sp, #28]
 800876e:	2b00      	cmp	r3, #0
 8008770:	db2b      	blt.n	80087ca <_vfiprintf_r+0x1aa>
 8008772:	9309      	str	r3, [sp, #36]	; 0x24
 8008774:	4e31      	ldr	r6, [pc, #196]	; (800883c <_vfiprintf_r+0x21c>)
 8008776:	7829      	ldrb	r1, [r5, #0]
 8008778:	2203      	movs	r2, #3
 800877a:	0030      	movs	r0, r6
 800877c:	f000 fcba 	bl	80090f4 <memchr>
 8008780:	2800      	cmp	r0, #0
 8008782:	d006      	beq.n	8008792 <_vfiprintf_r+0x172>
 8008784:	2340      	movs	r3, #64	; 0x40
 8008786:	1b80      	subs	r0, r0, r6
 8008788:	4083      	lsls	r3, r0
 800878a:	6822      	ldr	r2, [r4, #0]
 800878c:	3501      	adds	r5, #1
 800878e:	4313      	orrs	r3, r2
 8008790:	6023      	str	r3, [r4, #0]
 8008792:	7829      	ldrb	r1, [r5, #0]
 8008794:	2206      	movs	r2, #6
 8008796:	482a      	ldr	r0, [pc, #168]	; (8008840 <_vfiprintf_r+0x220>)
 8008798:	1c6e      	adds	r6, r5, #1
 800879a:	7621      	strb	r1, [r4, #24]
 800879c:	f000 fcaa 	bl	80090f4 <memchr>
 80087a0:	2800      	cmp	r0, #0
 80087a2:	d03a      	beq.n	800881a <_vfiprintf_r+0x1fa>
 80087a4:	4b27      	ldr	r3, [pc, #156]	; (8008844 <_vfiprintf_r+0x224>)
 80087a6:	2b00      	cmp	r3, #0
 80087a8:	d125      	bne.n	80087f6 <_vfiprintf_r+0x1d6>
 80087aa:	2207      	movs	r2, #7
 80087ac:	9b07      	ldr	r3, [sp, #28]
 80087ae:	3307      	adds	r3, #7
 80087b0:	4393      	bics	r3, r2
 80087b2:	3308      	adds	r3, #8
 80087b4:	9307      	str	r3, [sp, #28]
 80087b6:	6963      	ldr	r3, [r4, #20]
 80087b8:	9a04      	ldr	r2, [sp, #16]
 80087ba:	189b      	adds	r3, r3, r2
 80087bc:	6163      	str	r3, [r4, #20]
 80087be:	e750      	b.n	8008662 <_vfiprintf_r+0x42>
 80087c0:	4343      	muls	r3, r0
 80087c2:	2101      	movs	r1, #1
 80087c4:	189b      	adds	r3, r3, r2
 80087c6:	0035      	movs	r5, r6
 80087c8:	e790      	b.n	80086ec <_vfiprintf_r+0xcc>
 80087ca:	2301      	movs	r3, #1
 80087cc:	425b      	negs	r3, r3
 80087ce:	e7d0      	b.n	8008772 <_vfiprintf_r+0x152>
 80087d0:	2300      	movs	r3, #0
 80087d2:	200a      	movs	r0, #10
 80087d4:	001a      	movs	r2, r3
 80087d6:	3501      	adds	r5, #1
 80087d8:	6063      	str	r3, [r4, #4]
 80087da:	7829      	ldrb	r1, [r5, #0]
 80087dc:	1c6e      	adds	r6, r5, #1
 80087de:	3930      	subs	r1, #48	; 0x30
 80087e0:	2909      	cmp	r1, #9
 80087e2:	d903      	bls.n	80087ec <_vfiprintf_r+0x1cc>
 80087e4:	2b00      	cmp	r3, #0
 80087e6:	d0c5      	beq.n	8008774 <_vfiprintf_r+0x154>
 80087e8:	9209      	str	r2, [sp, #36]	; 0x24
 80087ea:	e7c3      	b.n	8008774 <_vfiprintf_r+0x154>
 80087ec:	4342      	muls	r2, r0
 80087ee:	2301      	movs	r3, #1
 80087f0:	1852      	adds	r2, r2, r1
 80087f2:	0035      	movs	r5, r6
 80087f4:	e7f1      	b.n	80087da <_vfiprintf_r+0x1ba>
 80087f6:	ab07      	add	r3, sp, #28
 80087f8:	9300      	str	r3, [sp, #0]
 80087fa:	003a      	movs	r2, r7
 80087fc:	4b12      	ldr	r3, [pc, #72]	; (8008848 <_vfiprintf_r+0x228>)
 80087fe:	0021      	movs	r1, r4
 8008800:	9803      	ldr	r0, [sp, #12]
 8008802:	e000      	b.n	8008806 <_vfiprintf_r+0x1e6>
 8008804:	bf00      	nop
 8008806:	9004      	str	r0, [sp, #16]
 8008808:	9b04      	ldr	r3, [sp, #16]
 800880a:	3301      	adds	r3, #1
 800880c:	d1d3      	bne.n	80087b6 <_vfiprintf_r+0x196>
 800880e:	89bb      	ldrh	r3, [r7, #12]
 8008810:	065b      	lsls	r3, r3, #25
 8008812:	d500      	bpl.n	8008816 <_vfiprintf_r+0x1f6>
 8008814:	e784      	b.n	8008720 <_vfiprintf_r+0x100>
 8008816:	980d      	ldr	r0, [sp, #52]	; 0x34
 8008818:	e784      	b.n	8008724 <_vfiprintf_r+0x104>
 800881a:	ab07      	add	r3, sp, #28
 800881c:	9300      	str	r3, [sp, #0]
 800881e:	003a      	movs	r2, r7
 8008820:	4b09      	ldr	r3, [pc, #36]	; (8008848 <_vfiprintf_r+0x228>)
 8008822:	0021      	movs	r1, r4
 8008824:	9803      	ldr	r0, [sp, #12]
 8008826:	f000 f87f 	bl	8008928 <_printf_i>
 800882a:	e7ec      	b.n	8008806 <_vfiprintf_r+0x1e6>
 800882c:	080095ec 	.word	0x080095ec
 8008830:	08009598 	.word	0x08009598
 8008834:	0800960c 	.word	0x0800960c
 8008838:	080095cc 	.word	0x080095cc
 800883c:	0800959e 	.word	0x0800959e
 8008840:	080095a2 	.word	0x080095a2
 8008844:	00000000 	.word	0x00000000
 8008848:	080085fb 	.word	0x080085fb

0800884c <_printf_common>:
 800884c:	b5f7      	push	{r0, r1, r2, r4, r5, r6, r7, lr}
 800884e:	0015      	movs	r5, r2
 8008850:	9301      	str	r3, [sp, #4]
 8008852:	688a      	ldr	r2, [r1, #8]
 8008854:	690b      	ldr	r3, [r1, #16]
 8008856:	9000      	str	r0, [sp, #0]
 8008858:	000c      	movs	r4, r1
 800885a:	4293      	cmp	r3, r2
 800885c:	da00      	bge.n	8008860 <_printf_common+0x14>
 800885e:	0013      	movs	r3, r2
 8008860:	0022      	movs	r2, r4
 8008862:	602b      	str	r3, [r5, #0]
 8008864:	3243      	adds	r2, #67	; 0x43
 8008866:	7812      	ldrb	r2, [r2, #0]
 8008868:	2a00      	cmp	r2, #0
 800886a:	d001      	beq.n	8008870 <_printf_common+0x24>
 800886c:	3301      	adds	r3, #1
 800886e:	602b      	str	r3, [r5, #0]
 8008870:	6823      	ldr	r3, [r4, #0]
 8008872:	069b      	lsls	r3, r3, #26
 8008874:	d502      	bpl.n	800887c <_printf_common+0x30>
 8008876:	682b      	ldr	r3, [r5, #0]
 8008878:	3302      	adds	r3, #2
 800887a:	602b      	str	r3, [r5, #0]
 800887c:	2706      	movs	r7, #6
 800887e:	6823      	ldr	r3, [r4, #0]
 8008880:	401f      	ands	r7, r3
 8008882:	d027      	beq.n	80088d4 <_printf_common+0x88>
 8008884:	0023      	movs	r3, r4
 8008886:	3343      	adds	r3, #67	; 0x43
 8008888:	781b      	ldrb	r3, [r3, #0]
 800888a:	1e5a      	subs	r2, r3, #1
 800888c:	4193      	sbcs	r3, r2
 800888e:	6822      	ldr	r2, [r4, #0]
 8008890:	0692      	lsls	r2, r2, #26
 8008892:	d430      	bmi.n	80088f6 <_printf_common+0xaa>
 8008894:	0022      	movs	r2, r4
 8008896:	9901      	ldr	r1, [sp, #4]
 8008898:	3243      	adds	r2, #67	; 0x43
 800889a:	9800      	ldr	r0, [sp, #0]
 800889c:	9e08      	ldr	r6, [sp, #32]
 800889e:	47b0      	blx	r6
 80088a0:	1c43      	adds	r3, r0, #1
 80088a2:	d025      	beq.n	80088f0 <_printf_common+0xa4>
 80088a4:	2306      	movs	r3, #6
 80088a6:	6820      	ldr	r0, [r4, #0]
 80088a8:	682a      	ldr	r2, [r5, #0]
 80088aa:	68e1      	ldr	r1, [r4, #12]
 80088ac:	4003      	ands	r3, r0
 80088ae:	2500      	movs	r5, #0
 80088b0:	2b04      	cmp	r3, #4
 80088b2:	d103      	bne.n	80088bc <_printf_common+0x70>
 80088b4:	1a8d      	subs	r5, r1, r2
 80088b6:	43eb      	mvns	r3, r5
 80088b8:	17db      	asrs	r3, r3, #31
 80088ba:	401d      	ands	r5, r3
 80088bc:	68a3      	ldr	r3, [r4, #8]
 80088be:	6922      	ldr	r2, [r4, #16]
 80088c0:	4293      	cmp	r3, r2
 80088c2:	dd01      	ble.n	80088c8 <_printf_common+0x7c>
 80088c4:	1a9b      	subs	r3, r3, r2
 80088c6:	18ed      	adds	r5, r5, r3
 80088c8:	2700      	movs	r7, #0
 80088ca:	42bd      	cmp	r5, r7
 80088cc:	d120      	bne.n	8008910 <_printf_common+0xc4>
 80088ce:	2000      	movs	r0, #0
 80088d0:	e010      	b.n	80088f4 <_printf_common+0xa8>
 80088d2:	3701      	adds	r7, #1
 80088d4:	68e3      	ldr	r3, [r4, #12]
 80088d6:	682a      	ldr	r2, [r5, #0]
 80088d8:	1a9b      	subs	r3, r3, r2
 80088da:	42bb      	cmp	r3, r7
 80088dc:	ddd2      	ble.n	8008884 <_printf_common+0x38>
 80088de:	0022      	movs	r2, r4
 80088e0:	2301      	movs	r3, #1
 80088e2:	3219      	adds	r2, #25
 80088e4:	9901      	ldr	r1, [sp, #4]
 80088e6:	9800      	ldr	r0, [sp, #0]
 80088e8:	9e08      	ldr	r6, [sp, #32]
 80088ea:	47b0      	blx	r6
 80088ec:	1c43      	adds	r3, r0, #1
 80088ee:	d1f0      	bne.n	80088d2 <_printf_common+0x86>
 80088f0:	2001      	movs	r0, #1
 80088f2:	4240      	negs	r0, r0
 80088f4:	bdfe      	pop	{r1, r2, r3, r4, r5, r6, r7, pc}
 80088f6:	2030      	movs	r0, #48	; 0x30
 80088f8:	18e1      	adds	r1, r4, r3
 80088fa:	3143      	adds	r1, #67	; 0x43
 80088fc:	7008      	strb	r0, [r1, #0]
 80088fe:	0021      	movs	r1, r4
 8008900:	1c5a      	adds	r2, r3, #1
 8008902:	3145      	adds	r1, #69	; 0x45
 8008904:	7809      	ldrb	r1, [r1, #0]
 8008906:	18a2      	adds	r2, r4, r2
 8008908:	3243      	adds	r2, #67	; 0x43
 800890a:	3302      	adds	r3, #2
 800890c:	7011      	strb	r1, [r2, #0]
 800890e:	e7c1      	b.n	8008894 <_printf_common+0x48>
 8008910:	0022      	movs	r2, r4
 8008912:	2301      	movs	r3, #1
 8008914:	321a      	adds	r2, #26
 8008916:	9901      	ldr	r1, [sp, #4]
 8008918:	9800      	ldr	r0, [sp, #0]
 800891a:	9e08      	ldr	r6, [sp, #32]
 800891c:	47b0      	blx	r6
 800891e:	1c43      	adds	r3, r0, #1
 8008920:	d0e6      	beq.n	80088f0 <_printf_common+0xa4>
 8008922:	3701      	adds	r7, #1
 8008924:	e7d1      	b.n	80088ca <_printf_common+0x7e>
	...

08008928 <_printf_i>:
 8008928:	b5f0      	push	{r4, r5, r6, r7, lr}
 800892a:	b089      	sub	sp, #36	; 0x24
 800892c:	9204      	str	r2, [sp, #16]
 800892e:	000a      	movs	r2, r1
 8008930:	3243      	adds	r2, #67	; 0x43
 8008932:	9305      	str	r3, [sp, #20]
 8008934:	9003      	str	r0, [sp, #12]
 8008936:	9202      	str	r2, [sp, #8]
 8008938:	7e0a      	ldrb	r2, [r1, #24]
 800893a:	000c      	movs	r4, r1
 800893c:	9b0e      	ldr	r3, [sp, #56]	; 0x38
 800893e:	2a6e      	cmp	r2, #110	; 0x6e
 8008940:	d100      	bne.n	8008944 <_printf_i+0x1c>
 8008942:	e086      	b.n	8008a52 <_printf_i+0x12a>
 8008944:	d81f      	bhi.n	8008986 <_printf_i+0x5e>
 8008946:	2a63      	cmp	r2, #99	; 0x63
 8008948:	d033      	beq.n	80089b2 <_printf_i+0x8a>
 800894a:	d808      	bhi.n	800895e <_printf_i+0x36>
 800894c:	2a00      	cmp	r2, #0
 800894e:	d100      	bne.n	8008952 <_printf_i+0x2a>
 8008950:	e08c      	b.n	8008a6c <_printf_i+0x144>
 8008952:	2a58      	cmp	r2, #88	; 0x58
 8008954:	d04d      	beq.n	80089f2 <_printf_i+0xca>
 8008956:	0025      	movs	r5, r4
 8008958:	3542      	adds	r5, #66	; 0x42
 800895a:	702a      	strb	r2, [r5, #0]
 800895c:	e030      	b.n	80089c0 <_printf_i+0x98>
 800895e:	2a64      	cmp	r2, #100	; 0x64
 8008960:	d001      	beq.n	8008966 <_printf_i+0x3e>
 8008962:	2a69      	cmp	r2, #105	; 0x69
 8008964:	d1f7      	bne.n	8008956 <_printf_i+0x2e>
 8008966:	6819      	ldr	r1, [r3, #0]
 8008968:	6825      	ldr	r5, [r4, #0]
 800896a:	1d0a      	adds	r2, r1, #4
 800896c:	0628      	lsls	r0, r5, #24
 800896e:	d529      	bpl.n	80089c4 <_printf_i+0x9c>
 8008970:	6808      	ldr	r0, [r1, #0]
 8008972:	601a      	str	r2, [r3, #0]
 8008974:	2800      	cmp	r0, #0
 8008976:	da03      	bge.n	8008980 <_printf_i+0x58>
 8008978:	232d      	movs	r3, #45	; 0x2d
 800897a:	9a02      	ldr	r2, [sp, #8]
 800897c:	4240      	negs	r0, r0
 800897e:	7013      	strb	r3, [r2, #0]
 8008980:	4e6b      	ldr	r6, [pc, #428]	; (8008b30 <_printf_i+0x208>)
 8008982:	270a      	movs	r7, #10
 8008984:	e04f      	b.n	8008a26 <_printf_i+0xfe>
 8008986:	2a73      	cmp	r2, #115	; 0x73
 8008988:	d074      	beq.n	8008a74 <_printf_i+0x14c>
 800898a:	d808      	bhi.n	800899e <_printf_i+0x76>
 800898c:	2a6f      	cmp	r2, #111	; 0x6f
 800898e:	d01f      	beq.n	80089d0 <_printf_i+0xa8>
 8008990:	2a70      	cmp	r2, #112	; 0x70
 8008992:	d1e0      	bne.n	8008956 <_printf_i+0x2e>
 8008994:	2220      	movs	r2, #32
 8008996:	6809      	ldr	r1, [r1, #0]
 8008998:	430a      	orrs	r2, r1
 800899a:	6022      	str	r2, [r4, #0]
 800899c:	e003      	b.n	80089a6 <_printf_i+0x7e>
 800899e:	2a75      	cmp	r2, #117	; 0x75
 80089a0:	d016      	beq.n	80089d0 <_printf_i+0xa8>
 80089a2:	2a78      	cmp	r2, #120	; 0x78
 80089a4:	d1d7      	bne.n	8008956 <_printf_i+0x2e>
 80089a6:	0022      	movs	r2, r4
 80089a8:	2178      	movs	r1, #120	; 0x78
 80089aa:	3245      	adds	r2, #69	; 0x45
 80089ac:	7011      	strb	r1, [r2, #0]
 80089ae:	4e61      	ldr	r6, [pc, #388]	; (8008b34 <_printf_i+0x20c>)
 80089b0:	e022      	b.n	80089f8 <_printf_i+0xd0>
 80089b2:	0025      	movs	r5, r4
 80089b4:	681a      	ldr	r2, [r3, #0]
 80089b6:	3542      	adds	r5, #66	; 0x42
 80089b8:	1d11      	adds	r1, r2, #4
 80089ba:	6019      	str	r1, [r3, #0]
 80089bc:	6813      	ldr	r3, [r2, #0]
 80089be:	702b      	strb	r3, [r5, #0]
 80089c0:	2301      	movs	r3, #1
 80089c2:	e065      	b.n	8008a90 <_printf_i+0x168>
 80089c4:	6808      	ldr	r0, [r1, #0]
 80089c6:	601a      	str	r2, [r3, #0]
 80089c8:	0669      	lsls	r1, r5, #25
 80089ca:	d5d3      	bpl.n	8008974 <_printf_i+0x4c>
 80089cc:	b200      	sxth	r0, r0
 80089ce:	e7d1      	b.n	8008974 <_printf_i+0x4c>
 80089d0:	6819      	ldr	r1, [r3, #0]
 80089d2:	6825      	ldr	r5, [r4, #0]
 80089d4:	1d08      	adds	r0, r1, #4
 80089d6:	6018      	str	r0, [r3, #0]
 80089d8:	6808      	ldr	r0, [r1, #0]
 80089da:	062e      	lsls	r6, r5, #24
 80089dc:	d505      	bpl.n	80089ea <_printf_i+0xc2>
 80089de:	4e54      	ldr	r6, [pc, #336]	; (8008b30 <_printf_i+0x208>)
 80089e0:	2708      	movs	r7, #8
 80089e2:	2a6f      	cmp	r2, #111	; 0x6f
 80089e4:	d01b      	beq.n	8008a1e <_printf_i+0xf6>
 80089e6:	270a      	movs	r7, #10
 80089e8:	e019      	b.n	8008a1e <_printf_i+0xf6>
 80089ea:	066d      	lsls	r5, r5, #25
 80089ec:	d5f7      	bpl.n	80089de <_printf_i+0xb6>
 80089ee:	b280      	uxth	r0, r0
 80089f0:	e7f5      	b.n	80089de <_printf_i+0xb6>
 80089f2:	3145      	adds	r1, #69	; 0x45
 80089f4:	4e4e      	ldr	r6, [pc, #312]	; (8008b30 <_printf_i+0x208>)
 80089f6:	700a      	strb	r2, [r1, #0]
 80089f8:	6818      	ldr	r0, [r3, #0]
 80089fa:	6822      	ldr	r2, [r4, #0]
 80089fc:	1d01      	adds	r1, r0, #4
 80089fe:	6800      	ldr	r0, [r0, #0]
 8008a00:	6019      	str	r1, [r3, #0]
 8008a02:	0615      	lsls	r5, r2, #24
 8008a04:	d521      	bpl.n	8008a4a <_printf_i+0x122>
 8008a06:	07d3      	lsls	r3, r2, #31
 8008a08:	d502      	bpl.n	8008a10 <_printf_i+0xe8>
 8008a0a:	2320      	movs	r3, #32
 8008a0c:	431a      	orrs	r2, r3
 8008a0e:	6022      	str	r2, [r4, #0]
 8008a10:	2710      	movs	r7, #16
 8008a12:	2800      	cmp	r0, #0
 8008a14:	d103      	bne.n	8008a1e <_printf_i+0xf6>
 8008a16:	2320      	movs	r3, #32
 8008a18:	6822      	ldr	r2, [r4, #0]
 8008a1a:	439a      	bics	r2, r3
 8008a1c:	6022      	str	r2, [r4, #0]
 8008a1e:	0023      	movs	r3, r4
 8008a20:	2200      	movs	r2, #0
 8008a22:	3343      	adds	r3, #67	; 0x43
 8008a24:	701a      	strb	r2, [r3, #0]
 8008a26:	6863      	ldr	r3, [r4, #4]
 8008a28:	60a3      	str	r3, [r4, #8]
 8008a2a:	2b00      	cmp	r3, #0
 8008a2c:	db58      	blt.n	8008ae0 <_printf_i+0x1b8>
 8008a2e:	2204      	movs	r2, #4
 8008a30:	6821      	ldr	r1, [r4, #0]
 8008a32:	4391      	bics	r1, r2
 8008a34:	6021      	str	r1, [r4, #0]
 8008a36:	2800      	cmp	r0, #0
 8008a38:	d154      	bne.n	8008ae4 <_printf_i+0x1bc>
 8008a3a:	9d02      	ldr	r5, [sp, #8]
 8008a3c:	2b00      	cmp	r3, #0
 8008a3e:	d05a      	beq.n	8008af6 <_printf_i+0x1ce>
 8008a40:	0025      	movs	r5, r4
 8008a42:	7833      	ldrb	r3, [r6, #0]
 8008a44:	3542      	adds	r5, #66	; 0x42
 8008a46:	702b      	strb	r3, [r5, #0]
 8008a48:	e055      	b.n	8008af6 <_printf_i+0x1ce>
 8008a4a:	0655      	lsls	r5, r2, #25
 8008a4c:	d5db      	bpl.n	8008a06 <_printf_i+0xde>
 8008a4e:	b280      	uxth	r0, r0
 8008a50:	e7d9      	b.n	8008a06 <_printf_i+0xde>
 8008a52:	681a      	ldr	r2, [r3, #0]
 8008a54:	680d      	ldr	r5, [r1, #0]
 8008a56:	1d10      	adds	r0, r2, #4
 8008a58:	6949      	ldr	r1, [r1, #20]
 8008a5a:	6018      	str	r0, [r3, #0]
 8008a5c:	6813      	ldr	r3, [r2, #0]
 8008a5e:	062e      	lsls	r6, r5, #24
 8008a60:	d501      	bpl.n	8008a66 <_printf_i+0x13e>
 8008a62:	6019      	str	r1, [r3, #0]
 8008a64:	e002      	b.n	8008a6c <_printf_i+0x144>
 8008a66:	066d      	lsls	r5, r5, #25
 8008a68:	d5fb      	bpl.n	8008a62 <_printf_i+0x13a>
 8008a6a:	8019      	strh	r1, [r3, #0]
 8008a6c:	2300      	movs	r3, #0
 8008a6e:	9d02      	ldr	r5, [sp, #8]
 8008a70:	6123      	str	r3, [r4, #16]
 8008a72:	e04f      	b.n	8008b14 <_printf_i+0x1ec>
 8008a74:	681a      	ldr	r2, [r3, #0]
 8008a76:	1d11      	adds	r1, r2, #4
 8008a78:	6019      	str	r1, [r3, #0]
 8008a7a:	6815      	ldr	r5, [r2, #0]
 8008a7c:	2100      	movs	r1, #0
 8008a7e:	6862      	ldr	r2, [r4, #4]
 8008a80:	0028      	movs	r0, r5
 8008a82:	f000 fb37 	bl	80090f4 <memchr>
 8008a86:	2800      	cmp	r0, #0
 8008a88:	d001      	beq.n	8008a8e <_printf_i+0x166>
 8008a8a:	1b40      	subs	r0, r0, r5
 8008a8c:	6060      	str	r0, [r4, #4]
 8008a8e:	6863      	ldr	r3, [r4, #4]
 8008a90:	6123      	str	r3, [r4, #16]
 8008a92:	2300      	movs	r3, #0
 8008a94:	9a02      	ldr	r2, [sp, #8]
 8008a96:	7013      	strb	r3, [r2, #0]
 8008a98:	e03c      	b.n	8008b14 <_printf_i+0x1ec>
 8008a9a:	6923      	ldr	r3, [r4, #16]
 8008a9c:	002a      	movs	r2, r5
 8008a9e:	9904      	ldr	r1, [sp, #16]
 8008aa0:	9803      	ldr	r0, [sp, #12]
 8008aa2:	9d05      	ldr	r5, [sp, #20]
 8008aa4:	47a8      	blx	r5
 8008aa6:	1c43      	adds	r3, r0, #1
 8008aa8:	d03e      	beq.n	8008b28 <_printf_i+0x200>
 8008aaa:	6823      	ldr	r3, [r4, #0]
 8008aac:	079b      	lsls	r3, r3, #30
 8008aae:	d415      	bmi.n	8008adc <_printf_i+0x1b4>
 8008ab0:	9b07      	ldr	r3, [sp, #28]
 8008ab2:	68e0      	ldr	r0, [r4, #12]
 8008ab4:	4298      	cmp	r0, r3
 8008ab6:	da39      	bge.n	8008b2c <_printf_i+0x204>
 8008ab8:	0018      	movs	r0, r3
 8008aba:	e037      	b.n	8008b2c <_printf_i+0x204>
 8008abc:	0022      	movs	r2, r4
 8008abe:	2301      	movs	r3, #1
 8008ac0:	3219      	adds	r2, #25
 8008ac2:	9904      	ldr	r1, [sp, #16]
 8008ac4:	9803      	ldr	r0, [sp, #12]
 8008ac6:	9e05      	ldr	r6, [sp, #20]
 8008ac8:	47b0      	blx	r6
 8008aca:	1c43      	adds	r3, r0, #1
 8008acc:	d02c      	beq.n	8008b28 <_printf_i+0x200>
 8008ace:	3501      	adds	r5, #1
 8008ad0:	68e3      	ldr	r3, [r4, #12]
 8008ad2:	9a07      	ldr	r2, [sp, #28]
 8008ad4:	1a9b      	subs	r3, r3, r2
 8008ad6:	42ab      	cmp	r3, r5
 8008ad8:	dcf0      	bgt.n	8008abc <_printf_i+0x194>
 8008ada:	e7e9      	b.n	8008ab0 <_printf_i+0x188>
 8008adc:	2500      	movs	r5, #0
 8008ade:	e7f7      	b.n	8008ad0 <_printf_i+0x1a8>
 8008ae0:	2800      	cmp	r0, #0
 8008ae2:	d0ad      	beq.n	8008a40 <_printf_i+0x118>
 8008ae4:	9d02      	ldr	r5, [sp, #8]
 8008ae6:	0039      	movs	r1, r7
 8008ae8:	f7f7 fb94 	bl	8000214 <__aeabi_uidivmod>
 8008aec:	5c73      	ldrb	r3, [r6, r1]
 8008aee:	3d01      	subs	r5, #1
 8008af0:	702b      	strb	r3, [r5, #0]
 8008af2:	2800      	cmp	r0, #0
 8008af4:	d1f7      	bne.n	8008ae6 <_printf_i+0x1be>
 8008af6:	2f08      	cmp	r7, #8
 8008af8:	d109      	bne.n	8008b0e <_printf_i+0x1e6>
 8008afa:	6823      	ldr	r3, [r4, #0]
 8008afc:	07db      	lsls	r3, r3, #31
 8008afe:	d506      	bpl.n	8008b0e <_printf_i+0x1e6>
 8008b00:	6863      	ldr	r3, [r4, #4]
 8008b02:	6922      	ldr	r2, [r4, #16]
 8008b04:	4293      	cmp	r3, r2
 8008b06:	dc02      	bgt.n	8008b0e <_printf_i+0x1e6>
 8008b08:	2330      	movs	r3, #48	; 0x30
 8008b0a:	3d01      	subs	r5, #1
 8008b0c:	702b      	strb	r3, [r5, #0]
 8008b0e:	9b02      	ldr	r3, [sp, #8]
 8008b10:	1b5b      	subs	r3, r3, r5
 8008b12:	6123      	str	r3, [r4, #16]
 8008b14:	9b05      	ldr	r3, [sp, #20]
 8008b16:	aa07      	add	r2, sp, #28
 8008b18:	9300      	str	r3, [sp, #0]
 8008b1a:	0021      	movs	r1, r4
 8008b1c:	9b04      	ldr	r3, [sp, #16]
 8008b1e:	9803      	ldr	r0, [sp, #12]
 8008b20:	f7ff fe94 	bl	800884c <_printf_common>
 8008b24:	1c43      	adds	r3, r0, #1
 8008b26:	d1b8      	bne.n	8008a9a <_printf_i+0x172>
 8008b28:	2001      	movs	r0, #1
 8008b2a:	4240      	negs	r0, r0
 8008b2c:	b009      	add	sp, #36	; 0x24
 8008b2e:	bdf0      	pop	{r4, r5, r6, r7, pc}
 8008b30:	080095a9 	.word	0x080095a9
 8008b34:	080095ba 	.word	0x080095ba

08008b38 <_sbrk_r>:
 8008b38:	2300      	movs	r3, #0
 8008b3a:	b570      	push	{r4, r5, r6, lr}
 8008b3c:	4c06      	ldr	r4, [pc, #24]	; (8008b58 <_sbrk_r+0x20>)
 8008b3e:	0005      	movs	r5, r0
 8008b40:	0008      	movs	r0, r1
 8008b42:	6023      	str	r3, [r4, #0]
 8008b44:	f7f9 f9d0 	bl	8001ee8 <_sbrk>
 8008b48:	1c43      	adds	r3, r0, #1
 8008b4a:	d103      	bne.n	8008b54 <_sbrk_r+0x1c>
 8008b4c:	6823      	ldr	r3, [r4, #0]
 8008b4e:	2b00      	cmp	r3, #0
 8008b50:	d000      	beq.n	8008b54 <_sbrk_r+0x1c>
 8008b52:	602b      	str	r3, [r5, #0]
 8008b54:	bd70      	pop	{r4, r5, r6, pc}
 8008b56:	46c0      	nop			; (mov r8, r8)
 8008b58:	20000898 	.word	0x20000898

08008b5c <__swbuf_r>:
 8008b5c:	b5f8      	push	{r3, r4, r5, r6, r7, lr}
 8008b5e:	0005      	movs	r5, r0
 8008b60:	000e      	movs	r6, r1
 8008b62:	0014      	movs	r4, r2
 8008b64:	2800      	cmp	r0, #0
 8008b66:	d004      	beq.n	8008b72 <__swbuf_r+0x16>
 8008b68:	6983      	ldr	r3, [r0, #24]
 8008b6a:	2b00      	cmp	r3, #0
 8008b6c:	d101      	bne.n	8008b72 <__swbuf_r+0x16>
 8008b6e:	f000 f9c1 	bl	8008ef4 <__sinit>
 8008b72:	4b22      	ldr	r3, [pc, #136]	; (8008bfc <__swbuf_r+0xa0>)
 8008b74:	429c      	cmp	r4, r3
 8008b76:	d12d      	bne.n	8008bd4 <__swbuf_r+0x78>
 8008b78:	686c      	ldr	r4, [r5, #4]
 8008b7a:	69a3      	ldr	r3, [r4, #24]
 8008b7c:	60a3      	str	r3, [r4, #8]
 8008b7e:	89a3      	ldrh	r3, [r4, #12]
 8008b80:	071b      	lsls	r3, r3, #28
 8008b82:	d531      	bpl.n	8008be8 <__swbuf_r+0x8c>
 8008b84:	6923      	ldr	r3, [r4, #16]
 8008b86:	2b00      	cmp	r3, #0
 8008b88:	d02e      	beq.n	8008be8 <__swbuf_r+0x8c>
 8008b8a:	6823      	ldr	r3, [r4, #0]
 8008b8c:	6922      	ldr	r2, [r4, #16]
 8008b8e:	b2f7      	uxtb	r7, r6
 8008b90:	1a98      	subs	r0, r3, r2
 8008b92:	6963      	ldr	r3, [r4, #20]
 8008b94:	b2f6      	uxtb	r6, r6
 8008b96:	4283      	cmp	r3, r0
 8008b98:	dc05      	bgt.n	8008ba6 <__swbuf_r+0x4a>
 8008b9a:	0021      	movs	r1, r4
 8008b9c:	0028      	movs	r0, r5
 8008b9e:	f000 f93b 	bl	8008e18 <_fflush_r>
 8008ba2:	2800      	cmp	r0, #0
 8008ba4:	d126      	bne.n	8008bf4 <__swbuf_r+0x98>
 8008ba6:	68a3      	ldr	r3, [r4, #8]
 8008ba8:	3001      	adds	r0, #1
 8008baa:	3b01      	subs	r3, #1
 8008bac:	60a3      	str	r3, [r4, #8]
 8008bae:	6823      	ldr	r3, [r4, #0]
 8008bb0:	1c5a      	adds	r2, r3, #1
 8008bb2:	6022      	str	r2, [r4, #0]
 8008bb4:	701f      	strb	r7, [r3, #0]
 8008bb6:	6963      	ldr	r3, [r4, #20]
 8008bb8:	4283      	cmp	r3, r0
 8008bba:	d004      	beq.n	8008bc6 <__swbuf_r+0x6a>
 8008bbc:	89a3      	ldrh	r3, [r4, #12]
 8008bbe:	07db      	lsls	r3, r3, #31
 8008bc0:	d51a      	bpl.n	8008bf8 <__swbuf_r+0x9c>
 8008bc2:	2e0a      	cmp	r6, #10
 8008bc4:	d118      	bne.n	8008bf8 <__swbuf_r+0x9c>
 8008bc6:	0021      	movs	r1, r4
 8008bc8:	0028      	movs	r0, r5
 8008bca:	f000 f925 	bl	8008e18 <_fflush_r>
 8008bce:	2800      	cmp	r0, #0
 8008bd0:	d012      	beq.n	8008bf8 <__swbuf_r+0x9c>
 8008bd2:	e00f      	b.n	8008bf4 <__swbuf_r+0x98>
 8008bd4:	4b0a      	ldr	r3, [pc, #40]	; (8008c00 <__swbuf_r+0xa4>)
 8008bd6:	429c      	cmp	r4, r3
 8008bd8:	d101      	bne.n	8008bde <__swbuf_r+0x82>
 8008bda:	68ac      	ldr	r4, [r5, #8]
 8008bdc:	e7cd      	b.n	8008b7a <__swbuf_r+0x1e>
 8008bde:	4b09      	ldr	r3, [pc, #36]	; (8008c04 <__swbuf_r+0xa8>)
 8008be0:	429c      	cmp	r4, r3
 8008be2:	d1ca      	bne.n	8008b7a <__swbuf_r+0x1e>
 8008be4:	68ec      	ldr	r4, [r5, #12]
 8008be6:	e7c8      	b.n	8008b7a <__swbuf_r+0x1e>
 8008be8:	0021      	movs	r1, r4
 8008bea:	0028      	movs	r0, r5
 8008bec:	f000 f80c 	bl	8008c08 <__swsetup_r>
 8008bf0:	2800      	cmp	r0, #0
 8008bf2:	d0ca      	beq.n	8008b8a <__swbuf_r+0x2e>
 8008bf4:	2601      	movs	r6, #1
 8008bf6:	4276      	negs	r6, r6
 8008bf8:	0030      	movs	r0, r6
 8008bfa:	bdf8      	pop	{r3, r4, r5, r6, r7, pc}
 8008bfc:	080095ec 	.word	0x080095ec
 8008c00:	0800960c 	.word	0x0800960c
 8008c04:	080095cc 	.word	0x080095cc

08008c08 <__swsetup_r>:
 8008c08:	4b36      	ldr	r3, [pc, #216]	; (8008ce4 <__swsetup_r+0xdc>)
 8008c0a:	b570      	push	{r4, r5, r6, lr}
 8008c0c:	681d      	ldr	r5, [r3, #0]
 8008c0e:	0006      	movs	r6, r0
 8008c10:	000c      	movs	r4, r1
 8008c12:	2d00      	cmp	r5, #0
 8008c14:	d005      	beq.n	8008c22 <__swsetup_r+0x1a>
 8008c16:	69ab      	ldr	r3, [r5, #24]
 8008c18:	2b00      	cmp	r3, #0
 8008c1a:	d102      	bne.n	8008c22 <__swsetup_r+0x1a>
 8008c1c:	0028      	movs	r0, r5
 8008c1e:	f000 f969 	bl	8008ef4 <__sinit>
 8008c22:	4b31      	ldr	r3, [pc, #196]	; (8008ce8 <__swsetup_r+0xe0>)
 8008c24:	429c      	cmp	r4, r3
 8008c26:	d10f      	bne.n	8008c48 <__swsetup_r+0x40>
 8008c28:	686c      	ldr	r4, [r5, #4]
 8008c2a:	230c      	movs	r3, #12
 8008c2c:	5ee2      	ldrsh	r2, [r4, r3]
 8008c2e:	b293      	uxth	r3, r2
 8008c30:	0719      	lsls	r1, r3, #28
 8008c32:	d42d      	bmi.n	8008c90 <__swsetup_r+0x88>
 8008c34:	06d9      	lsls	r1, r3, #27
 8008c36:	d411      	bmi.n	8008c5c <__swsetup_r+0x54>
 8008c38:	2309      	movs	r3, #9
 8008c3a:	2001      	movs	r0, #1
 8008c3c:	6033      	str	r3, [r6, #0]
 8008c3e:	3337      	adds	r3, #55	; 0x37
 8008c40:	4313      	orrs	r3, r2
 8008c42:	81a3      	strh	r3, [r4, #12]
 8008c44:	4240      	negs	r0, r0
 8008c46:	bd70      	pop	{r4, r5, r6, pc}
 8008c48:	4b28      	ldr	r3, [pc, #160]	; (8008cec <__swsetup_r+0xe4>)
 8008c4a:	429c      	cmp	r4, r3
 8008c4c:	d101      	bne.n	8008c52 <__swsetup_r+0x4a>
 8008c4e:	68ac      	ldr	r4, [r5, #8]
 8008c50:	e7eb      	b.n	8008c2a <__swsetup_r+0x22>
 8008c52:	4b27      	ldr	r3, [pc, #156]	; (8008cf0 <__swsetup_r+0xe8>)
 8008c54:	429c      	cmp	r4, r3
 8008c56:	d1e8      	bne.n	8008c2a <__swsetup_r+0x22>
 8008c58:	68ec      	ldr	r4, [r5, #12]
 8008c5a:	e7e6      	b.n	8008c2a <__swsetup_r+0x22>
 8008c5c:	075b      	lsls	r3, r3, #29
 8008c5e:	d513      	bpl.n	8008c88 <__swsetup_r+0x80>
 8008c60:	6b61      	ldr	r1, [r4, #52]	; 0x34
 8008c62:	2900      	cmp	r1, #0
 8008c64:	d008      	beq.n	8008c78 <__swsetup_r+0x70>
 8008c66:	0023      	movs	r3, r4
 8008c68:	3344      	adds	r3, #68	; 0x44
 8008c6a:	4299      	cmp	r1, r3
 8008c6c:	d002      	beq.n	8008c74 <__swsetup_r+0x6c>
 8008c6e:	0030      	movs	r0, r6
 8008c70:	f7ff fc06 	bl	8008480 <_free_r>
 8008c74:	2300      	movs	r3, #0
 8008c76:	6363      	str	r3, [r4, #52]	; 0x34
 8008c78:	2224      	movs	r2, #36	; 0x24
 8008c7a:	89a3      	ldrh	r3, [r4, #12]
 8008c7c:	4393      	bics	r3, r2
 8008c7e:	81a3      	strh	r3, [r4, #12]
 8008c80:	2300      	movs	r3, #0
 8008c82:	6063      	str	r3, [r4, #4]
 8008c84:	6923      	ldr	r3, [r4, #16]
 8008c86:	6023      	str	r3, [r4, #0]
 8008c88:	2308      	movs	r3, #8
 8008c8a:	89a2      	ldrh	r2, [r4, #12]
 8008c8c:	4313      	orrs	r3, r2
 8008c8e:	81a3      	strh	r3, [r4, #12]
 8008c90:	6923      	ldr	r3, [r4, #16]
 8008c92:	2b00      	cmp	r3, #0
 8008c94:	d10b      	bne.n	8008cae <__swsetup_r+0xa6>
 8008c96:	21a0      	movs	r1, #160	; 0xa0
 8008c98:	2280      	movs	r2, #128	; 0x80
 8008c9a:	89a3      	ldrh	r3, [r4, #12]
 8008c9c:	0089      	lsls	r1, r1, #2
 8008c9e:	0092      	lsls	r2, r2, #2
 8008ca0:	400b      	ands	r3, r1
 8008ca2:	4293      	cmp	r3, r2
 8008ca4:	d003      	beq.n	8008cae <__swsetup_r+0xa6>
 8008ca6:	0021      	movs	r1, r4
 8008ca8:	0030      	movs	r0, r6
 8008caa:	f000 f9df 	bl	800906c <__smakebuf_r>
 8008cae:	2301      	movs	r3, #1
 8008cb0:	89a2      	ldrh	r2, [r4, #12]
 8008cb2:	4013      	ands	r3, r2
 8008cb4:	d011      	beq.n	8008cda <__swsetup_r+0xd2>
 8008cb6:	2300      	movs	r3, #0
 8008cb8:	60a3      	str	r3, [r4, #8]
 8008cba:	6963      	ldr	r3, [r4, #20]
 8008cbc:	425b      	negs	r3, r3
 8008cbe:	61a3      	str	r3, [r4, #24]
 8008cc0:	2000      	movs	r0, #0
 8008cc2:	6923      	ldr	r3, [r4, #16]
 8008cc4:	4283      	cmp	r3, r0
 8008cc6:	d1be      	bne.n	8008c46 <__swsetup_r+0x3e>
 8008cc8:	230c      	movs	r3, #12
 8008cca:	5ee2      	ldrsh	r2, [r4, r3]
 8008ccc:	0613      	lsls	r3, r2, #24
 8008cce:	d5ba      	bpl.n	8008c46 <__swsetup_r+0x3e>
 8008cd0:	2340      	movs	r3, #64	; 0x40
 8008cd2:	4313      	orrs	r3, r2
 8008cd4:	81a3      	strh	r3, [r4, #12]
 8008cd6:	3801      	subs	r0, #1
 8008cd8:	e7b5      	b.n	8008c46 <__swsetup_r+0x3e>
 8008cda:	0792      	lsls	r2, r2, #30
 8008cdc:	d400      	bmi.n	8008ce0 <__swsetup_r+0xd8>
 8008cde:	6963      	ldr	r3, [r4, #20]
 8008ce0:	60a3      	str	r3, [r4, #8]
 8008ce2:	e7ed      	b.n	8008cc0 <__swsetup_r+0xb8>
 8008ce4:	2000000c 	.word	0x2000000c
 8008ce8:	080095ec 	.word	0x080095ec
 8008cec:	0800960c 	.word	0x0800960c
 8008cf0:	080095cc 	.word	0x080095cc

08008cf4 <abort>:
 8008cf4:	b510      	push	{r4, lr}
 8008cf6:	2006      	movs	r0, #6
 8008cf8:	f000 fa34 	bl	8009164 <raise>
 8008cfc:	2001      	movs	r0, #1
 8008cfe:	f7f9 f881 	bl	8001e04 <_exit>
	...

08008d04 <__sflush_r>:
 8008d04:	b5f7      	push	{r0, r1, r2, r4, r5, r6, r7, lr}
 8008d06:	898a      	ldrh	r2, [r1, #12]
 8008d08:	0005      	movs	r5, r0
 8008d0a:	000c      	movs	r4, r1
 8008d0c:	0713      	lsls	r3, r2, #28
 8008d0e:	d460      	bmi.n	8008dd2 <__sflush_r+0xce>
 8008d10:	684b      	ldr	r3, [r1, #4]
 8008d12:	2b00      	cmp	r3, #0
 8008d14:	dc04      	bgt.n	8008d20 <__sflush_r+0x1c>
 8008d16:	6c0b      	ldr	r3, [r1, #64]	; 0x40
 8008d18:	2b00      	cmp	r3, #0
 8008d1a:	dc01      	bgt.n	8008d20 <__sflush_r+0x1c>
 8008d1c:	2000      	movs	r0, #0
 8008d1e:	bdfe      	pop	{r1, r2, r3, r4, r5, r6, r7, pc}
 8008d20:	6ae7      	ldr	r7, [r4, #44]	; 0x2c
 8008d22:	2f00      	cmp	r7, #0
 8008d24:	d0fa      	beq.n	8008d1c <__sflush_r+0x18>
 8008d26:	2300      	movs	r3, #0
 8008d28:	682e      	ldr	r6, [r5, #0]
 8008d2a:	602b      	str	r3, [r5, #0]
 8008d2c:	2380      	movs	r3, #128	; 0x80
 8008d2e:	015b      	lsls	r3, r3, #5
 8008d30:	6a21      	ldr	r1, [r4, #32]
 8008d32:	401a      	ands	r2, r3
 8008d34:	d034      	beq.n	8008da0 <__sflush_r+0x9c>
 8008d36:	6d60      	ldr	r0, [r4, #84]	; 0x54
 8008d38:	89a3      	ldrh	r3, [r4, #12]
 8008d3a:	075b      	lsls	r3, r3, #29
 8008d3c:	d506      	bpl.n	8008d4c <__sflush_r+0x48>
 8008d3e:	6863      	ldr	r3, [r4, #4]
 8008d40:	1ac0      	subs	r0, r0, r3
 8008d42:	6b63      	ldr	r3, [r4, #52]	; 0x34
 8008d44:	2b00      	cmp	r3, #0
 8008d46:	d001      	beq.n	8008d4c <__sflush_r+0x48>
 8008d48:	6c23      	ldr	r3, [r4, #64]	; 0x40
 8008d4a:	1ac0      	subs	r0, r0, r3
 8008d4c:	0002      	movs	r2, r0
 8008d4e:	6a21      	ldr	r1, [r4, #32]
 8008d50:	2300      	movs	r3, #0
 8008d52:	0028      	movs	r0, r5
 8008d54:	6ae7      	ldr	r7, [r4, #44]	; 0x2c
 8008d56:	47b8      	blx	r7
 8008d58:	89a1      	ldrh	r1, [r4, #12]
 8008d5a:	1c43      	adds	r3, r0, #1
 8008d5c:	d106      	bne.n	8008d6c <__sflush_r+0x68>
 8008d5e:	682b      	ldr	r3, [r5, #0]
 8008d60:	2b1d      	cmp	r3, #29
 8008d62:	d830      	bhi.n	8008dc6 <__sflush_r+0xc2>
 8008d64:	4a2b      	ldr	r2, [pc, #172]	; (8008e14 <__sflush_r+0x110>)
 8008d66:	40da      	lsrs	r2, r3
 8008d68:	07d3      	lsls	r3, r2, #31
 8008d6a:	d52c      	bpl.n	8008dc6 <__sflush_r+0xc2>
 8008d6c:	2300      	movs	r3, #0
 8008d6e:	6063      	str	r3, [r4, #4]
 8008d70:	6923      	ldr	r3, [r4, #16]
 8008d72:	6023      	str	r3, [r4, #0]
 8008d74:	04cb      	lsls	r3, r1, #19
 8008d76:	d505      	bpl.n	8008d84 <__sflush_r+0x80>
 8008d78:	1c43      	adds	r3, r0, #1
 8008d7a:	d102      	bne.n	8008d82 <__sflush_r+0x7e>
 8008d7c:	682b      	ldr	r3, [r5, #0]
 8008d7e:	2b00      	cmp	r3, #0
 8008d80:	d100      	bne.n	8008d84 <__sflush_r+0x80>
 8008d82:	6560      	str	r0, [r4, #84]	; 0x54
 8008d84:	6b61      	ldr	r1, [r4, #52]	; 0x34
 8008d86:	602e      	str	r6, [r5, #0]
 8008d88:	2900      	cmp	r1, #0
 8008d8a:	d0c7      	beq.n	8008d1c <__sflush_r+0x18>
 8008d8c:	0023      	movs	r3, r4
 8008d8e:	3344      	adds	r3, #68	; 0x44
 8008d90:	4299      	cmp	r1, r3
 8008d92:	d002      	beq.n	8008d9a <__sflush_r+0x96>
 8008d94:	0028      	movs	r0, r5
 8008d96:	f7ff fb73 	bl	8008480 <_free_r>
 8008d9a:	2000      	movs	r0, #0
 8008d9c:	6360      	str	r0, [r4, #52]	; 0x34
 8008d9e:	e7be      	b.n	8008d1e <__sflush_r+0x1a>
 8008da0:	2301      	movs	r3, #1
 8008da2:	0028      	movs	r0, r5
 8008da4:	47b8      	blx	r7
 8008da6:	1c43      	adds	r3, r0, #1
 8008da8:	d1c6      	bne.n	8008d38 <__sflush_r+0x34>
 8008daa:	682b      	ldr	r3, [r5, #0]
 8008dac:	2b00      	cmp	r3, #0
 8008dae:	d0c3      	beq.n	8008d38 <__sflush_r+0x34>
 8008db0:	2b1d      	cmp	r3, #29
 8008db2:	d001      	beq.n	8008db8 <__sflush_r+0xb4>
 8008db4:	2b16      	cmp	r3, #22
 8008db6:	d101      	bne.n	8008dbc <__sflush_r+0xb8>
 8008db8:	602e      	str	r6, [r5, #0]
 8008dba:	e7af      	b.n	8008d1c <__sflush_r+0x18>
 8008dbc:	2340      	movs	r3, #64	; 0x40
 8008dbe:	89a2      	ldrh	r2, [r4, #12]
 8008dc0:	4313      	orrs	r3, r2
 8008dc2:	81a3      	strh	r3, [r4, #12]
 8008dc4:	e7ab      	b.n	8008d1e <__sflush_r+0x1a>
 8008dc6:	2340      	movs	r3, #64	; 0x40
 8008dc8:	430b      	orrs	r3, r1
 8008dca:	2001      	movs	r0, #1
 8008dcc:	81a3      	strh	r3, [r4, #12]
 8008dce:	4240      	negs	r0, r0
 8008dd0:	e7a5      	b.n	8008d1e <__sflush_r+0x1a>
 8008dd2:	690f      	ldr	r7, [r1, #16]
 8008dd4:	2f00      	cmp	r7, #0
 8008dd6:	d0a1      	beq.n	8008d1c <__sflush_r+0x18>
 8008dd8:	680b      	ldr	r3, [r1, #0]
 8008dda:	600f      	str	r7, [r1, #0]
 8008ddc:	1bdb      	subs	r3, r3, r7
 8008dde:	9301      	str	r3, [sp, #4]
 8008de0:	2300      	movs	r3, #0
 8008de2:	0792      	lsls	r2, r2, #30
 8008de4:	d100      	bne.n	8008de8 <__sflush_r+0xe4>
 8008de6:	694b      	ldr	r3, [r1, #20]
 8008de8:	60a3      	str	r3, [r4, #8]
 8008dea:	9b01      	ldr	r3, [sp, #4]
 8008dec:	2b00      	cmp	r3, #0
 8008dee:	dc00      	bgt.n	8008df2 <__sflush_r+0xee>
 8008df0:	e794      	b.n	8008d1c <__sflush_r+0x18>
 8008df2:	9b01      	ldr	r3, [sp, #4]
 8008df4:	003a      	movs	r2, r7
 8008df6:	6a21      	ldr	r1, [r4, #32]
 8008df8:	0028      	movs	r0, r5
 8008dfa:	6aa6      	ldr	r6, [r4, #40]	; 0x28
 8008dfc:	47b0      	blx	r6
 8008dfe:	2800      	cmp	r0, #0
 8008e00:	dc03      	bgt.n	8008e0a <__sflush_r+0x106>
 8008e02:	2340      	movs	r3, #64	; 0x40
 8008e04:	89a2      	ldrh	r2, [r4, #12]
 8008e06:	4313      	orrs	r3, r2
 8008e08:	e7df      	b.n	8008dca <__sflush_r+0xc6>
 8008e0a:	9b01      	ldr	r3, [sp, #4]
 8008e0c:	183f      	adds	r7, r7, r0
 8008e0e:	1a1b      	subs	r3, r3, r0
 8008e10:	9301      	str	r3, [sp, #4]
 8008e12:	e7ea      	b.n	8008dea <__sflush_r+0xe6>
 8008e14:	20400001 	.word	0x20400001

08008e18 <_fflush_r>:
 8008e18:	690b      	ldr	r3, [r1, #16]
 8008e1a:	b570      	push	{r4, r5, r6, lr}
 8008e1c:	0005      	movs	r5, r0
 8008e1e:	000c      	movs	r4, r1
 8008e20:	2b00      	cmp	r3, #0
 8008e22:	d101      	bne.n	8008e28 <_fflush_r+0x10>
 8008e24:	2000      	movs	r0, #0
 8008e26:	bd70      	pop	{r4, r5, r6, pc}
 8008e28:	2800      	cmp	r0, #0
 8008e2a:	d004      	beq.n	8008e36 <_fflush_r+0x1e>
 8008e2c:	6983      	ldr	r3, [r0, #24]
 8008e2e:	2b00      	cmp	r3, #0
 8008e30:	d101      	bne.n	8008e36 <_fflush_r+0x1e>
 8008e32:	f000 f85f 	bl	8008ef4 <__sinit>
 8008e36:	4b0b      	ldr	r3, [pc, #44]	; (8008e64 <_fflush_r+0x4c>)
 8008e38:	429c      	cmp	r4, r3
 8008e3a:	d109      	bne.n	8008e50 <_fflush_r+0x38>
 8008e3c:	686c      	ldr	r4, [r5, #4]
 8008e3e:	220c      	movs	r2, #12
 8008e40:	5ea3      	ldrsh	r3, [r4, r2]
 8008e42:	2b00      	cmp	r3, #0
 8008e44:	d0ee      	beq.n	8008e24 <_fflush_r+0xc>
 8008e46:	0021      	movs	r1, r4
 8008e48:	0028      	movs	r0, r5
 8008e4a:	f7ff ff5b 	bl	8008d04 <__sflush_r>
 8008e4e:	e7ea      	b.n	8008e26 <_fflush_r+0xe>
 8008e50:	4b05      	ldr	r3, [pc, #20]	; (8008e68 <_fflush_r+0x50>)
 8008e52:	429c      	cmp	r4, r3
 8008e54:	d101      	bne.n	8008e5a <_fflush_r+0x42>
 8008e56:	68ac      	ldr	r4, [r5, #8]
 8008e58:	e7f1      	b.n	8008e3e <_fflush_r+0x26>
 8008e5a:	4b04      	ldr	r3, [pc, #16]	; (8008e6c <_fflush_r+0x54>)
 8008e5c:	429c      	cmp	r4, r3
 8008e5e:	d1ee      	bne.n	8008e3e <_fflush_r+0x26>
 8008e60:	68ec      	ldr	r4, [r5, #12]
 8008e62:	e7ec      	b.n	8008e3e <_fflush_r+0x26>
 8008e64:	080095ec 	.word	0x080095ec
 8008e68:	0800960c 	.word	0x0800960c
 8008e6c:	080095cc 	.word	0x080095cc

08008e70 <std>:
 8008e70:	2300      	movs	r3, #0
 8008e72:	b510      	push	{r4, lr}
 8008e74:	0004      	movs	r4, r0
 8008e76:	6003      	str	r3, [r0, #0]
 8008e78:	6043      	str	r3, [r0, #4]
 8008e7a:	6083      	str	r3, [r0, #8]
 8008e7c:	8181      	strh	r1, [r0, #12]
 8008e7e:	6643      	str	r3, [r0, #100]	; 0x64
 8008e80:	81c2      	strh	r2, [r0, #14]
 8008e82:	6103      	str	r3, [r0, #16]
 8008e84:	6143      	str	r3, [r0, #20]
 8008e86:	6183      	str	r3, [r0, #24]
 8008e88:	0019      	movs	r1, r3
 8008e8a:	2208      	movs	r2, #8
 8008e8c:	305c      	adds	r0, #92	; 0x5c
 8008e8e:	f7ff fae0 	bl	8008452 <memset>
 8008e92:	4b05      	ldr	r3, [pc, #20]	; (8008ea8 <std+0x38>)
 8008e94:	6224      	str	r4, [r4, #32]
 8008e96:	6263      	str	r3, [r4, #36]	; 0x24
 8008e98:	4b04      	ldr	r3, [pc, #16]	; (8008eac <std+0x3c>)
 8008e9a:	62a3      	str	r3, [r4, #40]	; 0x28
 8008e9c:	4b04      	ldr	r3, [pc, #16]	; (8008eb0 <std+0x40>)
 8008e9e:	62e3      	str	r3, [r4, #44]	; 0x2c
 8008ea0:	4b04      	ldr	r3, [pc, #16]	; (8008eb4 <std+0x44>)
 8008ea2:	6323      	str	r3, [r4, #48]	; 0x30
 8008ea4:	bd10      	pop	{r4, pc}
 8008ea6:	46c0      	nop			; (mov r8, r8)
 8008ea8:	080091a5 	.word	0x080091a5
 8008eac:	080091cd 	.word	0x080091cd
 8008eb0:	08009205 	.word	0x08009205
 8008eb4:	08009231 	.word	0x08009231

08008eb8 <_cleanup_r>:
 8008eb8:	b510      	push	{r4, lr}
 8008eba:	4902      	ldr	r1, [pc, #8]	; (8008ec4 <_cleanup_r+0xc>)
 8008ebc:	f000 f88c 	bl	8008fd8 <_fwalk_reent>
 8008ec0:	bd10      	pop	{r4, pc}
 8008ec2:	46c0      	nop			; (mov r8, r8)
 8008ec4:	08008e19 	.word	0x08008e19

08008ec8 <__sfmoreglue>:
 8008ec8:	b570      	push	{r4, r5, r6, lr}
 8008eca:	2568      	movs	r5, #104	; 0x68
 8008ecc:	1e4a      	subs	r2, r1, #1
 8008ece:	4355      	muls	r5, r2
 8008ed0:	000e      	movs	r6, r1
 8008ed2:	0029      	movs	r1, r5
 8008ed4:	3174      	adds	r1, #116	; 0x74
 8008ed6:	f7ff fb1d 	bl	8008514 <_malloc_r>
 8008eda:	1e04      	subs	r4, r0, #0
 8008edc:	d008      	beq.n	8008ef0 <__sfmoreglue+0x28>
 8008ede:	2100      	movs	r1, #0
 8008ee0:	002a      	movs	r2, r5
 8008ee2:	6001      	str	r1, [r0, #0]
 8008ee4:	6046      	str	r6, [r0, #4]
 8008ee6:	300c      	adds	r0, #12
 8008ee8:	60a0      	str	r0, [r4, #8]
 8008eea:	3268      	adds	r2, #104	; 0x68
 8008eec:	f7ff fab1 	bl	8008452 <memset>
 8008ef0:	0020      	movs	r0, r4
 8008ef2:	bd70      	pop	{r4, r5, r6, pc}

08008ef4 <__sinit>:
 8008ef4:	6983      	ldr	r3, [r0, #24]
 8008ef6:	b513      	push	{r0, r1, r4, lr}
 8008ef8:	0004      	movs	r4, r0
 8008efa:	2b00      	cmp	r3, #0
 8008efc:	d128      	bne.n	8008f50 <__sinit+0x5c>
 8008efe:	6483      	str	r3, [r0, #72]	; 0x48
 8008f00:	64c3      	str	r3, [r0, #76]	; 0x4c
 8008f02:	6503      	str	r3, [r0, #80]	; 0x50
 8008f04:	4b13      	ldr	r3, [pc, #76]	; (8008f54 <__sinit+0x60>)
 8008f06:	4a14      	ldr	r2, [pc, #80]	; (8008f58 <__sinit+0x64>)
 8008f08:	681b      	ldr	r3, [r3, #0]
 8008f0a:	6282      	str	r2, [r0, #40]	; 0x28
 8008f0c:	9301      	str	r3, [sp, #4]
 8008f0e:	4298      	cmp	r0, r3
 8008f10:	d101      	bne.n	8008f16 <__sinit+0x22>
 8008f12:	2301      	movs	r3, #1
 8008f14:	6183      	str	r3, [r0, #24]
 8008f16:	0020      	movs	r0, r4
 8008f18:	f000 f820 	bl	8008f5c <__sfp>
 8008f1c:	6060      	str	r0, [r4, #4]
 8008f1e:	0020      	movs	r0, r4
 8008f20:	f000 f81c 	bl	8008f5c <__sfp>
 8008f24:	60a0      	str	r0, [r4, #8]
 8008f26:	0020      	movs	r0, r4
 8008f28:	f000 f818 	bl	8008f5c <__sfp>
 8008f2c:	2200      	movs	r2, #0
 8008f2e:	60e0      	str	r0, [r4, #12]
 8008f30:	2104      	movs	r1, #4
 8008f32:	6860      	ldr	r0, [r4, #4]
 8008f34:	f7ff ff9c 	bl	8008e70 <std>
 8008f38:	2201      	movs	r2, #1
 8008f3a:	2109      	movs	r1, #9
 8008f3c:	68a0      	ldr	r0, [r4, #8]
 8008f3e:	f7ff ff97 	bl	8008e70 <std>
 8008f42:	2202      	movs	r2, #2
 8008f44:	2112      	movs	r1, #18
 8008f46:	68e0      	ldr	r0, [r4, #12]
 8008f48:	f7ff ff92 	bl	8008e70 <std>
 8008f4c:	2301      	movs	r3, #1
 8008f4e:	61a3      	str	r3, [r4, #24]
 8008f50:	bd13      	pop	{r0, r1, r4, pc}
 8008f52:	46c0      	nop			; (mov r8, r8)
 8008f54:	08009594 	.word	0x08009594
 8008f58:	08008eb9 	.word	0x08008eb9

08008f5c <__sfp>:
 8008f5c:	b5f8      	push	{r3, r4, r5, r6, r7, lr}
 8008f5e:	4b1c      	ldr	r3, [pc, #112]	; (8008fd0 <__sfp+0x74>)
 8008f60:	0007      	movs	r7, r0
 8008f62:	681e      	ldr	r6, [r3, #0]
 8008f64:	69b3      	ldr	r3, [r6, #24]
 8008f66:	2b00      	cmp	r3, #0
 8008f68:	d102      	bne.n	8008f70 <__sfp+0x14>
 8008f6a:	0030      	movs	r0, r6
 8008f6c:	f7ff ffc2 	bl	8008ef4 <__sinit>
 8008f70:	3648      	adds	r6, #72	; 0x48
 8008f72:	68b4      	ldr	r4, [r6, #8]
 8008f74:	6873      	ldr	r3, [r6, #4]
 8008f76:	3b01      	subs	r3, #1
 8008f78:	d504      	bpl.n	8008f84 <__sfp+0x28>
 8008f7a:	6833      	ldr	r3, [r6, #0]
 8008f7c:	2b00      	cmp	r3, #0
 8008f7e:	d007      	beq.n	8008f90 <__sfp+0x34>
 8008f80:	6836      	ldr	r6, [r6, #0]
 8008f82:	e7f6      	b.n	8008f72 <__sfp+0x16>
 8008f84:	220c      	movs	r2, #12
 8008f86:	5ea5      	ldrsh	r5, [r4, r2]
 8008f88:	2d00      	cmp	r5, #0
 8008f8a:	d00d      	beq.n	8008fa8 <__sfp+0x4c>
 8008f8c:	3468      	adds	r4, #104	; 0x68
 8008f8e:	e7f2      	b.n	8008f76 <__sfp+0x1a>
 8008f90:	2104      	movs	r1, #4
 8008f92:	0038      	movs	r0, r7
 8008f94:	f7ff ff98 	bl	8008ec8 <__sfmoreglue>
 8008f98:	6030      	str	r0, [r6, #0]
 8008f9a:	2800      	cmp	r0, #0
 8008f9c:	d1f0      	bne.n	8008f80 <__sfp+0x24>
 8008f9e:	230c      	movs	r3, #12
 8008fa0:	0004      	movs	r4, r0
 8008fa2:	603b      	str	r3, [r7, #0]
 8008fa4:	0020      	movs	r0, r4
 8008fa6:	bdf8      	pop	{r3, r4, r5, r6, r7, pc}
 8008fa8:	0020      	movs	r0, r4
 8008faa:	4b0a      	ldr	r3, [pc, #40]	; (8008fd4 <__sfp+0x78>)
 8008fac:	6665      	str	r5, [r4, #100]	; 0x64
 8008fae:	6025      	str	r5, [r4, #0]
 8008fb0:	6065      	str	r5, [r4, #4]
 8008fb2:	60a5      	str	r5, [r4, #8]
 8008fb4:	60e3      	str	r3, [r4, #12]
 8008fb6:	6125      	str	r5, [r4, #16]
 8008fb8:	6165      	str	r5, [r4, #20]
 8008fba:	61a5      	str	r5, [r4, #24]
 8008fbc:	2208      	movs	r2, #8
 8008fbe:	0029      	movs	r1, r5
 8008fc0:	305c      	adds	r0, #92	; 0x5c
 8008fc2:	f7ff fa46 	bl	8008452 <memset>
 8008fc6:	6365      	str	r5, [r4, #52]	; 0x34
 8008fc8:	63a5      	str	r5, [r4, #56]	; 0x38
 8008fca:	64a5      	str	r5, [r4, #72]	; 0x48
 8008fcc:	64e5      	str	r5, [r4, #76]	; 0x4c
 8008fce:	e7e9      	b.n	8008fa4 <__sfp+0x48>
 8008fd0:	08009594 	.word	0x08009594
 8008fd4:	ffff0001 	.word	0xffff0001

08008fd8 <_fwalk_reent>:
 8008fd8:	b5f7      	push	{r0, r1, r2, r4, r5, r6, r7, lr}
 8008fda:	0004      	movs	r4, r0
 8008fdc:	0007      	movs	r7, r0
 8008fde:	2600      	movs	r6, #0
 8008fe0:	9101      	str	r1, [sp, #4]
 8008fe2:	3448      	adds	r4, #72	; 0x48
 8008fe4:	2c00      	cmp	r4, #0
 8008fe6:	d101      	bne.n	8008fec <_fwalk_reent+0x14>
 8008fe8:	0030      	movs	r0, r6
 8008fea:	bdfe      	pop	{r1, r2, r3, r4, r5, r6, r7, pc}
 8008fec:	6863      	ldr	r3, [r4, #4]
 8008fee:	68a5      	ldr	r5, [r4, #8]
 8008ff0:	9300      	str	r3, [sp, #0]
 8008ff2:	9b00      	ldr	r3, [sp, #0]
 8008ff4:	3b01      	subs	r3, #1
 8008ff6:	9300      	str	r3, [sp, #0]
 8008ff8:	d501      	bpl.n	8008ffe <_fwalk_reent+0x26>
 8008ffa:	6824      	ldr	r4, [r4, #0]
 8008ffc:	e7f2      	b.n	8008fe4 <_fwalk_reent+0xc>
 8008ffe:	89ab      	ldrh	r3, [r5, #12]
 8009000:	2b01      	cmp	r3, #1
 8009002:	d908      	bls.n	8009016 <_fwalk_reent+0x3e>
 8009004:	220e      	movs	r2, #14
 8009006:	5eab      	ldrsh	r3, [r5, r2]
 8009008:	3301      	adds	r3, #1
 800900a:	d004      	beq.n	8009016 <_fwalk_reent+0x3e>
 800900c:	0029      	movs	r1, r5
 800900e:	0038      	movs	r0, r7
 8009010:	9b01      	ldr	r3, [sp, #4]
 8009012:	4798      	blx	r3
 8009014:	4306      	orrs	r6, r0
 8009016:	3568      	adds	r5, #104	; 0x68
 8009018:	e7eb      	b.n	8008ff2 <_fwalk_reent+0x1a>
	...

0800901c <__swhatbuf_r>:
 800901c:	b570      	push	{r4, r5, r6, lr}
 800901e:	000e      	movs	r6, r1
 8009020:	001d      	movs	r5, r3
 8009022:	230e      	movs	r3, #14
 8009024:	5ec9      	ldrsh	r1, [r1, r3]
 8009026:	b096      	sub	sp, #88	; 0x58
 8009028:	0014      	movs	r4, r2
 800902a:	2900      	cmp	r1, #0
 800902c:	da07      	bge.n	800903e <__swhatbuf_r+0x22>
 800902e:	2300      	movs	r3, #0
 8009030:	602b      	str	r3, [r5, #0]
 8009032:	89b3      	ldrh	r3, [r6, #12]
 8009034:	061b      	lsls	r3, r3, #24
 8009036:	d411      	bmi.n	800905c <__swhatbuf_r+0x40>
 8009038:	2380      	movs	r3, #128	; 0x80
 800903a:	00db      	lsls	r3, r3, #3
 800903c:	e00f      	b.n	800905e <__swhatbuf_r+0x42>
 800903e:	466a      	mov	r2, sp
 8009040:	f000 f922 	bl	8009288 <_fstat_r>
 8009044:	2800      	cmp	r0, #0
 8009046:	dbf2      	blt.n	800902e <__swhatbuf_r+0x12>
 8009048:	22f0      	movs	r2, #240	; 0xf0
 800904a:	9b01      	ldr	r3, [sp, #4]
 800904c:	0212      	lsls	r2, r2, #8
 800904e:	4013      	ands	r3, r2
 8009050:	4a05      	ldr	r2, [pc, #20]	; (8009068 <__swhatbuf_r+0x4c>)
 8009052:	189b      	adds	r3, r3, r2
 8009054:	425a      	negs	r2, r3
 8009056:	4153      	adcs	r3, r2
 8009058:	602b      	str	r3, [r5, #0]
 800905a:	e7ed      	b.n	8009038 <__swhatbuf_r+0x1c>
 800905c:	2340      	movs	r3, #64	; 0x40
 800905e:	2000      	movs	r0, #0
 8009060:	6023      	str	r3, [r4, #0]
 8009062:	b016      	add	sp, #88	; 0x58
 8009064:	bd70      	pop	{r4, r5, r6, pc}
 8009066:	46c0      	nop			; (mov r8, r8)
 8009068:	ffffe000 	.word	0xffffe000

0800906c <__smakebuf_r>:
 800906c:	b5f7      	push	{r0, r1, r2, r4, r5, r6, r7, lr}
 800906e:	2602      	movs	r6, #2
 8009070:	898b      	ldrh	r3, [r1, #12]
 8009072:	0005      	movs	r5, r0
 8009074:	000c      	movs	r4, r1
 8009076:	4233      	tst	r3, r6
 8009078:	d006      	beq.n	8009088 <__smakebuf_r+0x1c>
 800907a:	0023      	movs	r3, r4
 800907c:	3347      	adds	r3, #71	; 0x47
 800907e:	6023      	str	r3, [r4, #0]
 8009080:	6123      	str	r3, [r4, #16]
 8009082:	2301      	movs	r3, #1
 8009084:	6163      	str	r3, [r4, #20]
 8009086:	bdf7      	pop	{r0, r1, r2, r4, r5, r6, r7, pc}
 8009088:	ab01      	add	r3, sp, #4
 800908a:	466a      	mov	r2, sp
 800908c:	f7ff ffc6 	bl	800901c <__swhatbuf_r>
 8009090:	9900      	ldr	r1, [sp, #0]
 8009092:	0007      	movs	r7, r0
 8009094:	0028      	movs	r0, r5
 8009096:	f7ff fa3d 	bl	8008514 <_malloc_r>
 800909a:	2800      	cmp	r0, #0
 800909c:	d108      	bne.n	80090b0 <__smakebuf_r+0x44>
 800909e:	220c      	movs	r2, #12
 80090a0:	5ea3      	ldrsh	r3, [r4, r2]
 80090a2:	059a      	lsls	r2, r3, #22
 80090a4:	d4ef      	bmi.n	8009086 <__smakebuf_r+0x1a>
 80090a6:	2203      	movs	r2, #3
 80090a8:	4393      	bics	r3, r2
 80090aa:	431e      	orrs	r6, r3
 80090ac:	81a6      	strh	r6, [r4, #12]
 80090ae:	e7e4      	b.n	800907a <__smakebuf_r+0xe>
 80090b0:	4b0f      	ldr	r3, [pc, #60]	; (80090f0 <__smakebuf_r+0x84>)
 80090b2:	62ab      	str	r3, [r5, #40]	; 0x28
 80090b4:	2380      	movs	r3, #128	; 0x80
 80090b6:	89a2      	ldrh	r2, [r4, #12]
 80090b8:	6020      	str	r0, [r4, #0]
 80090ba:	4313      	orrs	r3, r2
 80090bc:	81a3      	strh	r3, [r4, #12]
 80090be:	9b00      	ldr	r3, [sp, #0]
 80090c0:	6120      	str	r0, [r4, #16]
 80090c2:	6163      	str	r3, [r4, #20]
 80090c4:	9b01      	ldr	r3, [sp, #4]
 80090c6:	2b00      	cmp	r3, #0
 80090c8:	d00d      	beq.n	80090e6 <__smakebuf_r+0x7a>
 80090ca:	230e      	movs	r3, #14
 80090cc:	5ee1      	ldrsh	r1, [r4, r3]
 80090ce:	0028      	movs	r0, r5
 80090d0:	f000 f8ec 	bl	80092ac <_isatty_r>
 80090d4:	2800      	cmp	r0, #0
 80090d6:	d006      	beq.n	80090e6 <__smakebuf_r+0x7a>
 80090d8:	2203      	movs	r2, #3
 80090da:	89a3      	ldrh	r3, [r4, #12]
 80090dc:	4393      	bics	r3, r2
 80090de:	001a      	movs	r2, r3
 80090e0:	2301      	movs	r3, #1
 80090e2:	4313      	orrs	r3, r2
 80090e4:	81a3      	strh	r3, [r4, #12]
 80090e6:	89a0      	ldrh	r0, [r4, #12]
 80090e8:	4338      	orrs	r0, r7
 80090ea:	81a0      	strh	r0, [r4, #12]
 80090ec:	e7cb      	b.n	8009086 <__smakebuf_r+0x1a>
 80090ee:	46c0      	nop			; (mov r8, r8)
 80090f0:	08008eb9 	.word	0x08008eb9

080090f4 <memchr>:
 80090f4:	b2c9      	uxtb	r1, r1
 80090f6:	1882      	adds	r2, r0, r2
 80090f8:	4290      	cmp	r0, r2
 80090fa:	d101      	bne.n	8009100 <memchr+0xc>
 80090fc:	2000      	movs	r0, #0
 80090fe:	4770      	bx	lr
 8009100:	7803      	ldrb	r3, [r0, #0]
 8009102:	428b      	cmp	r3, r1
 8009104:	d0fb      	beq.n	80090fe <memchr+0xa>
 8009106:	3001      	adds	r0, #1
 8009108:	e7f6      	b.n	80090f8 <memchr+0x4>

0800910a <__malloc_lock>:
 800910a:	4770      	bx	lr

0800910c <__malloc_unlock>:
 800910c:	4770      	bx	lr

0800910e <_raise_r>:
 800910e:	b570      	push	{r4, r5, r6, lr}
 8009110:	0004      	movs	r4, r0
 8009112:	000d      	movs	r5, r1
 8009114:	291f      	cmp	r1, #31
 8009116:	d904      	bls.n	8009122 <_raise_r+0x14>
 8009118:	2316      	movs	r3, #22
 800911a:	6003      	str	r3, [r0, #0]
 800911c:	2001      	movs	r0, #1
 800911e:	4240      	negs	r0, r0
 8009120:	bd70      	pop	{r4, r5, r6, pc}
 8009122:	6c43      	ldr	r3, [r0, #68]	; 0x44
 8009124:	2b00      	cmp	r3, #0
 8009126:	d004      	beq.n	8009132 <_raise_r+0x24>
 8009128:	008a      	lsls	r2, r1, #2
 800912a:	189b      	adds	r3, r3, r2
 800912c:	681a      	ldr	r2, [r3, #0]
 800912e:	2a00      	cmp	r2, #0
 8009130:	d108      	bne.n	8009144 <_raise_r+0x36>
 8009132:	0020      	movs	r0, r4
 8009134:	f000 f832 	bl	800919c <_getpid_r>
 8009138:	002a      	movs	r2, r5
 800913a:	0001      	movs	r1, r0
 800913c:	0020      	movs	r0, r4
 800913e:	f000 f81b 	bl	8009178 <_kill_r>
 8009142:	e7ed      	b.n	8009120 <_raise_r+0x12>
 8009144:	2000      	movs	r0, #0
 8009146:	2a01      	cmp	r2, #1
 8009148:	d0ea      	beq.n	8009120 <_raise_r+0x12>
 800914a:	1c51      	adds	r1, r2, #1
 800914c:	d103      	bne.n	8009156 <_raise_r+0x48>
 800914e:	2316      	movs	r3, #22
 8009150:	3001      	adds	r0, #1
 8009152:	6023      	str	r3, [r4, #0]
 8009154:	e7e4      	b.n	8009120 <_raise_r+0x12>
 8009156:	2400      	movs	r4, #0
 8009158:	0028      	movs	r0, r5
 800915a:	601c      	str	r4, [r3, #0]
 800915c:	4790      	blx	r2
 800915e:	0020      	movs	r0, r4
 8009160:	e7de      	b.n	8009120 <_raise_r+0x12>
	...

08009164 <raise>:
 8009164:	b510      	push	{r4, lr}
 8009166:	4b03      	ldr	r3, [pc, #12]	; (8009174 <raise+0x10>)
 8009168:	0001      	movs	r1, r0
 800916a:	6818      	ldr	r0, [r3, #0]
 800916c:	f7ff ffcf 	bl	800910e <_raise_r>
 8009170:	bd10      	pop	{r4, pc}
 8009172:	46c0      	nop			; (mov r8, r8)
 8009174:	2000000c 	.word	0x2000000c

08009178 <_kill_r>:
 8009178:	2300      	movs	r3, #0
 800917a:	b570      	push	{r4, r5, r6, lr}
 800917c:	4c06      	ldr	r4, [pc, #24]	; (8009198 <_kill_r+0x20>)
 800917e:	0005      	movs	r5, r0
 8009180:	0008      	movs	r0, r1
 8009182:	0011      	movs	r1, r2
 8009184:	6023      	str	r3, [r4, #0]
 8009186:	f7f8 fe2d 	bl	8001de4 <_kill>
 800918a:	1c43      	adds	r3, r0, #1
 800918c:	d103      	bne.n	8009196 <_kill_r+0x1e>
 800918e:	6823      	ldr	r3, [r4, #0]
 8009190:	2b00      	cmp	r3, #0
 8009192:	d000      	beq.n	8009196 <_kill_r+0x1e>
 8009194:	602b      	str	r3, [r5, #0]
 8009196:	bd70      	pop	{r4, r5, r6, pc}
 8009198:	20000898 	.word	0x20000898

0800919c <_getpid_r>:
 800919c:	b510      	push	{r4, lr}
 800919e:	f7f8 fe1b 	bl	8001dd8 <_getpid>
 80091a2:	bd10      	pop	{r4, pc}

080091a4 <__sread>:
 80091a4:	b570      	push	{r4, r5, r6, lr}
 80091a6:	000c      	movs	r4, r1
 80091a8:	250e      	movs	r5, #14
 80091aa:	5f49      	ldrsh	r1, [r1, r5]
 80091ac:	f000 f8a4 	bl	80092f8 <_read_r>
 80091b0:	2800      	cmp	r0, #0
 80091b2:	db03      	blt.n	80091bc <__sread+0x18>
 80091b4:	6d63      	ldr	r3, [r4, #84]	; 0x54
 80091b6:	181b      	adds	r3, r3, r0
 80091b8:	6563      	str	r3, [r4, #84]	; 0x54
 80091ba:	bd70      	pop	{r4, r5, r6, pc}
 80091bc:	89a3      	ldrh	r3, [r4, #12]
 80091be:	4a02      	ldr	r2, [pc, #8]	; (80091c8 <__sread+0x24>)
 80091c0:	4013      	ands	r3, r2
 80091c2:	81a3      	strh	r3, [r4, #12]
 80091c4:	e7f9      	b.n	80091ba <__sread+0x16>
 80091c6:	46c0      	nop			; (mov r8, r8)
 80091c8:	ffffefff 	.word	0xffffefff

080091cc <__swrite>:
 80091cc:	b5f8      	push	{r3, r4, r5, r6, r7, lr}
 80091ce:	001f      	movs	r7, r3
 80091d0:	898b      	ldrh	r3, [r1, #12]
 80091d2:	0005      	movs	r5, r0
 80091d4:	000c      	movs	r4, r1
 80091d6:	0016      	movs	r6, r2
 80091d8:	05db      	lsls	r3, r3, #23
 80091da:	d505      	bpl.n	80091e8 <__swrite+0x1c>
 80091dc:	230e      	movs	r3, #14
 80091de:	5ec9      	ldrsh	r1, [r1, r3]
 80091e0:	2200      	movs	r2, #0
 80091e2:	2302      	movs	r3, #2
 80091e4:	f000 f874 	bl	80092d0 <_lseek_r>
 80091e8:	89a3      	ldrh	r3, [r4, #12]
 80091ea:	4a05      	ldr	r2, [pc, #20]	; (8009200 <__swrite+0x34>)
 80091ec:	0028      	movs	r0, r5
 80091ee:	4013      	ands	r3, r2
 80091f0:	81a3      	strh	r3, [r4, #12]
 80091f2:	0032      	movs	r2, r6
 80091f4:	230e      	movs	r3, #14
 80091f6:	5ee1      	ldrsh	r1, [r4, r3]
 80091f8:	003b      	movs	r3, r7
 80091fa:	f000 f81f 	bl	800923c <_write_r>
 80091fe:	bdf8      	pop	{r3, r4, r5, r6, r7, pc}
 8009200:	ffffefff 	.word	0xffffefff

08009204 <__sseek>:
 8009204:	b570      	push	{r4, r5, r6, lr}
 8009206:	000c      	movs	r4, r1
 8009208:	250e      	movs	r5, #14
 800920a:	5f49      	ldrsh	r1, [r1, r5]
 800920c:	f000 f860 	bl	80092d0 <_lseek_r>
 8009210:	89a3      	ldrh	r3, [r4, #12]
 8009212:	1c42      	adds	r2, r0, #1
 8009214:	d103      	bne.n	800921e <__sseek+0x1a>
 8009216:	4a05      	ldr	r2, [pc, #20]	; (800922c <__sseek+0x28>)
 8009218:	4013      	ands	r3, r2
 800921a:	81a3      	strh	r3, [r4, #12]
 800921c:	bd70      	pop	{r4, r5, r6, pc}
 800921e:	2280      	movs	r2, #128	; 0x80
 8009220:	0152      	lsls	r2, r2, #5
 8009222:	4313      	orrs	r3, r2
 8009224:	81a3      	strh	r3, [r4, #12]
 8009226:	6560      	str	r0, [r4, #84]	; 0x54
 8009228:	e7f8      	b.n	800921c <__sseek+0x18>
 800922a:	46c0      	nop			; (mov r8, r8)
 800922c:	ffffefff 	.word	0xffffefff

08009230 <__sclose>:
 8009230:	b510      	push	{r4, lr}
 8009232:	230e      	movs	r3, #14
 8009234:	5ec9      	ldrsh	r1, [r1, r3]
 8009236:	f000 f815 	bl	8009264 <_close_r>
 800923a:	bd10      	pop	{r4, pc}

0800923c <_write_r>:
 800923c:	b570      	push	{r4, r5, r6, lr}
 800923e:	0005      	movs	r5, r0
 8009240:	0008      	movs	r0, r1
 8009242:	0011      	movs	r1, r2
 8009244:	2200      	movs	r2, #0
 8009246:	4c06      	ldr	r4, [pc, #24]	; (8009260 <_write_r+0x24>)
 8009248:	6022      	str	r2, [r4, #0]
 800924a:	001a      	movs	r2, r3
 800924c:	f7f8 fe03 	bl	8001e56 <_write>
 8009250:	1c43      	adds	r3, r0, #1
 8009252:	d103      	bne.n	800925c <_write_r+0x20>
 8009254:	6823      	ldr	r3, [r4, #0]
 8009256:	2b00      	cmp	r3, #0
 8009258:	d000      	beq.n	800925c <_write_r+0x20>
 800925a:	602b      	str	r3, [r5, #0]
 800925c:	bd70      	pop	{r4, r5, r6, pc}
 800925e:	46c0      	nop			; (mov r8, r8)
 8009260:	20000898 	.word	0x20000898

08009264 <_close_r>:
 8009264:	2300      	movs	r3, #0
 8009266:	b570      	push	{r4, r5, r6, lr}
 8009268:	4c06      	ldr	r4, [pc, #24]	; (8009284 <_close_r+0x20>)
 800926a:	0005      	movs	r5, r0
 800926c:	0008      	movs	r0, r1
 800926e:	6023      	str	r3, [r4, #0]
 8009270:	f7f8 fe0d 	bl	8001e8e <_close>
 8009274:	1c43      	adds	r3, r0, #1
 8009276:	d103      	bne.n	8009280 <_close_r+0x1c>
 8009278:	6823      	ldr	r3, [r4, #0]
 800927a:	2b00      	cmp	r3, #0
 800927c:	d000      	beq.n	8009280 <_close_r+0x1c>
 800927e:	602b      	str	r3, [r5, #0]
 8009280:	bd70      	pop	{r4, r5, r6, pc}
 8009282:	46c0      	nop			; (mov r8, r8)
 8009284:	20000898 	.word	0x20000898

08009288 <_fstat_r>:
 8009288:	2300      	movs	r3, #0
 800928a:	b570      	push	{r4, r5, r6, lr}
 800928c:	4c06      	ldr	r4, [pc, #24]	; (80092a8 <_fstat_r+0x20>)
 800928e:	0005      	movs	r5, r0
 8009290:	0008      	movs	r0, r1
 8009292:	0011      	movs	r1, r2
 8009294:	6023      	str	r3, [r4, #0]
 8009296:	f7f8 fe04 	bl	8001ea2 <_fstat>
 800929a:	1c43      	adds	r3, r0, #1
 800929c:	d103      	bne.n	80092a6 <_fstat_r+0x1e>
 800929e:	6823      	ldr	r3, [r4, #0]
 80092a0:	2b00      	cmp	r3, #0
 80092a2:	d000      	beq.n	80092a6 <_fstat_r+0x1e>
 80092a4:	602b      	str	r3, [r5, #0]
 80092a6:	bd70      	pop	{r4, r5, r6, pc}
 80092a8:	20000898 	.word	0x20000898

080092ac <_isatty_r>:
 80092ac:	2300      	movs	r3, #0
 80092ae:	b570      	push	{r4, r5, r6, lr}
 80092b0:	4c06      	ldr	r4, [pc, #24]	; (80092cc <_isatty_r+0x20>)
 80092b2:	0005      	movs	r5, r0
 80092b4:	0008      	movs	r0, r1
 80092b6:	6023      	str	r3, [r4, #0]
 80092b8:	f7f8 fe01 	bl	8001ebe <_isatty>
 80092bc:	1c43      	adds	r3, r0, #1
 80092be:	d103      	bne.n	80092c8 <_isatty_r+0x1c>
 80092c0:	6823      	ldr	r3, [r4, #0]
 80092c2:	2b00      	cmp	r3, #0
 80092c4:	d000      	beq.n	80092c8 <_isatty_r+0x1c>
 80092c6:	602b      	str	r3, [r5, #0]
 80092c8:	bd70      	pop	{r4, r5, r6, pc}
 80092ca:	46c0      	nop			; (mov r8, r8)
 80092cc:	20000898 	.word	0x20000898

080092d0 <_lseek_r>:
 80092d0:	b570      	push	{r4, r5, r6, lr}
 80092d2:	0005      	movs	r5, r0
 80092d4:	0008      	movs	r0, r1
 80092d6:	0011      	movs	r1, r2
 80092d8:	2200      	movs	r2, #0
 80092da:	4c06      	ldr	r4, [pc, #24]	; (80092f4 <_lseek_r+0x24>)
 80092dc:	6022      	str	r2, [r4, #0]
 80092de:	001a      	movs	r2, r3
 80092e0:	f7f8 fdf6 	bl	8001ed0 <_lseek>
 80092e4:	1c43      	adds	r3, r0, #1
 80092e6:	d103      	bne.n	80092f0 <_lseek_r+0x20>
 80092e8:	6823      	ldr	r3, [r4, #0]
 80092ea:	2b00      	cmp	r3, #0
 80092ec:	d000      	beq.n	80092f0 <_lseek_r+0x20>
 80092ee:	602b      	str	r3, [r5, #0]
 80092f0:	bd70      	pop	{r4, r5, r6, pc}
 80092f2:	46c0      	nop			; (mov r8, r8)
 80092f4:	20000898 	.word	0x20000898

080092f8 <_read_r>:
 80092f8:	b570      	push	{r4, r5, r6, lr}
 80092fa:	0005      	movs	r5, r0
 80092fc:	0008      	movs	r0, r1
 80092fe:	0011      	movs	r1, r2
 8009300:	2200      	movs	r2, #0
 8009302:	4c06      	ldr	r4, [pc, #24]	; (800931c <_read_r+0x24>)
 8009304:	6022      	str	r2, [r4, #0]
 8009306:	001a      	movs	r2, r3
 8009308:	f7f8 fd88 	bl	8001e1c <_read>
 800930c:	1c43      	adds	r3, r0, #1
 800930e:	d103      	bne.n	8009318 <_read_r+0x20>
 8009310:	6823      	ldr	r3, [r4, #0]
 8009312:	2b00      	cmp	r3, #0
 8009314:	d000      	beq.n	8009318 <_read_r+0x20>
 8009316:	602b      	str	r3, [r5, #0]
 8009318:	bd70      	pop	{r4, r5, r6, pc}
 800931a:	46c0      	nop			; (mov r8, r8)
 800931c:	20000898 	.word	0x20000898

08009320 <_init>:
 8009320:	b5f8      	push	{r3, r4, r5, r6, r7, lr}
 8009322:	46c0      	nop			; (mov r8, r8)
 8009324:	bcf8      	pop	{r3, r4, r5, r6, r7}
 8009326:	bc08      	pop	{r3}
 8009328:	469e      	mov	lr, r3
 800932a:	4770      	bx	lr

0800932c <_fini>:
 800932c:	b5f8      	push	{r3, r4, r5, r6, r7, lr}
 800932e:	46c0      	nop			; (mov r8, r8)
 8009330:	bcf8      	pop	{r3, r4, r5, r6, r7}
 8009332:	bc08      	pop	{r3}
 8009334:	469e      	mov	lr, r3
 8009336:	4770      	bx	lr

08009338 <__FLASH_Program_Fast_veneer>:
 8009338:	b401      	push	{r0}
 800933a:	4802      	ldr	r0, [pc, #8]	; (8009344 <__FLASH_Program_Fast_veneer+0xc>)
 800933c:	4684      	mov	ip, r0
 800933e:	bc01      	pop	{r0}
 8009340:	4760      	bx	ip
 8009342:	bf00      	nop
 8009344:	20000071 	.word	0x20000071

Disassembly of section .data:

20000000 <SystemCoreClock>:
20000000:	00f42400                                .$..

20000004 <uwTickPrio>:
20000004:	00000004                                ....

20000008 <uwTickFreq>:
20000008:	00000001                                ....

2000000c <_impure_ptr>:
2000000c:	20000010                                ... 

20000010 <impure_data>:
20000010:	00000000 080095ec 0800960c 080095cc     ................
	...

20000070 <FLASH_Program_Fast>:
  * @param  Address Specifies the address to be programmed.
  * @param  DataAddress Specifies the address where the data are stored.
  * @retval None
  */
static __RAM_FUNC void FLASH_Program_Fast(uint32_t Address, uint32_t DataAddress)
{
20000070:	b580      	push	{r7, lr}
20000072:	b088      	sub	sp, #32
20000074:	af00      	add	r7, sp, #0
20000076:	6078      	str	r0, [r7, #4]
20000078:	6039      	str	r1, [r7, #0]
  uint8_t index = 0;
2000007a:	231f      	movs	r3, #31
2000007c:	18fb      	adds	r3, r7, r3
2000007e:	2200      	movs	r2, #0
20000080:	701a      	strb	r2, [r3, #0]
  uint32_t dest = Address;
20000082:	687b      	ldr	r3, [r7, #4]
20000084:	61bb      	str	r3, [r7, #24]
  uint32_t src = DataAddress;
20000086:	683b      	ldr	r3, [r7, #0]
20000088:	617b      	str	r3, [r7, #20]
  uint32_t primask_bit;

  /* Set FSTPG bit */
  SET_BIT(FLASH->CR, FLASH_CR_FSTPG);
2000008a:	4b19      	ldr	r3, [pc, #100]	; (200000f0 <FLASH_Program_Fast+0x80>)
2000008c:	695a      	ldr	r2, [r3, #20]
2000008e:	4b18      	ldr	r3, [pc, #96]	; (200000f0 <FLASH_Program_Fast+0x80>)
20000090:	2180      	movs	r1, #128	; 0x80
20000092:	02c9      	lsls	r1, r1, #11
20000094:	430a      	orrs	r2, r1
20000096:	615a      	str	r2, [r3, #20]
  __ASM volatile ("MRS %0, primask" : "=r" (result) :: "memory");
20000098:	f3ef 8310 	mrs	r3, PRIMASK
2000009c:	60fb      	str	r3, [r7, #12]
  return(result);
2000009e:	68fb      	ldr	r3, [r7, #12]

  /* Enter critical section: row programming should not be longer than 7 ms */
  primask_bit = __get_PRIMASK();
200000a0:	613b      	str	r3, [r7, #16]
  __ASM volatile ("cpsid i" : : : "memory");
200000a2:	b672      	cpsid	i
  __disable_irq();

  /* Fast Program : 64 words */
  while (index < 64U)
200000a4:	e00f      	b.n	200000c6 <FLASH_Program_Fast+0x56>
  {
    *(uint32_t *)dest = *(uint32_t *)src;
200000a6:	697a      	ldr	r2, [r7, #20]
200000a8:	69bb      	ldr	r3, [r7, #24]
200000aa:	6812      	ldr	r2, [r2, #0]
200000ac:	601a      	str	r2, [r3, #0]
    src += 4U;
200000ae:	697b      	ldr	r3, [r7, #20]
200000b0:	3304      	adds	r3, #4
200000b2:	617b      	str	r3, [r7, #20]
    dest += 4U;
200000b4:	69bb      	ldr	r3, [r7, #24]
200000b6:	3304      	adds	r3, #4
200000b8:	61bb      	str	r3, [r7, #24]
    index++;
200000ba:	211f      	movs	r1, #31
200000bc:	187b      	adds	r3, r7, r1
200000be:	781a      	ldrb	r2, [r3, #0]
200000c0:	187b      	adds	r3, r7, r1
200000c2:	3201      	adds	r2, #1
200000c4:	701a      	strb	r2, [r3, #0]
  while (index < 64U)
200000c6:	231f      	movs	r3, #31
200000c8:	18fb      	adds	r3, r7, r3
200000ca:	781b      	ldrb	r3, [r3, #0]
200000cc:	2b3f      	cmp	r3, #63	; 0x3f
200000ce:	d9ea      	bls.n	200000a6 <FLASH_Program_Fast+0x36>
     be anyway done later */

#if defined(FLASH_DBANK_SUPPORT)
  while ((FLASH->SR & (FLASH_SR_BSY1 | FLASH_SR_BSY2)) != 0x00U)
#else
  while ((FLASH->SR & FLASH_SR_BSY1) != 0x00U)
200000d0:	46c0      	nop			; (mov r8, r8)
200000d2:	4b07      	ldr	r3, [pc, #28]	; (200000f0 <FLASH_Program_Fast+0x80>)
200000d4:	691a      	ldr	r2, [r3, #16]
200000d6:	2380      	movs	r3, #128	; 0x80
200000d8:	025b      	lsls	r3, r3, #9
200000da:	4013      	ands	r3, r2
200000dc:	d1f9      	bne.n	200000d2 <FLASH_Program_Fast+0x62>
200000de:	693b      	ldr	r3, [r7, #16]
200000e0:	60bb      	str	r3, [r7, #8]
  __ASM volatile ("MSR primask, %0" : : "r" (priMask) : "memory");
200000e2:	68bb      	ldr	r3, [r7, #8]
200000e4:	f383 8810 	msr	PRIMASK, r3
  {
  }

  /* Exit critical section: restore previous priority mask */
  __set_PRIMASK(primask_bit);
}
200000e8:	46c0      	nop			; (mov r8, r8)
200000ea:	46bd      	mov	sp, r7
200000ec:	b008      	add	sp, #32
200000ee:	bd80      	pop	{r7, pc}
200000f0:	40022000 	.word	0x40022000
